(dp0
S'192.168.1.85-192.168.1.12'
p1
(iprimitives
Link
p2
(dp3
S'backbone'
p4
NsS'cable'
p5
NsS'ap2'
p6
S'192.168.1.12'
p7
sS'ap1'
p8
S'192.168.1.85'
p9
sS'color'
p10
S'#1617e5'
p11
sS'lq'
p12
F1.0
sbsS'192.168.1.233-192.168.1.138'
p13
(iprimitives
Link
p14
(dp15
g4
Nsg5
Nsg6
S'192.168.1.138'
p16
sg8
S'192.168.1.233'
p17
sg10
S'#1617e5'
p18
sg12
F1.0
sbsS'192.168.1.199-192.168.1.198'
p19
(iprimitives
Link
p20
(dp21
g4
Nsg5
Nsg6
S'192.168.1.198'
p22
sg8
S'192.168.1.199'
p23
sg10
S'#1641e5'
p24
sg12
F0.94899999999999995
sbsS'192.168.1.235-192.168.1.165'
p25
(iprimitives
Link
p26
(dp27
g4
Nsg5
Nsg6
S'192.168.1.165'
p28
sg8
S'192.168.1.235'
p29
sg10
S'#1617e5'
p30
sg12
F1.0
sbsS'192.168.1.152-192.168.1.25'
p31
(iprimitives
Link
p32
(dp33
g4
Nsg5
I01
sg6
S'192.168.1.25'
p34
sg8
S'192.168.1.152'
p35
sg10
S'#1617e5'
p36
sg12
F1.0
sbsS'192.168.1.236-192.168.1.235'
p37
(iprimitives
Link
p38
(dp39
g4
Nsg5
Nsg6
g29
sg8
S'192.168.1.236'
p40
sg10
S'#1617e5'
p41
sg12
F1.0
sbsS'192.168.1.185-192.168.1.183'
p42
(iprimitives
Link
p43
(dp44
g4
I01
sg5
Nsg6
S'192.168.1.183'
p45
sg8
S'192.168.1.185'
p46
sg10
S'#1617e5'
p47
sg12
F1.0
sbsS'192.168.2.17-192.168.2.11'
p48
(iprimitives
Link
p49
(dp50
g4
Nsg5
Nsg6
S'192.168.2.11'
p51
sg8
S'192.168.2.17'
p52
sg10
S'#1617e5'
p53
sg12
F1.0
sbsS'192.168.1.201-192.168.1.179'
p54
(iprimitives
Link
p55
(dp56
g4
Nsg5
Nsg6
S'192.168.1.179'
p57
sg8
S'192.168.1.201'
p58
sg10
S'#1617e5'
p59
sg12
F1.0
sbsS'192.168.1.184-192.168.1.124'
p60
(iprimitives
Link
p61
(dp62
g4
Nsg5
Nsg6
S'192.168.1.124'
p63
sg8
S'192.168.1.184'
p64
sg10
S'#1617e5'
p65
sg12
F1.0
sbsS'192.168.1.52-192.168.1.46'
p66
(iprimitives
Link
p67
(dp68
g4
Nsg5
Nsg6
S'192.168.1.46'
p69
sg8
S'192.168.1.52'
p70
sg10
S'#1624e5'
p71
sg12
F0.98399999999999999
sbsS'192.168.1.185-192.168.2.42'
p72
(iprimitives
Link
p73
(dp74
g4
Nsg5
Nsg6
S'192.168.2.42'
p75
sg8
g46
sg10
S'#1617e5'
p76
sg12
F1.0
sbsS'192.168.1.126-192.168.2.31'
p77
(iprimitives
Link
p78
(dp79
g4
Nsg5
Nsg6
S'192.168.2.31'
p80
sg8
S'192.168.1.126'
p81
sg10
S'#1617e5'
p82
sg12
F1.0
sbsS'192.168.1.103-192.168.2.42'
p83
(iprimitives
Link
p84
(dp85
g4
Nsg5
Nsg6
g75
sg8
S'192.168.1.103'
p86
sg10
S'#1617e5'
p87
sg12
F1.0
sbsS'192.168.1.185-192.168.2.41'
p88
(iprimitives
Link
p89
(dp90
g4
Nsg5
Nsg6
S'192.168.2.41'
p91
sg8
g46
sg10
S'#1617e5'
p92
sg12
F1.0
sbsS'192.168.1.185-192.168.1.104'
p93
(iprimitives
Link
p94
(dp95
g4
Nsg5
Nsg6
S'192.168.1.104'
p96
sg8
g46
sg10
S'#1617e5'
p97
sg12
F1.0
sbsS'192.168.1.197-192.168.1.155'
p98
(iprimitives
Link
p99
(dp100
g4
I01
sg5
Nsg6
S'192.168.1.155'
p101
sg8
S'192.168.1.197'
p102
sg10
S'#1617e5'
p103
sg12
F1.0
sbsS'192.168.2.11-192.168.2.10'
p104
(iprimitives
Link
p105
(dp106
g4
Nsg5
Nsg6
S'192.168.2.10'
p107
sg8
g51
sg10
S'#1617e5'
p108
sg12
F1.0
sbsS'192.168.1.127-192.168.1.106'
p109
(iprimitives
Link
p110
(dp111
g4
Nsg5
Nsg6
S'192.168.1.106'
p112
sg8
S'192.168.1.127'
p113
sg10
S'#1617e5'
p114
sg12
F1.0
sbsS'192.168.1.184-192.168.1.162'
p115
(iprimitives
Link
p116
(dp117
g4
Nsg5
Nsg6
S'192.168.1.162'
p118
sg8
g64
sg10
S'#1617e5'
p119
sg12
F1.0
sbsS'192.168.1.235-192.168.1.167'
p120
(iprimitives
Link
p121
(dp122
g4
Nsg5
Nsg6
S'192.168.1.167'
p123
sg8
g29
sg10
S'#1617e5'
p124
sg12
F1.0
sbsS'192.168.1.135-192.168.1.90'
p125
(iprimitives
Link
p126
(dp127
g4
Nsg5
Nsg6
S'192.168.1.90'
p128
sg8
S'192.168.1.135'
p129
sg10
S'#165be5'
p130
sg12
F0.91800000000000004
sbsS'192.168.1.187-192.168.1.171'
p131
(iprimitives
Link
p132
(dp133
g4
Nsg5
Nsg6
S'192.168.1.171'
p134
sg8
S'192.168.1.187'
p135
sg10
S'#1617e5'
p136
sg12
F1.0
sbsS'192.168.1.126-192.168.2.4'
p137
(iprimitives
Link
p138
(dp139
g4
Nsg5
Nsg6
S'192.168.2.4'
p140
sg8
g81
sg10
S'#1617e5'
p141
sg12
F1.0
sbsS'192.168.1.138-192.168.1.104'
p142
(iprimitives
Link
p143
(dp144
g4
Nsg5
Nsg6
g96
sg8
g16
sg10
S'#1617e5'
p145
sg12
F1.0
sbsS'192.168.1.236-192.168.1.184'
p146
(iprimitives
Link
p147
(dp148
g4
Nsg5
Nsg6
g64
sg8
g40
sg10
S'#1617e5'
p149
sg12
F1.0
sbsS'192.168.1.157-192.168.2.8'
p150
(iprimitives
Link
p151
(dp152
g4
Nsg5
I01
sg6
S'192.168.2.8'
p153
sg8
S'192.168.1.157'
p154
sg10
S'#1617e5'
p155
sg12
F1.0
sbsS'192.168.1.201-192.168.1.183'
p156
(iprimitives
Link
p157
(dp158
g4
Nsg5
Nsg6
g45
sg8
g58
sg10
S'#1617e5'
p159
sg12
F1.0
sbsS'192.168.1.173-192.168.1.66'
p160
(iprimitives
Link
p161
(dp162
g4
Nsg5
Nsg6
S'192.168.1.66'
p163
sg8
S'192.168.1.173'
p164
sg10
S'#1617e5'
p165
sg12
F1.0
sbsS'192.168.1.126-192.168.2.3'
p166
(iprimitives
Link
p167
(dp168
g4
Nsg5
Nsg6
S'192.168.2.3'
p169
sg8
g81
sg10
S'#1617e5'
p170
sg12
F1.0
sbsS'192.168.1.157-192.168.1.66'
p171
(iprimitives
Link
p172
(dp173
g4
Nsg5
I01
sg6
g163
sg8
g154
sg10
S'#1617e5'
p174
sg12
F1.0
sbsS'192.168.1.174-192.168.2.10'
p175
(iprimitives
Link
p176
(dp177
g4
Nsg5
Nsg6
g107
sg8
S'192.168.1.174'
p178
sg10
S'#1617e5'
p179
sg12
F1.0
sbsS'192.168.1.233-192.168.1.104'
p180
(iprimitives
Link
p181
(dp182
g4
Nsg5
Nsg6
g96
sg8
g17
sg10
S'#1617e5'
p183
sg12
F1.0
sbsS'192.168.1.157-192.168.2.7'
p184
(iprimitives
Link
p185
(dp186
g4
Nsg5
I01
sg6
S'192.168.2.7'
p187
sg8
g154
sg10
S'#1617e5'
p188
sg12
F1.0
sbsS'192.168.1.230-192.168.1.225'
p189
(iprimitives
Link
p190
(dp191
g4
Nsg5
Nsg6
S'192.168.1.225'
p192
sg8
S'192.168.1.230'
p193
sg10
S'#1617e5'
p194
sg12
F1.0
sbsS'192.168.1.112-192.168.1.111'
p195
(iprimitives
Link
p196
(dp197
g4
I01
sg5
Nsg6
S'192.168.1.111'
p198
sg8
S'192.168.1.112'
p199
sg10
S'#1617e5'
p200
sg12
F1.0
sbsS'192.168.1.79-192.168.2.35'
p201
(iprimitives
Link
p202
(dp203
g4
Nsg5
Nsg6
S'192.168.2.35'
p204
sg8
S'192.168.1.79'
p205
sg10
S'#1617e5'
p206
sg12
F1.0
sbsS'192.168.1.79-192.168.2.36'
p207
(iprimitives
Link
p208
(dp209
g4
Nsg5
Nsg6
S'192.168.2.36'
p210
sg8
g205
sg10
S'#1617e5'
p211
sg12
F1.0
sbsS'192.168.1.201-192.168.1.23'
p212
(iprimitives
Link
p213
(dp214
g4
Nsg5
Nsg6
S'192.168.1.23'
p215
sg8
g58
sg10
S'#1617e5'
p216
sg12
F1.0
sbsS'192.168.1.171-192.168.1.126'
p217
(iprimitives
Link
p218
(dp219
g4
Nsg5
Nsg6
g81
sg8
g134
sg10
S'#1617e5'
p220
sg12
F1.0
sbsS'192.168.1.162-192.168.1.138'
p221
(iprimitives
Link
p222
(dp223
g4
Nsg5
Nsg6
g16
sg8
g118
sg10
S'#1617e5'
p224
sg12
F1.0
sbsS'192.168.1.79-192.168.2.33'
p225
(iprimitives
Link
p226
(dp227
g4
Nsg5
Nsg6
S'192.168.2.33'
p228
sg8
g205
sg10
S'#1617e5'
p229
sg12
F1.0
sbsS'192.168.1.162-192.168.2.41'
p230
(iprimitives
Link
p231
(dp232
g4
Nsg5
Nsg6
g91
sg8
g118
sg10
S'#1617e5'
p233
sg12
F1.0
sbsS'192.168.1.184-192.168.1.104'
p234
(iprimitives
Link
p235
(dp236
g4
Nsg5
Nsg6
g96
sg8
g64
sg10
S'#1617e5'
p237
sg12
F1.0
sbsS'192.168.1.208-192.168.1.134'
p238
(iprimitives
Link
p239
(dp240
g4
Nsg5
Nsg6
S'192.168.1.134'
p241
sg8
S'192.168.1.208'
p242
sg10
S'#162be5'
p243
sg12
F0.97599999999999998
sbsS'192.168.1.162-192.168.2.42'
p244
(iprimitives
Link
p245
(dp246
g4
Nsg5
Nsg6
g75
sg8
g118
sg10
S'#1617e5'
p247
sg12
F1.0
sbsS'192.168.1.184-192.168.1.103'
p248
(iprimitives
Link
p249
(dp250
g4
Nsg5
Nsg6
g86
sg8
g64
sg10
S'#1617e5'
p251
sg12
F1.0
sbsS'192.168.1.226-192.168.1.223'
p252
(iprimitives
Link
p253
(dp254
g4
Nsg5
Nsg6
S'192.168.1.223'
p255
sg8
S'192.168.1.226'
p256
sg10
S'#e59816'
p257
sg12
F0.157
sbsS'192.168.1.213-192.168.1.198'
p258
(iprimitives
Link
p259
(dp260
g4
Nsg5
Nsg6
g22
sg8
S'192.168.1.213'
p261
sg10
S'#e52716'
p262
sg12
F0.02
sbsS'192.168.1.52-192.168.2.4'
p263
(iprimitives
Link
p264
(dp265
g4
Nsg5
Nsg6
g140
sg8
g70
sg10
S'#1617e5'
p266
sg12
F1.0
sbsS'192.168.1.91-192.168.1.26'
p267
(iprimitives
Link
p268
(dp269
g4
Nsg5
Nsg6
S'192.168.1.26'
p270
sg8
S'192.168.1.91'
p271
sg10
S'#1662e5'
p272
sg12
F0.91000000000000003
sbsS'192.168.1.245-192.168.1.77'
p273
(iprimitives
Link
p274
(dp275
g4
Nsg5
Nsg6
S'192.168.1.77'
p276
sg8
S'192.168.1.245'
p277
sg10
S'#164be5'
p278
sg12
F0.93700000000000006
sbsS'192.168.1.152-192.168.1.15'
p279
(iprimitives
Link
p280
(dp281
g4
Nsg5
I01
sg6
S'192.168.1.15'
p282
sg8
g35
sg10
S'#1617e5'
p283
sg12
F1.0
sbsS'192.168.1.52-192.168.2.3'
p284
(iprimitives
Link
p285
(dp286
g4
Nsg5
Nsg6
g169
sg8
g70
sg10
S'#1617e5'
p287
sg12
F1.0
sbsS'192.168.1.104-192.168.2.41'
p288
(iprimitives
Link
p289
(dp290
g4
Nsg5
Nsg6
g91
sg8
g96
sg10
S'#1617e5'
p291
sg12
F1.0
sbsS'192.168.1.120-192.168.1.110'
p292
(iprimitives
Link
p293
(dp294
g4
Nsg5
Nsg6
S'192.168.1.110'
p295
sg8
S'192.168.1.120'
p296
sg10
S'#1617e5'
p297
sg12
F1.0
sbsS'192.168.1.128-192.168.1.41'
p298
(iprimitives
Link
p299
(dp300
g4
Nsg5
Nsg6
S'192.168.1.41'
p301
sg8
S'192.168.1.128'
p302
sg10
S'#1617e5'
p303
sg12
F1.0
sbsS'192.168.1.199-192.168.1.37'
p304
(iprimitives
Link
p305
(dp306
g4
Nsg5
Nsg6
S'192.168.1.37'
p307
sg8
g23
sg10
S'#1621e5'
p308
sg12
F0.98799999999999999
sbsS'192.168.1.86-192.168.1.57'
p309
(iprimitives
Link
p310
(dp311
g4
Nsg5
Nsg6
S'192.168.1.57'
p312
sg8
S'192.168.1.86'
p313
sg10
S'#16e599'
p314
sg12
F0.65900000000000003
sbsS'192.168.1.198-192.168.1.51'
p315
(iprimitives
Link
p316
(dp317
g4
Nsg5
Nsg6
S'192.168.1.51'
p318
sg8
g22
sg10
S'#1617e5'
p319
sg12
F1.0
sbsS'192.168.1.213-192.168.1.208'
p320
(iprimitives
Link
p321
(dp322
g4
Nsg5
Nsg6
g242
sg8
g261
sg10
S'#163be5'
p323
sg12
F0.95699999999999996
sbsS'192.168.1.145-192.168.1.130'
p324
(iprimitives
Link
p325
(dp326
g4
Nsg5
Nsg6
S'192.168.1.130'
p327
sg8
S'192.168.1.145'
p328
sg10
S'#1621e5'
p329
sg12
F0.98799999999999999
sbsS'192.168.1.236-192.168.1.124'
p330
(iprimitives
Link
p331
(dp332
g4
Nsg5
Nsg6
g63
sg8
g40
sg10
S'#1617e5'
p333
sg12
F1.0
sbsS'192.168.1.245-192.168.1.158'
p334
(iprimitives
Link
p335
(dp336
g4
Nsg5
Nsg6
S'192.168.1.158'
p337
sg8
g277
sg10
S'#1617e5'
p338
sg12
F1.0
sbsS'192.168.1.185-192.168.1.162'
p339
(iprimitives
Link
p340
(dp341
g4
Nsg5
Nsg6
g118
sg8
g46
sg10
S'#1617e5'
p342
sg12
F1.0
sbsS'192.168.1.215-192.168.1.214'
p343
(iprimitives
Link
p344
(dp345
g4
Nsg5
Nsg6
S'192.168.1.214'
p346
sg8
S'192.168.1.215'
p347
sg10
S'#16e5d3'
p348
sg12
F0.72899999999999998
sbsS'192.168.1.201-192.168.1.174'
p349
(iprimitives
Link
p350
(dp351
g4
Nsg5
Nsg6
g178
sg8
g58
sg10
S'#1617e5'
p352
sg12
F1.0
sbsS'192.168.1.218-192.168.1.26'
p353
(iprimitives
Link
p354
(dp355
g4
Nsg5
Nsg6
g270
sg8
S'192.168.1.218'
p356
sg10
S'#e59816'
p357
sg12
F0.157
sbsS'192.168.2.4-192.168.2.3'
p358
(iprimitives
Link
p359
(dp360
g4
Nsg5
Nsg6
g169
sg8
g140
sg10
S'#1617e5'
p361
sg12
F1.0
sbsS'192.168.1.79-192.168.1.54'
p362
(iprimitives
Link
p363
(dp364
g4
Nsg5
Nsg6
S'192.168.1.54'
p365
sg8
g205
sg10
S'#1617e5'
p366
sg12
F1.0
sbsS'192.168.2.33-192.168.2.11'
p367
(iprimitives
Link
p368
(dp369
g4
Nsg5
Nsg6
g51
sg8
g228
sg10
S'#1617e5'
p370
sg12
F1.0
sbsS'192.168.1.231-192.168.1.100'
p371
(iprimitives
Link
p372
(dp373
g4
Nsg5
Nsg6
S'192.168.1.100'
p374
sg8
S'192.168.1.231'
p375
sg10
S'#39e516'
p376
sg12
F0.45900000000000002
sbsS'192.168.2.33-192.168.2.17'
p377
(iprimitives
Link
p378
(dp379
g4
Nsg5
Nsg6
g52
sg8
g228
sg10
S'#1617e5'
p380
sg12
F1.0
sbsS'192.168.1.231-192.168.1.40'
p381
(iprimitives
Link
p382
(dp383
g4
Nsg5
Nsg6
S'192.168.1.40'
p384
sg8
g375
sg10
S'#1617e5'
p385
sg12
F1.0
sbsS'192.168.1.66-192.168.1.25'
p386
(iprimitives
Link
p387
(dp388
g4
Nsg5
I01
sg6
g34
sg8
g163
sg10
S'#1617e5'
p389
sg12
F1.0
sbsS'192.168.2.6-192.168.2.4'
p390
(iprimitives
Link
p391
(dp392
g4
Nsg5
Nsg6
g140
sg8
S'192.168.2.6'
p393
sg10
S'#1617e5'
p394
sg12
F1.0
sbsS'192.168.2.33-192.168.2.18'
p395
(iprimitives
Link
p396
(dp397
g4
Nsg5
Nsg6
S'192.168.2.18'
p398
sg8
g228
sg10
S'#1617e5'
p399
sg12
F1.0
sbsS'192.168.1.179-192.168.1.127'
p400
(iprimitives
Link
p401
(dp402
g4
Nsg5
Nsg6
g113
sg8
g57
sg10
S'#1631e5'
p403
sg12
F0.96899999999999997
sbsS'192.168.2.41-192.168.2.40'
p404
(iprimitives
Link
p405
(dp406
g4
Nsg5
Nsg6
S'192.168.2.40'
p407
sg8
g91
sg10
S'#1617e5'
p408
sg12
F1.0
sbsS'192.168.1.192-192.168.1.126'
p409
(iprimitives
Link
p410
(dp411
g4
Nsg5
Nsg6
g81
sg8
S'192.168.1.192'
p412
sg10
S'#1617e5'
p413
sg12
F1.0
sbsS'192.168.1.192-192.168.1.52'
p414
(iprimitives
Link
p415
(dp416
g4
Nsg5
Nsg6
g70
sg8
g412
sg10
S'#1617e5'
p417
sg12
F1.0
sbsS'192.168.1.162-192.168.1.124'
p418
(iprimitives
Link
p419
(dp420
g4
Nsg5
Nsg6
g63
sg8
g118
sg10
S'#1617e5'
p421
sg12
F1.0
sbsS'192.168.1.51-192.168.1.37'
p422
(iprimitives
Link
p423
(dp424
g4
Nsg5
Nsg6
g307
sg8
g318
sg10
S'#16e56f'
p425
sg12
F0.60799999999999998
sbsS'192.168.1.179-192.168.1.23'
p426
(iprimitives
Link
p427
(dp428
g4
Nsg5
Nsg6
g215
sg8
g57
sg10
S'#1617e5'
p429
sg12
F1.0
sbsS'192.168.1.236-192.168.2.42'
p430
(iprimitives
Link
p431
(dp432
g4
Nsg5
Nsg6
g75
sg8
g40
sg10
S'#1617e5'
p433
sg12
F1.0
sbsS'192.168.1.236-192.168.1.138'
p434
(iprimitives
Link
p435
(dp436
g4
Nsg5
Nsg6
g16
sg8
g40
sg10
S'#1617e5'
p437
sg12
F1.0
sbsS'192.168.1.233-192.168.1.185'
p438
(iprimitives
Link
p439
(dp440
g4
Nsg5
Nsg6
g46
sg8
g17
sg10
S'#1617e5'
p441
sg12
F1.0
sbsS'192.168.1.223-192.168.1.26'
p442
(iprimitives
Link
p443
(dp444
g4
Nsg5
Nsg6
g270
sg8
g255
sg10
S'#e56716'
p445
sg12
F0.098000000000000004
sbsS'192.168.1.233-192.168.2.42'
p446
(iprimitives
Link
p447
(dp448
g4
Nsg5
Nsg6
g75
sg8
g17
sg10
S'#1617e5'
p449
sg12
F1.0
sbsS'192.168.1.226-192.168.1.26'
p450
(iprimitives
Link
p451
(dp452
g4
Nsg5
Nsg6
g270
sg8
g256
sg10
S'#8de516'
p453
sg12
F0.35699999999999998
sbsS'192.168.1.202-192.168.1.174'
p454
(iprimitives
Link
p455
(dp456
g4
Nsg5
Nsg6
g178
sg8
S'192.168.1.202'
p457
sg10
S'#1617e5'
p458
sg12
F1.0
sbsS'192.168.2.6-192.168.2.5'
p459
(iprimitives
Link
p460
(dp461
g4
Nsg5
Nsg6
S'192.168.2.5'
p462
sg8
g393
sg10
S'#1617e5'
p463
sg12
F1.0
sbsS'192.168.1.85-192.168.1.73'
p464
(iprimitives
Link
p465
(dp466
g4
Nsg5
Nsg6
S'192.168.1.73'
p467
sg8
g9
sg10
S'#16e5da'
p468
sg12
F0.73699999999999999
sbsS'192.168.1.171-192.168.2.31'
p469
(iprimitives
Link
p470
(dp471
g4
Nsg5
Nsg6
g80
sg8
g134
sg10
S'#1617e5'
p472
sg12
F1.0
sbsS'192.168.2.37-192.168.2.36'
p473
(iprimitives
Link
p474
(dp475
g4
Nsg5
Nsg6
g210
sg8
S'192.168.2.37'
p476
sg10
S'#1617e5'
p477
sg12
F1.0
sbsS'192.168.1.208-192.168.1.80'
p478
(iprimitives
Link
p479
(dp480
g4
Nsg5
Nsg6
S'192.168.1.80'
p481
sg8
g242
sg10
S'#1617e5'
p482
sg12
F1.0
sbsS'192.168.1.174-192.168.1.23'
p483
(iprimitives
Link
p484
(dp485
g4
Nsg5
Nsg6
g215
sg8
g178
sg10
S'#1617e5'
p486
sg12
F1.0
sbsS'192.168.2.36-192.168.2.35'
p487
(iprimitives
Link
p488
(dp489
g4
Nsg5
Nsg6
g204
sg8
g210
sg10
S'#1617e5'
p490
sg12
F1.0
sbsS'192.168.1.227-192.168.1.230'
p491
(iprimitives
Link
p492
(dp493
g4
I01
sg5
Nsg6
S'192.168.1.227'
p494
sg8
g193
sg10
S'#166be5'
p495
sg12
F0.89800000000000002
sbsS'192.168.2.31-192.168.2.4'
p496
(iprimitives
Link
p497
(dp498
g4
Nsg5
Nsg6
g140
sg8
g80
sg10
S'#1617e5'
p499
sg12
F1.0
sbsS'192.168.1.184-192.168.1.172'
p500
(iprimitives
Link
p501
(dp502
g4
Nsg5
Nsg6
S'192.168.1.172'
p503
sg8
g64
sg10
S'#1617e5'
p504
sg12
F1.0
sbsS'192.168.1.170-192.168.1.165'
p505
(iprimitives
Link
p506
(dp507
g4
Nsg5
Nsg6
g28
sg8
S'192.168.1.170'
p508
sg10
S'#1617e5'
p509
sg12
F1.0
sbsS'192.168.2.31-192.168.2.3'
p510
(iprimitives
Link
p511
(dp512
g4
Nsg5
Nsg6
g169
sg8
g80
sg10
S'#1617e5'
p513
sg12
F1.0
sbsS'192.168.1.185-192.168.1.184'
p514
(iprimitives
Link
p515
(dp516
g4
Nsg5
Nsg6
g64
sg8
g46
sg10
S'#1617e5'
p517
sg12
F1.0
sbsS'192.168.1.166-192.168.1.155'
p518
(iprimitives
Link
p519
(dp520
g4
I01
sg5
Nsg6
g101
sg8
S'192.168.1.166'
p521
sg10
S'#1617e5'
p522
sg12
F1.0
sbsS'192.168.1.231-192.168.1.225'
p523
(iprimitives
Link
p524
(dp525
g4
Nsg5
Nsg6
g192
sg8
g375
sg10
S'#1617e5'
p526
sg12
F1.0
sbsS'192.168.1.66-192.168.1.15'
p527
(iprimitives
Link
p528
(dp529
g4
Nsg5
I01
sg6
g282
sg8
g163
sg10
S'#1617e5'
p530
sg12
F1.0
sbsS'192.168.1.158-192.168.1.77'
p531
(iprimitives
Link
p532
(dp533
g4
Nsg5
Nsg6
g276
sg8
g337
sg10
S'#166be5'
p534
sg12
F0.89800000000000002
sbsS'192.168.1.243-192.168.1.238'
p535
(iprimitives
Link
p536
(dp537
g4
Nsg5
Nsg6
S'192.168.1.238'
p538
sg8
S'192.168.1.243'
p539
sg10
S'#e51616'
p540
sg12
F0.0
sbsS'192.168.1.243-192.168.1.241'
p541
(iprimitives
Link
p542
(dp543
g4
Nsg5
Nsg6
S'192.168.1.241'
p544
sg8
g539
sg10
S'#168ce5'
p545
sg12
F0.85899999999999999
sbsS'192.168.2.19-192.168.2.18'
p546
(iprimitives
Link
p547
(dp548
g4
Nsg5
Nsg6
g398
sg8
S'192.168.2.19'
p549
sg10
S'#1617e5'
p550
sg12
F1.0
sbsS'192.168.1.97-192.168.1.59'
p551
(iprimitives
Link
p552
(dp553
g4
Nsg5
Nsg6
S'192.168.1.59'
p554
sg8
S'192.168.1.97'
p555
sg10
S'#e5cc16'
p556
sg12
F0.22
sbsS'192.168.1.208-192.168.1.51'
p557
(iprimitives
Link
p558
(dp559
g4
Nsg5
Nsg6
g318
sg8
g242
sg10
S'#1617e5'
p560
sg12
F1.0
sbsS'192.168.1.159-192.168.1.10'
p561
(iprimitives
Link
p562
(dp563
g4
I01
sg5
Nsg6
S'192.168.1.10'
p564
sg8
S'192.168.1.159'
p565
sg10
S'#1617e5'
p566
sg12
F1.0
sbsS'192.168.1.230-192.168.1.227'
p567
g492
sS'192.168.1.52-192.168.2.31'
p568
(iprimitives
Link
p569
(dp570
g4
Nsg5
Nsg6
g80
sg8
g70
sg10
S'#1617e5'
p571
sg12
F1.0
sbsS'192.168.1.236-192.168.1.103'
p572
(iprimitives
Link
p573
(dp574
g4
Nsg5
Nsg6
g86
sg8
g40
sg10
S'#1617e5'
p575
sg12
F1.0
sbsS'192.168.1.162-192.168.1.152'
p576
(iprimitives
Link
p577
(dp578
g4
Nsg5
Nsg6
g35
sg8
g118
sg10
S'#1645e5'
p579
sg12
F0.94499999999999995
sbsS'192.168.1.128-192.168.1.118'
p580
(iprimitives
Link
p581
(dp582
g4
Nsg5
Nsg6
S'192.168.1.118'
p583
sg8
g302
sg10
S'#1617e5'
p584
sg12
F1.0
sbsS'192.168.1.46-192.168.2.18'
p585
(iprimitives
Link
p586
(dp587
g4
Nsg5
Nsg6
g398
sg8
g69
sg10
S'#1617e5'
p588
sg12
F1.0
sbsS'192.168.1.46-192.168.2.19'
p589
(iprimitives
Link
p590
(dp591
g4
Nsg5
Nsg6
g549
sg8
g69
sg10
S'#1617e5'
p592
sg12
F1.0
sbsS'192.168.1.236-192.168.2.41'
p593
(iprimitives
Link
p594
(dp595
g4
Nsg5
Nsg6
g91
sg8
g40
sg10
S'#1617e5'
p596
sg12
F1.0
sbsS'192.168.1.208-192.168.1.198'
p597
(iprimitives
Link
p598
(dp599
g4
Nsg5
Nsg6
g22
sg8
g242
sg10
S'#1617e5'
p600
sg12
F1.0
sbsS'192.168.1.208-192.168.1.199'
p601
(iprimitives
Link
p602
(dp603
g4
Nsg5
Nsg6
g23
sg8
g242
sg10
S'#1617e5'
p604
sg12
F1.0
sbsS'192.168.1.236-192.168.1.162'
p605
(iprimitives
Link
p606
(dp607
g4
Nsg5
Nsg6
g118
sg8
g40
sg10
S'#1617e5'
p608
sg12
F1.0
sbsS'192.168.1.223-192.168.1.208'
p609
(iprimitives
Link
p610
(dp611
g4
Nsg5
Nsg6
g242
sg8
g255
sg10
S'#16e0e5'
p612
sg12
F0.75700000000000001
sbsS'192.168.1.185-192.168.1.172'
p613
(iprimitives
Link
p614
(dp615
g4
Nsg5
Nsg6
g503
sg8
g46
sg10
S'#1617e5'
p616
sg12
F1.0
sbsS'192.168.1.233-192.168.1.124'
p617
(iprimitives
Link
p618
(dp619
g4
Nsg5
Nsg6
g63
sg8
g17
sg10
S'#1617e5'
p620
sg12
F1.0
sbsS'192.168.1.113-192.168.1.116'
p621
(iprimitives
Link
p622
(dp623
g4
I01
sg5
Nsg6
S'192.168.1.113'
p624
sg8
S'192.168.1.116'
p625
sg10
S'#1617e5'
p626
sg12
F1.0
sbsS'192.168.1.167-192.168.1.147'
p627
(iprimitives
Link
p628
(dp629
g4
Nsg5
Nsg6
S'192.168.1.147'
p630
sg8
g123
sg10
S'#1617e5'
p631
sg12
F1.0
sbsS'192.168.1.236-192.168.1.172'
p632
(iprimitives
Link
p633
(dp634
g4
Nsg5
Nsg6
g503
sg8
g40
sg10
S'#1617e5'
p635
sg12
F1.0
sbsS'192.168.1.248-192.168.1.234'
p636
(iprimitives
Link
p637
(dp638
g4
Nsg5
Nsg6
S'192.168.1.234'
p639
sg8
S'192.168.1.248'
p640
sg10
S'#1617e5'
p641
sg12
F1.0
sbsS'192.168.1.249-192.168.1.47'
p642
(iprimitives
Link
p643
(dp644
g4
Nsg5
Nsg6
S'192.168.1.47'
p645
sg8
S'192.168.1.249'
p646
sg10
S'#1617e5'
p647
sg12
F1.0
sbsS'192.168.1.187-192.168.1.126'
p648
(iprimitives
Link
p649
(dp650
g4
Nsg5
Nsg6
g81
sg8
g135
sg10
S'#1617e5'
p651
sg12
F1.0
sbsS'192.168.1.199-192.168.1.51'
p652
(iprimitives
Link
p653
(dp654
g4
Nsg5
Nsg6
g318
sg8
g23
sg10
S'#1621e5'
p655
sg12
F0.98799999999999999
sbsS'192.168.1.227-192.168.1.197'
p656
(iprimitives
Link
p657
(dp658
g4
Nsg5
Nsg6
g102
sg8
g494
sg10
S'#1617e5'
p659
sg12
F1.0
sbsS'192.168.1.172-192.168.1.122'
p660
(iprimitives
Link
p661
(dp662
g4
Nsg5
Nsg6
S'192.168.1.122'
p663
sg8
g503
sg10
S'#1662e5'
p664
sg12
F0.91000000000000003
sbsS'192.168.1.126-192.168.1.52'
p665
(iprimitives
Link
p666
(dp667
g4
Nsg5
Nsg6
g70
sg8
g81
sg10
S'#1617e5'
p668
sg12
F1.0
sbsS'192.168.1.234-192.168.1.233'
p669
(iprimitives
Link
p670
(dp671
g4
Nsg5
Nsg6
g17
sg8
g639
sg10
S'#1617e5'
p672
sg12
F1.0
sbsS'192.168.1.202-192.168.1.183'
p673
(iprimitives
Link
p674
(dp675
g4
Nsg5
Nsg6
g45
sg8
g457
sg10
S'#1617e5'
p676
sg12
F1.0
sbsS'192.168.1.157-192.168.1.25'
p677
(iprimitives
Link
p678
(dp679
g4
Nsg5
I01
sg6
g34
sg8
g154
sg10
S'#1617e5'
p680
sg12
F1.0
sbsS'192.168.2.42-192.168.2.35'
p681
(iprimitives
Link
p682
(dp683
g4
Nsg5
Nsg6
g204
sg8
g75
sg10
S'#1617e5'
p684
sg12
F1.0
sbsS'192.168.1.25-192.168.1.15'
p685
(iprimitives
Link
p686
(dp687
g4
Nsg5
I01
sg6
g282
sg8
g34
sg10
S'#1617e5'
p688
sg12
F1.0
sbsS'192.168.1.187-192.168.2.3'
p689
(iprimitives
Link
p690
(dp691
g4
Nsg5
Nsg6
g169
sg8
g135
sg10
S'#1617e5'
p692
sg12
F1.0
sbsS'192.168.1.213-192.168.1.98'
p693
(iprimitives
Link
p694
(dp695
g4
Nsg5
Nsg6
S'192.168.1.98'
p696
sg8
g261
sg10
S'#1631e5'
p697
sg12
F0.96899999999999997
sbsS'192.168.2.35-192.168.2.11'
p698
(iprimitives
Link
p699
(dp700
g4
Nsg5
Nsg6
g51
sg8
g204
sg10
S'#1617e5'
p701
sg12
F1.0
sbsS'192.168.1.218-192.168.1.208'
p702
(iprimitives
Link
p703
(dp704
g4
Nsg5
Nsg6
g242
sg8
g356
sg10
S'#8de516'
p705
sg12
F0.35699999999999998
sbsS'192.168.1.233-192.168.1.184'
p706
(iprimitives
Link
p707
(dp708
g4
Nsg5
Nsg6
g64
sg8
g17
sg10
S'#1617e5'
p709
sg12
F1.0
sbsS'192.168.1.138-192.168.1.103'
p710
(iprimitives
Link
p711
(dp712
g4
Nsg5
Nsg6
g86
sg8
g16
sg10
S'#1617e5'
p713
sg12
F1.0
sbsS'192.168.2.35-192.168.2.17'
p714
(iprimitives
Link
p715
(dp716
g4
Nsg5
Nsg6
g52
sg8
g204
sg10
S'#1617e5'
p717
sg12
F1.0
sbsS'192.168.1.192-192.168.1.171'
p718
(iprimitives
Link
p719
(dp720
g4
Nsg5
Nsg6
g134
sg8
g412
sg10
S'#1617e5'
p721
sg12
F1.0
sbsS'192.168.1.187-192.168.2.45'
p722
(iprimitives
Link
p723
(dp724
g4
Nsg5
Nsg6
S'192.168.2.45'
p725
sg8
g135
sg10
S'#1617e5'
p726
sg12
F1.0
sbsS'192.168.1.120-192.168.2.39'
p727
(iprimitives
Link
p728
(dp729
g4
Nsg5
Nsg6
S'192.168.2.39'
p730
sg8
g296
sg10
S'#1617e5'
p731
sg12
F1.0
sbsS'192.168.1.208-192.168.1.67'
p732
(iprimitives
Link
p733
(dp734
g4
Nsg5
Nsg6
S'192.168.1.67'
p735
sg8
g242
sg10
S'#1617e5'
p736
sg12
F1.0
sbsS'192.168.1.177-192.168.1.147'
p737
(iprimitives
Link
p738
(dp739
g4
Nsg5
Nsg6
g630
sg8
S'192.168.1.177'
p740
sg10
S'#1617e5'
p741
sg12
F1.0
sbsS'192.168.1.233-192.168.1.162'
p742
(iprimitives
Link
p743
(dp744
g4
Nsg5
Nsg6
g118
sg8
g17
sg10
S'#1617e5'
p745
sg12
F1.0
sbsS'192.168.1.66-192.168.2.7'
p746
(iprimitives
Link
p747
(dp748
g4
Nsg5
I01
sg6
g187
sg8
g163
sg10
S'#1617e5'
p749
sg12
F1.0
sbsS'192.168.1.166-192.168.1.22'
p750
(iprimitives
Link
p751
(dp752
g4
Nsg5
Nsg6
S'192.168.1.22'
p753
sg8
g521
sg10
S'#1617e5'
p754
sg12
F1.0
sbsS'192.168.2.42-192.168.2.41'
p755
(iprimitives
Link
p756
(dp757
g4
Nsg5
Nsg6
g91
sg8
g75
sg10
S'#1617e5'
p758
sg12
F1.0
sbsS'192.168.1.157-192.168.1.151'
p759
(iprimitives
Link
p760
(dp761
g4
Nsg5
Nsg6
S'192.168.1.151'
p762
sg8
g154
sg10
S'#1645e5'
p763
sg12
F0.94499999999999995
sbsS'192.168.1.226-192.168.1.218'
p764
(iprimitives
Link
p765
(dp766
g4
Nsg5
Nsg6
g356
sg8
g256
sg10
S'#1641e5'
p767
sg12
F0.94899999999999995
sbsS'192.168.1.185-192.168.1.138'
p768
(iprimitives
Link
p769
(dp770
g4
Nsg5
Nsg6
g16
sg8
g46
sg10
S'#1617e5'
p771
sg12
F1.0
sbsS'192.168.1.66-192.168.2.8'
p772
(iprimitives
Link
p773
(dp774
g4
Nsg5
I01
sg6
g153
sg8
g163
sg10
S'#1617e5'
p775
sg12
F1.0
sbsS'192.168.1.174-192.168.1.95'
p776
(iprimitives
Link
p777
(dp778
g4
Nsg5
Nsg6
S'192.168.1.95'
p779
sg8
g178
sg10
S'#16e599'
p780
sg12
F0.65900000000000003
sbsS'192.168.1.208-192.168.1.37'
p781
(iprimitives
Link
p782
(dp783
g4
Nsg5
Nsg6
g307
sg8
g242
sg10
S'#1617e5'
p784
sg12
F1.0
sbsS'192.168.1.213-192.168.1.67'
p785
(iprimitives
Link
p786
(dp787
g4
Nsg5
Nsg6
g735
sg8
g261
sg10
S'#16e525'
p788
sg12
F0.51800000000000002
sbsS'192.168.2.36-192.168.2.11'
p789
(iprimitives
Link
p790
(dp791
g4
Nsg5
Nsg6
g51
sg8
g210
sg10
S'#1617e5'
p792
sg12
F1.0
sbsS'192.168.1.172-192.168.1.162'
p793
(iprimitives
Link
p794
(dp795
g4
Nsg5
Nsg6
g118
sg8
g503
sg10
S'#1617e5'
p796
sg12
F1.0
sbsS'192.168.1.47-192.168.2.45'
p797
(iprimitives
Link
p798
(dp799
g4
Nsg5
Nsg6
g725
sg8
g645
sg10
S'#1617e5'
p800
sg12
F1.0
sbsS'192.168.1.239-192.168.1.116'
p801
(iprimitives
Link
p802
(dp803
g4
Nsg5
Nsg6
g625
sg8
S'192.168.1.239'
p804
sg10
S'#1617e5'
p805
sg12
F1.0
sbsS'192.168.2.36-192.168.2.17'
p806
(iprimitives
Link
p807
(dp808
g4
Nsg5
Nsg6
g52
sg8
g210
sg10
S'#1617e5'
p809
sg12
F1.0
sbsS'192.168.1.226-192.168.1.208'
p810
(iprimitives
Link
p811
(dp812
g4
Nsg5
Nsg6
g242
sg8
g256
sg10
S'#16a6e5'
p813
sg12
F0.82699999999999996
sbsS'192.168.1.58-192.168.1.47'
p814
(iprimitives
Link
p815
(dp816
g4
Nsg5
Nsg6
g645
sg8
S'192.168.1.58'
p817
sg10
S'#1617e5'
p818
sg12
F1.0
sbsS'192.168.1.223-192.168.1.213'
p819
(iprimitives
Link
p820
(dp821
g4
Nsg5
Nsg6
g261
sg8
g255
sg10
S'#16e5da'
p822
sg12
F0.73699999999999999
sbsS'192.168.1.128-192.168.2.40'
p823
(iprimitives
Link
p824
(dp825
g4
Nsg5
Nsg6
g407
sg8
g302
sg10
S'#1617e5'
p826
sg12
F1.0
sbsS'192.168.1.214-192.168.1.26'
p827
(iprimitives
Link
p828
(dp829
g4
Nsg5
Nsg6
g270
sg8
g346
sg10
S'#169ce5'
p830
sg12
F0.83899999999999997
sbsS'192.168.1.165-192.168.1.89'
p831
(iprimitives
Link
p832
(dp833
g4
Nsg5
Nsg6
S'192.168.1.89'
p834
sg8
g28
sg10
S'#e5df16'
p835
sg12
F0.24299999999999999
sbsS'192.168.1.233-192.168.2.41'
p836
(iprimitives
Link
p837
(dp838
g4
Nsg5
Nsg6
g91
sg8
g17
sg10
S'#1617e5'
p839
sg12
F1.0
sbsS'192.168.1.183-192.168.1.23'
p840
(iprimitives
Link
p841
(dp842
g4
Nsg5
Nsg6
g215
sg8
g45
sg10
S'#1617e5'
p843
sg12
F1.0
sbsS'192.168.2.8-192.168.2.5'
p844
(iprimitives
Link
p845
(dp846
g4
Nsg5
Nsg6
g462
sg8
g153
sg10
S'#1617e5'
p847
sg12
F1.0
sbsS'192.168.1.225-192.168.1.40'
p848
(iprimitives
Link
p849
(dp850
g4
Nsg5
Nsg6
g384
sg8
g192
sg10
S'#1617e5'
p851
sg12
F1.0
sbsS'192.168.2.8-192.168.2.7'
p852
(iprimitives
Link
p853
(dp854
g4
Nsg5
I01
sg6
g187
sg8
g153
sg10
S'#1617e5'
p855
sg12
F1.0
sbsS'192.168.1.227-192.168.1.111'
p856
(iprimitives
Link
p857
(dp858
g4
Nsg5
Nsg6
g198
sg8
g494
sg10
S'#1617e5'
p859
sg12
F1.0
sbsS'192.168.1.195-192.168.1.171'
p860
(iprimitives
Link
p861
(dp862
g4
Nsg5
Nsg6
g134
sg8
S'192.168.1.195'
p863
sg10
S'#16e0e5'
p864
sg12
F0.75700000000000001
sbsS'192.168.1.124-192.168.1.103'
p865
(iprimitives
Link
p866
(dp867
g4
Nsg5
Nsg6
g86
sg8
g63
sg10
S'#1617e5'
p868
sg12
F1.0
sbsS'192.168.1.47-192.168.2.46'
p869
(iprimitives
Link
p870
(dp871
g4
Nsg5
Nsg6
S'192.168.2.46'
p872
sg8
g645
sg10
S'#1617e5'
p873
sg12
F1.0
sbsS'192.168.1.187-192.168.2.4'
p874
(iprimitives
Link
p875
(dp876
g4
Nsg5
Nsg6
g140
sg8
g135
sg10
S'#1617e5'
p877
sg12
F1.0
sbsS'192.168.2.20-192.168.2.17'
p878
(iprimitives
Link
p879
(dp880
g4
Nsg5
Nsg6
g52
sg8
S'192.168.2.20'
p881
sg10
S'#1617e5'
p882
sg12
F1.0
sbsS'192.168.1.179-192.168.1.174'
p883
(iprimitives
Link
p884
(dp885
g4
Nsg5
Nsg6
g178
sg8
g57
sg10
S'#1617e5'
p886
sg12
F1.0
sbsS'192.168.1.124-192.168.1.104'
p887
(iprimitives
Link
p888
(dp889
g4
Nsg5
Nsg6
g96
sg8
g63
sg10
S'#1617e5'
p890
sg12
F1.0
sbsS'192.168.1.172-192.168.1.124'
p891
(iprimitives
Link
p892
(dp893
g4
Nsg5
Nsg6
g63
sg8
g503
sg10
S'#1617e5'
p894
sg12
F1.0
sbsS'192.168.1.195-192.168.1.192'
p895
(iprimitives
Link
p896
(dp897
g4
Nsg5
Nsg6
g412
sg8
g863
sg10
S'#1617e5'
p898
sg12
F1.0
sbsS'192.168.1.118-192.168.2.40'
p899
(iprimitives
Link
p900
(dp901
g4
Nsg5
Nsg6
g407
sg8
g583
sg10
S'#1617e5'
p902
sg12
F1.0
sbsS'192.168.1.208-192.168.1.98'
p903
(iprimitives
Link
p904
(dp905
g4
Nsg5
Nsg6
g696
sg8
g242
sg10
S'#1617e5'
p906
sg12
F1.0
sbsS'192.168.1.218-192.168.1.215'
p907
(iprimitives
Link
p908
(dp909
g4
Nsg5
Nsg6
g347
sg8
g356
sg10
S'#163be5'
p910
sg12
F0.95699999999999996
sbsS'192.168.1.192-192.168.2.4'
p911
(iprimitives
Link
p912
(dp913
g4
Nsg5
Nsg6
g140
sg8
g412
sg10
S'#1617e5'
p914
sg12
F1.0
sbsS'192.168.1.233-192.168.1.172'
p915
(iprimitives
Link
p916
(dp917
g4
Nsg5
Nsg6
g503
sg8
g17
sg10
S'#1617e5'
p918
sg12
F1.0
sbsS'192.168.2.39-192.168.2.38'
p919
(iprimitives
Link
p920
(dp921
g4
Nsg5
Nsg6
S'192.168.2.38'
p922
sg8
g730
sg10
S'#1617e5'
p923
sg12
F1.0
sbsS'192.168.1.187-192.168.1.52'
p924
(iprimitives
Link
p925
(dp926
g4
Nsg5
Nsg6
g70
sg8
g135
sg10
S'#1617e5'
p927
sg12
F1.0
sbsS'192.168.1.152-192.168.2.7'
p928
(iprimitives
Link
p929
(dp930
g4
Nsg5
I01
sg6
g187
sg8
g35
sg10
S'#1617e5'
p931
sg12
F1.0
sbsS'192.168.1.192-192.168.2.3'
p932
(iprimitives
Link
p933
(dp934
g4
Nsg5
Nsg6
g169
sg8
g412
sg10
S'#1617e5'
p935
sg12
F1.0
sbsS'192.168.2.36-192.168.2.33'
p936
(iprimitives
Link
p937
(dp938
g4
Nsg5
Nsg6
g228
sg8
g210
sg10
S'#1617e5'
p939
sg12
F1.0
sbsS'192.168.1.238-192.168.1.232'
p940
(iprimitives
Link
p941
(dp942
g4
Nsg5
Nsg6
S'192.168.1.232'
p943
sg8
g538
sg10
S'#1617e5'
p944
sg12
F1.0
sbsS'192.168.1.208-192.168.1.26'
p945
(iprimitives
Link
p946
(dp947
g4
Nsg5
Nsg6
g270
sg8
g242
sg10
S'#16e53e'
p948
sg12
F0.54900000000000004
sbsS'192.168.1.124-192.168.2.41'
p949
(iprimitives
Link
p950
(dp951
g4
Nsg5
Nsg6
g91
sg8
g63
sg10
S'#1617e5'
p952
sg12
F1.0
sbsS'192.168.1.208-192.168.1.20'
p953
(iprimitives
Link
p954
(dp955
g4
Nsg5
Nsg6
S'192.168.1.20'
p956
sg8
g242
sg10
S'#1617e5'
p957
sg12
F1.0
sbsS'192.168.1.157-192.168.1.152'
p958
(iprimitives
Link
p959
(dp960
g4
Nsg5
I01
sg6
g35
sg8
g154
sg10
S'#1617e5'
p961
sg12
F1.0
sbsS'192.168.1.110-192.168.1.101'
p962
(iprimitives
Link
p963
(dp964
g4
Nsg5
Nsg6
S'192.168.1.101'
p965
sg8
g295
sg10
S'#1617e5'
p966
sg12
F1.0
sbsS'192.168.1.241-192.168.1.232'
p967
(iprimitives
Link
p968
(dp969
g4
Nsg5
Nsg6
g943
sg8
g544
sg10
S'#1617e5'
p970
sg12
F1.0
sbsS'192.168.1.226-192.168.1.67'
p971
(iprimitives
Link
p972
(dp973
g4
Nsg5
Nsg6
g735
sg8
g256
sg10
S'#162be5'
p974
sg12
F0.97599999999999998
sbsS'192.168.1.155-192.168.1.166'
p975
g519
sS'192.168.1.152-192.168.1.66'
p976
(iprimitives
Link
p977
(dp978
g4
Nsg5
I01
sg6
g163
sg8
g35
sg10
S'#1617e5'
p979
sg12
F1.0
sbsS'192.168.1.241-192.168.1.238'
p980
(iprimitives
Link
p981
(dp982
g4
Nsg5
Nsg6
g538
sg8
g544
sg10
S'#1617e5'
p983
sg12
F1.0
sbsS'192.168.1.23-192.168.2.10'
p984
(iprimitives
Link
p985
(dp986
g4
Nsg5
Nsg6
g107
sg8
g215
sg10
S'#1617e5'
p987
sg12
F1.0
sbsS'192.168.1.183-192.168.1.174'
p988
(iprimitives
Link
p989
(dp990
g4
Nsg5
Nsg6
g178
sg8
g45
sg10
S'#1617e5'
p991
sg12
F1.0
sbsS'192.168.1.202-192.168.1.179'
p992
(iprimitives
Link
p993
(dp994
g4
Nsg5
Nsg6
g57
sg8
g457
sg10
S'#1617e5'
p995
sg12
F1.0
sbsS'192.168.1.101-192.168.1.10'
p996
(iprimitives
Link
p997
(dp998
g4
Nsg5
Nsg6
g564
sg8
g965
sg10
S'#1617e5'
p999
sg12
F1.0
sbsS'192.168.1.218-192.168.1.67'
p1000
(iprimitives
Link
p1001
(dp1002
g4
Nsg5
Nsg6
g735
sg8
g356
sg10
S'#1641e5'
p1003
sg12
F0.94899999999999995
sbsS'192.168.1.116-192.168.1.113'
p1004
g622
sS'192.168.1.124-192.168.2.42'
p1005
(iprimitives
Link
p1006
(dp1007
g4
Nsg5
Nsg6
g75
sg8
g63
sg10
S'#1617e5'
p1008
sg12
F1.0
sbsS'192.168.1.138-192.168.2.42'
p1009
(iprimitives
Link
p1010
(dp1011
g4
Nsg5
Nsg6
g75
sg8
g16
sg10
S'#1617e5'
p1012
sg12
F1.0
sbsS'192.168.1.225-192.168.1.100'
p1013
(iprimitives
Link
p1014
(dp1015
g4
Nsg5
Nsg6
g374
sg8
g192
sg10
S'#1617e5'
p1016
sg12
F1.0
sbsS'192.168.1.173-192.168.1.39'
p1017
(iprimitives
Link
p1018
(dp1019
g4
Nsg5
Nsg6
S'192.168.1.39'
p1020
sg8
g164
sg10
S'#1617e5'
p1021
sg12
F1.0
sbsS'192.168.2.35-192.168.2.33'
p1022
(iprimitives
Link
p1023
(dp1024
g4
Nsg5
Nsg6
g228
sg8
g204
sg10
S'#1617e5'
p1025
sg12
F1.0
sbsS'192.168.1.171-192.168.1.52'
p1026
(iprimitives
Link
p1027
(dp1028
g4
Nsg5
Nsg6
g70
sg8
g134
sg10
S'#1617e5'
p1029
sg12
F1.0
sbsS'192.168.1.192-192.168.2.31'
p1030
(iprimitives
Link
p1031
(dp1032
g4
Nsg5
Nsg6
g80
sg8
g412
sg10
S'#1617e5'
p1033
sg12
F1.0
sbsS'192.168.1.245-192.168.1.143'
p1034
(iprimitives
Link
p1035
(dp1036
g4
Nsg5
Nsg6
S'192.168.1.143'
p1037
sg8
g277
sg10
S'#1617e5'
p1038
sg12
F1.0
sbsS'192.168.1.199-192.168.1.159'
p1039
(iprimitives
Link
p1040
(dp1041
g4
Nsg5
Nsg6
g565
sg8
g23
sg10
S'#1617e5'
p1042
sg12
F1.0
sbsS'192.168.1.215-192.168.1.26'
p1043
(iprimitives
Link
p1044
(dp1045
g4
Nsg5
Nsg6
g270
sg8
g347
sg10
S'#16e54f'
p1046
sg12
F0.56899999999999995
sbsS'192.168.1.101-192.168.2.5'
p1047
(iprimitives
Link
p1048
(dp1049
g4
Nsg5
Nsg6
g462
sg8
g965
sg10
S'#1652e5'
p1050
sg12
F0.92900000000000005
sbsS'192.168.1.197-192.168.1.111'
p1051
(iprimitives
Link
p1052
(dp1053
g4
Nsg5
Nsg6
g198
sg8
g102
sg10
S'#1617e5'
p1054
sg12
F1.0
sbsS'192.168.1.101-192.168.2.6'
p1055
(iprimitives
Link
p1056
(dp1057
g4
Nsg5
Nsg6
g393
sg8
g965
sg10
S'#1652e5'
p1058
sg12
F0.92900000000000005
sbsS'192.168.1.249-192.168.2.43'
p1059
(iprimitives
Link
p1060
(dp1061
g4
Nsg5
Nsg6
S'192.168.2.43'
p1062
sg8
g646
sg10
S'#1617e5'
p1063
sg12
F1.0
sbsS'192.168.1.15-192.168.2.7'
p1064
(iprimitives
Link
p1065
(dp1066
g4
Nsg5
I01
sg6
g187
sg8
g282
sg10
S'#7de516'
p1067
sg12
F0.376
sbsS'192.168.1.159-192.168.1.126'
p1068
(iprimitives
Link
p1069
(dp1070
g4
I01
sg5
Nsg6
g81
sg8
g565
sg10
S'#1621e5'
p1071
sg12
F0.98799999999999999
sbsS'192.168.1.15-192.168.2.2'
p1072
(iprimitives
Link
p1073
(dp1074
g4
Nsg5
Nsg6
S'192.168.2.2'
p1075
sg8
g282
sg10
S'#16e58f'
p1076
sg12
F0.64700000000000002
sbsS'192.168.1.249-192.168.2.46'
p1077
(iprimitives
Link
p1078
(dp1079
g4
Nsg5
Nsg6
g872
sg8
g646
sg10
S'#1648e5'
p1080
sg12
F0.94099999999999995
sbsS'192.168.1.226-192.168.1.213'
p1081
(iprimitives
Link
p1082
(dp1083
g4
Nsg5
Nsg6
g261
sg8
g256
sg10
S'#1696e5'
p1084
sg12
F0.84699999999999998
sbsS'192.168.1.170-192.168.1.167'
p1085
(iprimitives
Link
p1086
(dp1087
g4
Nsg5
Nsg6
g123
sg8
g508
sg10
S'#1617e5'
p1088
sg12
F1.0
sbsS'192.168.2.46-192.168.2.43'
p1089
(iprimitives
Link
p1090
(dp1091
g4
Nsg5
Nsg6
g1062
sg8
g872
sg10
S'#1617e5'
p1092
sg12
F1.0
sbsS'192.168.1.98-192.168.1.80'
p1093
(iprimitives
Link
p1094
(dp1095
g4
Nsg5
Nsg6
g481
sg8
g696
sg10
S'#e5a816'
p1096
sg12
F0.17599999999999999
sbsS'192.168.1.15-192.168.2.8'
p1097
(iprimitives
Link
p1098
(dp1099
g4
Nsg5
I01
sg6
g153
sg8
g282
sg10
S'#7de516'
p1100
sg12
F0.376
sbsS'192.168.1.128-192.168.1.15'
p1101
(iprimitives
Link
p1102
(dp1103
g4
Nsg5
Nsg6
g282
sg8
g302
sg10
S'#e55d16'
p1104
sg12
F0.085999999999999993
sbsS'192.168.1.165-192.168.1.147'
p1105
(iprimitives
Link
p1106
(dp1107
g4
Nsg5
Nsg6
g630
sg8
g28
sg10
S'#1617e5'
p1108
sg12
F1.0
sbsS'192.168.1.177-192.168.1.167'
p1109
(iprimitives
Link
p1110
(dp1111
g4
Nsg5
Nsg6
g123
sg8
g740
sg10
S'#1617e5'
p1112
sg12
F1.0
sbsS'192.168.1.170-192.168.2.48'
p1113
(iprimitives
Link
p1114
(dp1115
g4
Nsg5
Nsg6
S'192.168.2.48'
p1116
sg8
g508
sg10
S'#1617e5'
p1117
sg12
F1.0
sbsS'192.168.1.236-192.168.1.233'
p1118
(iprimitives
Link
p1119
(dp1120
g4
Nsg5
Nsg6
g17
sg8
g40
sg10
S'#1617e5'
p1121
sg12
F1.0
sbsS'192.168.2.7-192.168.2.3'
p1122
(iprimitives
Link
p1123
(dp1124
g4
Nsg5
Nsg6
g169
sg8
g187
sg10
S'#1617e5'
p1125
sg12
F1.0
sbsS'192.168.1.233-192.168.1.103'
p1126
(iprimitives
Link
p1127
(dp1128
g4
Nsg5
Nsg6
g86
sg8
g17
sg10
S'#1617e5'
p1129
sg12
F1.0
sbsS'192.168.1.241-192.168.1.217'
p1130
(iprimitives
Link
p1131
(dp1132
g4
Nsg5
Nsg6
S'192.168.1.217'
p1133
sg8
g544
sg10
S'#164be5'
p1134
sg12
F0.93700000000000006
sbsS'192.168.1.104-192.168.1.103'
p1135
(iprimitives
Link
p1136
(dp1137
g4
Nsg5
Nsg6
g86
sg8
g96
sg10
S'#1617e5'
p1138
sg12
F1.0
sbsS'192.168.1.103-192.168.2.41'
p1139
(iprimitives
Link
p1140
(dp1141
g4
Nsg5
Nsg6
g91
sg8
g86
sg10
S'#1617e5'
p1142
sg12
F1.0
sbsS'192.168.1.215-192.168.1.208'
p1143
(iprimitives
Link
p1144
(dp1145
g4
Nsg5
Nsg6
g242
sg8
g347
sg10
S'#e55716'
p1146
sg12
F0.078
sbsS'192.168.1.202-192.168.1.201'
p1147
(iprimitives
Link
p1148
(dp1149
g4
Nsg5
Nsg6
g58
sg8
g457
sg10
S'#1617e5'
p1150
sg12
F1.0
sbsS'192.168.1.236-192.168.1.104'
p1151
(iprimitives
Link
p1152
(dp1153
g4
Nsg5
Nsg6
g96
sg8
g40
sg10
S'#1617e5'
p1154
sg12
F1.0
sbsS'192.168.1.185-192.168.1.124'
p1155
(iprimitives
Link
p1156
(dp1157
g4
Nsg5
Nsg6
g63
sg8
g46
sg10
S'#1617e5'
p1158
sg12
F1.0
sbsS'192.168.1.235-192.168.1.147'
p1159
(iprimitives
Link
p1160
(dp1161
g4
Nsg5
Nsg6
g630
sg8
g29
sg10
S'#1617e5'
p1162
sg12
F1.0
sbsS'192.168.1.10-192.168.2.6'
p1163
(iprimitives
Link
p1164
(dp1165
g4
Nsg5
Nsg6
g393
sg8
g564
sg10
S'#1617e5'
p1166
sg12
F1.0
sbsS'192.168.1.10-192.168.2.5'
p1167
(iprimitives
Link
p1168
(dp1169
g4
Nsg5
Nsg6
g462
sg8
g564
sg10
S'#1617e5'
p1170
sg12
F1.0
sbsS'192.168.1.67-192.168.1.26'
p1171
(iprimitives
Link
p1172
(dp1173
g4
Nsg5
Nsg6
g270
sg8
g735
sg10
S'#e5a216'
p1174
sg12
F0.16900000000000001
sbsS'192.168.1.184-192.168.2.41'
p1175
(iprimitives
Link
p1176
(dp1177
g4
Nsg5
Nsg6
g91
sg8
g64
sg10
S'#1617e5'
p1178
sg12
F1.0
sbsS'192.168.1.202-192.168.2.10'
p1179
(iprimitives
Link
p1180
(dp1181
g4
Nsg5
Nsg6
g107
sg8
g457
sg10
S'#1617e5'
p1182
sg12
F1.0
sbsS'192.168.1.184-192.168.2.42'
p1183
(iprimitives
Link
p1184
(dp1185
g4
Nsg5
Nsg6
g75
sg8
g64
sg10
S'#1617e5'
p1186
sg12
F1.0
sbsS'192.168.1.187-192.168.2.31'
p1187
(iprimitives
Link
p1188
(dp1189
g4
Nsg5
Nsg6
g80
sg8
g135
sg10
S'#1617e5'
p1190
sg12
F1.0
sbsS'192.168.1.172-192.168.2.41'
p1191
(iprimitives
Link
p1192
(dp1193
g4
Nsg5
Nsg6
g91
sg8
g503
sg10
S'#1617e5'
p1194
sg12
F1.0
sbsS'192.168.1.172-192.168.2.42'
p1195
(iprimitives
Link
p1196
(dp1197
g4
Nsg5
Nsg6
g75
sg8
g503
sg10
S'#1617e5'
p1198
sg12
F1.0
sbsS'192.168.1.138-192.168.1.124'
p1199
(iprimitives
Link
p1200
(dp1201
g4
Nsg5
Nsg6
g63
sg8
g16
sg10
S'#1617e5'
p1202
sg12
F1.0
sbsS'192.168.1.171-192.168.2.4'
p1203
(iprimitives
Link
p1204
(dp1205
g4
Nsg5
Nsg6
g140
sg8
g134
sg10
S'#1617e5'
p1206
sg12
F1.0
sbsS'192.168.1.213-192.168.1.80'
p1207
(iprimitives
Link
p1208
(dp1209
g4
Nsg5
Nsg6
g481
sg8
g261
sg10
S'#16e52e'
p1210
sg12
F0.52900000000000003
sbsS'192.168.1.183-192.168.1.179'
p1211
(iprimitives
Link
p1212
(dp1213
g4
Nsg5
Nsg6
g57
sg8
g45
sg10
S'#1617e5'
p1214
sg12
F1.0
sbsS'192.168.1.177-192.168.1.170'
p1215
(iprimitives
Link
p1216
(dp1217
g4
Nsg5
Nsg6
g508
sg8
g740
sg10
S'#1617e5'
p1218
sg12
F1.0
sbsS'192.168.1.171-192.168.2.3'
p1219
(iprimitives
Link
p1220
(dp1221
g4
Nsg5
Nsg6
g169
sg8
g134
sg10
S'#1617e5'
p1222
sg12
F1.0
sbsS'192.168.1.172-192.168.1.103'
p1223
(iprimitives
Link
p1224
(dp1225
g4
Nsg5
Nsg6
g86
sg8
g503
sg10
S'#1617e5'
p1226
sg12
F1.0
sbsS'192.168.1.236-192.168.1.185'
p1227
(iprimitives
Link
p1228
(dp1229
g4
Nsg5
Nsg6
g46
sg8
g40
sg10
S'#1617e5'
p1230
sg12
F1.0
sbsS'192.168.1.183-192.168.2.10'
p1231
(iprimitives
Link
p1232
(dp1233
g4
Nsg5
Nsg6
g107
sg8
g45
sg10
S'#1617e5'
p1234
sg12
F1.0
sbsS'192.168.1.25-192.168.2.7'
p1235
(iprimitives
Link
p1236
(dp1237
g4
Nsg5
I01
sg6
g187
sg8
g34
sg10
S'#16e5e4'
p1238
sg12
F0.749
sbsS'192.168.1.58-192.168.2.45'
p1239
(iprimitives
Link
p1240
(dp1241
g4
Nsg5
Nsg6
g725
sg8
g817
sg10
S'#1617e5'
p1242
sg12
F1.0
sbsS'192.168.1.205-192.168.1.97'
p1243
(iprimitives
Link
p1244
(dp1245
g4
Nsg5
Nsg6
g555
sg8
S'192.168.1.205'
p1246
sg10
S'#1617e5'
p1247
sg12
F1.0
sbsS'192.168.1.172-192.168.1.104'
p1248
(iprimitives
Link
p1249
(dp1250
g4
Nsg5
Nsg6
g96
sg8
g503
sg10
S'#1617e5'
p1251
sg12
F1.0
sbsS'192.168.1.47-192.168.2.43'
p1252
(iprimitives
Link
p1253
(dp1254
g4
Nsg5
Nsg6
g1062
sg8
g645
sg10
S'#1617e5'
p1255
sg12
F1.0
sbsS'192.168.1.79-192.168.2.17'
p1256
(iprimitives
Link
p1257
(dp1258
g4
Nsg5
Nsg6
g52
sg8
g205
sg10
S'#1617e5'
p1259
sg12
F1.0
sbsS'192.168.1.25-192.168.2.8'
p1260
(iprimitives
Link
p1261
(dp1262
g4
Nsg5
I01
sg6
g153
sg8
g34
sg10
S'#16cde5'
p1263
sg12
F0.78000000000000003
sbsS'192.168.1.113-192.168.1.59'
p1264
(iprimitives
Link
p1265
(dp1266
g4
Nsg5
Nsg6
g554
sg8
g624
sg10
S'#1617e5'
p1267
sg12
F1.0
sbsS'192.168.1.79-192.168.2.11'
p1268
(iprimitives
Link
p1269
(dp1270
g4
Nsg5
Nsg6
g51
sg8
g205
sg10
S'#1617e5'
p1271
sg12
F1.0
sbsS'192.168.1.185-192.168.1.103'
p1272
(iprimitives
Link
p1273
(dp1274
g4
Nsg5
Nsg6
g86
sg8
g46
sg10
S'#1617e5'
p1275
sg12
F1.0
sbsS'192.168.1.104-192.168.2.42'
p1276
(iprimitives
Link
p1277
(dp1278
g4
Nsg5
Nsg6
g75
sg8
g96
sg10
S'#1617e5'
p1279
sg12
F1.0
sbsS'192.168.1.110-192.168.2.39'
p1280
(iprimitives
Link
p1281
(dp1282
g4
Nsg5
Nsg6
g730
sg8
g295
sg10
S'#1617e5'
p1283
sg12
F1.0
sbsS'192.168.1.100-192.168.1.40'
p1284
(iprimitives
Link
p1285
(dp1286
g4
Nsg5
Nsg6
g384
sg8
g374
sg10
S'#16dde5'
p1287
sg12
F0.76100000000000001
sbsS'192.168.1.183-192.168.1.185'
p1288
g43
sS'192.168.1.89-192.168.1.62'
p1289
(iprimitives
Link
p1290
(dp1291
g4
Nsg5
Nsg6
S'192.168.1.62'
p1292
sg8
g834
sg10
S'#1617e5'
p1293
sg12
F1.0
sbsS'192.168.1.41-192.168.2.40'
p1294
(iprimitives
Link
p1295
(dp1296
g4
Nsg5
Nsg6
g407
sg8
g301
sg10
S'#1617e5'
p1297
sg12
F1.0
sbsS'192.168.1.192-192.168.1.187'
p1298
(iprimitives
Link
p1299
(dp1300
g4
Nsg5
Nsg6
g135
sg8
g412
sg10
S'#1617e5'
p1301
sg12
F1.0
sbsS'192.168.1.152-192.168.2.8'
p1302
(iprimitives
Link
p1303
(dp1304
g4
Nsg5
I01
sg6
g153
sg8
g35
sg10
S'#1617e5'
p1305
sg12
F1.0
sbsS'192.168.1.126-192.168.1.159'
p1306
g1069
sS'192.168.1.212-192.168.1.89'
p1307
(iprimitives
Link
p1308
(dp1309
g4
Nsg5
Nsg6
g834
sg8
S'192.168.1.212'
p1310
sg10
S'#16e51b'
p1311
sg12
F0.50600000000000001
sbsS'192.168.1.172-192.168.1.138'
p1312
(iprimitives
Link
p1313
(dp1314
g4
Nsg5
Nsg6
g16
sg8
g503
sg10
S'#1617e5'
p1315
sg12
F1.0
sbsS'192.168.1.32-192.168.1.25'
p1316
(iprimitives
Link
p1317
(dp1318
g4
Nsg5
Nsg6
g34
sg8
S'192.168.1.32'
p1319
sg10
S'#c7e516'
p1320
sg12
F0.28599999999999998
sbsS'192.168.1.222-192.168.1.41'
p1321
(iprimitives
Link
p1322
(dp1323
g4
Nsg5
Nsg6
g301
sg8
S'192.168.1.222'
p1324
sg10
S'#1617e5'
p1325
sg12
F1.0
sbsS'192.168.1.166-192.168.1.143'
p1326
(iprimitives
Link
p1327
(dp1328
g4
Nsg5
Nsg6
g1037
sg8
g521
sg10
S'#165ee5'
p1329
sg12
F0.91400000000000003
sbsS'192.168.1.231-192.168.1.230'
p1330
(iprimitives
Link
p1331
(dp1332
g4
Nsg5
Nsg6
g193
sg8
g375
sg10
S'#1617e5'
p1333
sg12
F1.0
sbsS'192.168.1.179-192.168.2.10'
p1334
(iprimitives
Link
p1335
(dp1336
g4
Nsg5
Nsg6
g107
sg8
g57
sg10
S'#1617e5'
p1337
sg12
F1.0
sbsS'192.168.1.33-192.168.1.32'
p1338
(iprimitives
Link
p1339
(dp1340
g4
Nsg5
Nsg6
g1319
sg8
S'192.168.1.33'
p1341
sg10
S'#16b6e5'
p1342
sg12
F0.80800000000000005
sbsS'192.168.1.224-192.168.1.41'
p1343
(iprimitives
Link
p1344
(dp1345
g4
Nsg5
Nsg6
g301
sg8
S'192.168.1.224'
p1346
sg10
S'#1617e5'
p1347
sg12
F1.0
sbsS'192.168.1.118-192.168.1.41'
p1348
(iprimitives
Link
p1349
(dp1350
g4
Nsg5
Nsg6
g301
sg8
g583
sg10
S'#1617e5'
p1351
sg12
F1.0
sbsS'192.168.1.177-192.168.1.165'
p1352
(iprimitives
Link
p1353
(dp1354
g4
Nsg5
Nsg6
g28
sg8
g740
sg10
S'#1617e5'
p1355
sg12
F1.0
sbsS'192.168.1.202-192.168.1.23'
p1356
(iprimitives
Link
p1357
(dp1358
g4
Nsg5
Nsg6
g215
sg8
g457
sg10
S'#1617e5'
p1359
sg12
F1.0
sbsS'192.168.1.138-192.168.2.41'
p1360
(iprimitives
Link
p1361
(dp1362
g4
Nsg5
Nsg6
g91
sg8
g16
sg10
S'#1617e5'
p1363
sg12
F1.0
sbsS'192.168.1.162-192.168.1.104'
p1364
(iprimitives
Link
p1365
(dp1366
g4
Nsg5
Nsg6
g96
sg8
g118
sg10
S'#1617e5'
p1367
sg12
F1.0
sbsS'192.168.1.170-192.168.1.147'
p1368
(iprimitives
Link
p1369
(dp1370
g4
Nsg5
Nsg6
g630
sg8
g508
sg10
S'#1617e5'
p1371
sg12
F1.0
sbsS'192.168.2.38-192.168.2.37'
p1372
(iprimitives
Link
p1373
(dp1374
g4
Nsg5
Nsg6
g476
sg8
g922
sg10
S'#1617e5'
p1375
sg12
F1.0
sbsS'192.168.1.235-192.168.1.170'
p1376
(iprimitives
Link
p1377
(dp1378
g4
Nsg5
Nsg6
g508
sg8
g29
sg10
S'#1617e5'
p1379
sg12
F1.0
sbsS'192.168.1.157-192.168.1.15'
p1380
(iprimitives
Link
p1381
(dp1382
g4
Nsg5
I01
sg6
g282
sg8
g154
sg10
S'#1617e5'
p1383
sg12
F1.0
sbsS'192.168.1.243-192.168.1.217'
p1384
(iprimitives
Link
p1385
(dp1386
g4
Nsg5
Nsg6
g1133
sg8
g539
sg10
S'#163be5'
p1387
sg12
F0.95699999999999996
sbsS'192.168.1.223-192.168.1.80'
p1388
(iprimitives
Link
p1389
(dp1390
g4
Nsg5
Nsg6
g481
sg8
g255
sg10
S'#e58116'
p1391
sg12
F0.129
sbsS'192.168.1.198-192.168.1.37'
p1392
(iprimitives
Link
p1393
(dp1394
g4
Nsg5
Nsg6
g307
sg8
g22
sg10
S'#1621e5'
p1395
sg12
F0.98799999999999999
sbsS'192.168.1.201-192.168.2.10'
p1396
(iprimitives
Link
p1397
(dp1398
g4
Nsg5
Nsg6
g107
sg8
g58
sg10
S'#1617e5'
p1399
sg12
F1.0
sbsS'192.168.1.167-192.168.1.165'
p1400
(iprimitives
Link
p1401
(dp1402
g4
Nsg5
Nsg6
g28
sg8
g123
sg10
S'#1617e5'
p1403
sg12
F1.0
sbsS'192.168.1.162-192.168.1.103'
p1404
(iprimitives
Link
p1405
(dp1406
g4
Nsg5
Nsg6
g86
sg8
g118
sg10
S'#1617e5'
p1407
sg12
F1.0
sbsS'192.168.1.70-192.168.2.20'
p1408
(iprimitives
Link
p1409
(dp1410
g4
Nsg5
Nsg6
g881
sg8
S'192.168.1.70'
p1411
sg10
S'#1617e5'
p1412
sg12
F1.0
sbsS'192.168.1.184-192.168.1.138'
p1413
(iprimitives
Link
p1414
(dp1415
g4
Nsg5
Nsg6
g16
sg8
g64
sg10
S'#1617e5'
p1416
sg12
F1.0
sbsS'192.168.1.235-192.168.1.177'
p1417
(iprimitives
Link
p1418
(dp1419
g4
Nsg5
Nsg6
g740
sg8
g29
sg10
S'#1617e5'
p1420
sg12
F1.0
sbs.