(dp0
S'192.168.1.201-192.168.1.179'
p1
(iprimitives
Link
p2
(dp3
S'backbone'
p4
NsS'cable'
p5
NsS'ap2'
p6
S'192.168.1.179'
p7
sS'etx'
p8
F1.0
sS'ap1'
p9
S'192.168.1.201'
p10
sS'etxcolor'
p11
S'#166ae5'
p12
sbsS'192.168.1.233-192.168.1.138'
p13
(iprimitives
Link
p14
(dp15
g4
Nsg5
Nsg6
S'192.168.1.138'
p16
sg8
F1.0
sg9
S'192.168.1.233'
p17
sg11
S'#166ae5'
p18
sbsS'192.168.1.199-192.168.1.198'
p19
(iprimitives
Link
p20
(dp21
g4
Nsg5
Nsg6
S'192.168.1.198'
p22
sg8
F1.089
sg9
S'192.168.1.199'
p23
sg11
S'#1671e5'
p24
sbsS'192.168.1.235-192.168.1.165'
p25
(iprimitives
Link
p26
(dp27
g4
Nsg5
Nsg6
S'192.168.1.165'
p28
sg8
F1.0
sg9
S'192.168.1.235'
p29
sg11
S'#166ae5'
p30
sbsS'192.168.1.214-192.168.1.208'
p31
(iprimitives
Link
p32
(dp33
g4
Nsg5
Nsg6
S'192.168.1.208'
p34
sg8
F1.72
sg9
S'192.168.1.214'
p35
sg11
S'#16a5e5'
p36
sbsS'192.168.1.152-192.168.1.25'
p37
(iprimitives
Link
p38
(dp39
g4
Nsg5
I01
sg6
S'192.168.1.25'
p40
sg8
F1.335
sg9
S'192.168.1.152'
p41
sg11
S'#1685e5'
p42
sbsS'192.168.1.236-192.168.1.235'
p43
(iprimitives
Link
p44
(dp45
g4
Nsg5
Nsg6
g29
sg8
F1.094
sg9
S'192.168.1.236'
p46
sg11
S'#1672e5'
p47
sbsS'192.168.1.185-192.168.1.183'
p48
(iprimitives
Link
p49
(dp50
g4
I01
sg5
Nsg6
S'192.168.1.183'
p51
sg8
F3.355
sg9
S'192.168.1.185'
p52
sg11
S'#a1e516'
p53
sbsS'192.168.2.17-192.168.2.11'
p54
(iprimitives
Link
p55
(dp56
g4
Nsg5
Nsg6
S'192.168.2.11'
p57
sg8
F1.0
sg9
S'192.168.2.17'
p58
sg11
S'#166ae5'
p59
sbsS'192.168.1.185-192.168.1.184'
p60
(iprimitives
Link
p61
(dp62
g4
Nsg5
Nsg6
S'192.168.1.184'
p63
sg8
F1.0
sg9
g52
sg11
S'#166ae5'
p64
sbsS'192.168.1.184-192.168.1.124'
p65
(iprimitives
Link
p66
(dp67
g4
Nsg5
Nsg6
S'192.168.1.124'
p68
sg8
F1.0
sg9
g63
sg11
S'#166ae5'
p69
sbsS'192.168.1.52-192.168.1.46'
p70
(iprimitives
Link
p71
(dp72
g4
Nsg5
Nsg6
S'192.168.1.46'
p73
sg8
F1.0
sg9
S'192.168.1.52'
p74
sg11
S'#166ae5'
p75
sbsS'192.168.1.185-192.168.2.42'
p76
(iprimitives
Link
p77
(dp78
g4
Nsg5
Nsg6
S'192.168.2.42'
p79
sg8
F1.0
sg9
g52
sg11
S'#166ae5'
p80
sbsS'192.168.1.126-192.168.2.31'
p81
(iprimitives
Link
p82
(dp83
g4
Nsg5
Nsg6
S'192.168.2.31'
p84
sg8
F1.0
sg9
S'192.168.1.126'
p85
sg11
S'#166ae5'
p86
sbsS'192.168.1.103-192.168.2.42'
p87
(iprimitives
Link
p88
(dp89
g4
Nsg5
Nsg6
g79
sg8
F1.0
sg9
S'192.168.1.103'
p90
sg11
S'#166ae5'
p91
sbsS'192.168.1.185-192.168.2.41'
p92
(iprimitives
Link
p93
(dp94
g4
Nsg5
Nsg6
S'192.168.2.41'
p95
sg8
F1.0
sg9
g52
sg11
S'#166ae5'
p96
sbsS'192.168.1.185-192.168.1.104'
p97
(iprimitives
Link
p98
(dp99
g4
Nsg5
Nsg6
S'192.168.1.104'
p100
sg8
F1.0
sg9
g52
sg11
S'#166ae5'
p101
sbsS'192.168.1.197-192.168.1.155'
p102
(iprimitives
Link
p103
(dp104
g4
I01
sg5
Nsg6
S'192.168.1.155'
p105
sg8
F1.159
sg9
S'192.168.1.197'
p106
sg11
S'#1677e5'
p107
sbsS'192.168.2.11-192.168.2.10'
p108
(iprimitives
Link
p109
(dp110
g4
Nsg5
Nsg6
S'192.168.2.10'
p111
sg8
F9.808
sg9
g57
sg11
S'#e51e16'
p112
sbsS'192.168.1.127-192.168.1.106'
p113
(iprimitives
Link
p114
(dp115
g4
Nsg5
Nsg6
S'192.168.1.106'
p116
sg8
F1.0
sg9
S'192.168.1.127'
p117
sg11
S'#166ae5'
p118
sbsS'192.168.1.184-192.168.1.162'
p119
(iprimitives
Link
p120
(dp121
g4
Nsg5
Nsg6
S'192.168.1.162'
p122
sg8
F1.0
sg9
g63
sg11
S'#166ae5'
p123
sbsS'192.168.1.235-192.168.1.167'
p124
(iprimitives
Link
p125
(dp126
g4
Nsg5
Nsg6
S'192.168.1.167'
p127
sg8
F1.0
sg9
g29
sg11
S'#166ae5'
p128
sbsS'192.168.1.135-192.168.1.90'
p129
(iprimitives
Link
p130
(dp131
g4
Nsg5
Nsg6
S'192.168.1.90'
p132
sg8
F1.549
sg9
S'192.168.1.135'
p133
sg11
S'#1697e5'
p134
sbsS'192.168.1.214-192.168.1.67'
p135
(iprimitives
Link
p136
(dp137
g4
Nsg5
Nsg6
S'192.168.1.67'
p138
sg8
F1.103
sg9
g35
sg11
S'#1672e5'
p139
sbsS'192.168.1.187-192.168.1.171'
p140
(iprimitives
Link
p141
(dp142
g4
Nsg5
Nsg6
S'192.168.1.171'
p143
sg8
F1.0
sg9
S'192.168.1.187'
p144
sg11
S'#166ae5'
p145
sbsS'192.168.1.126-192.168.2.4'
p146
(iprimitives
Link
p147
(dp148
g4
Nsg5
Nsg6
S'192.168.2.4'
p149
sg8
F1.0
sg9
g85
sg11
S'#166ae5'
p150
sbsS'192.168.1.138-192.168.1.104'
p151
(iprimitives
Link
p152
(dp153
g4
Nsg5
Nsg6
g100
sg8
F1.0
sg9
g16
sg11
S'#166ae5'
p154
sbsS'192.168.1.236-192.168.1.184'
p155
(iprimitives
Link
p156
(dp157
g4
Nsg5
Nsg6
g63
sg8
F1.0
sg9
g46
sg11
S'#166ae5'
p158
sbsS'192.168.1.157-192.168.2.8'
p159
(iprimitives
Link
p160
(dp161
g4
Nsg5
I01
sg6
S'192.168.2.8'
p162
sg8
F1.0
sg9
S'192.168.1.157'
p163
sg11
S'#166ae5'
p164
sbsS'192.168.1.201-192.168.1.183'
p165
(iprimitives
Link
p166
(dp167
g4
Nsg5
Nsg6
g51
sg8
F1.0
sg9
g10
sg11
S'#166ae5'
p168
sbsS'192.168.1.173-192.168.1.66'
p169
(iprimitives
Link
p170
(dp171
g4
Nsg5
Nsg6
S'192.168.1.66'
p172
sg8
F1.0
sg9
S'192.168.1.173'
p173
sg11
S'#166ae5'
p174
sbsS'192.168.1.126-192.168.2.3'
p175
(iprimitives
Link
p176
(dp177
g4
Nsg5
Nsg6
S'192.168.2.3'
p178
sg8
F1.0
sg9
g85
sg11
S'#166ae5'
p179
sbsS'192.168.1.157-192.168.1.66'
p180
(iprimitives
Link
p181
(dp182
g4
Nsg5
I01
sg6
g172
sg8
F1.0
sg9
g163
sg11
S'#166ae5'
p183
sbsS'192.168.1.174-192.168.2.10'
p184
(iprimitives
Link
p185
(dp186
g4
Nsg5
Nsg6
g111
sg8
F1.0
sg9
S'192.168.1.174'
p187
sg11
S'#166ae5'
p188
sbsS'192.168.1.233-192.168.1.104'
p189
(iprimitives
Link
p190
(dp191
g4
Nsg5
Nsg6
g100
sg8
F1.0
sg9
g17
sg11
S'#166ae5'
p192
sbsS'192.168.1.157-192.168.2.7'
p193
(iprimitives
Link
p194
(dp195
g4
Nsg5
I01
sg6
S'192.168.2.7'
p196
sg8
F1.0
sg9
g163
sg11
S'#166ae5'
p197
sbsS'192.168.1.230-192.168.1.225'
p198
(iprimitives
Link
p199
(dp200
g4
Nsg5
Nsg6
S'192.168.1.225'
p201
sg8
F1.0
sg9
S'192.168.1.230'
p202
sg11
S'#166ae5'
p203
sbsS'192.168.1.112-192.168.1.111'
p204
(iprimitives
Link
p205
(dp206
g4
I01
sg5
Nsg6
S'192.168.1.111'
p207
sg8
F1.099
sg9
S'192.168.1.112'
p208
sg11
S'#1672e5'
p209
sbsS'192.168.1.79-192.168.2.35'
p210
(iprimitives
Link
p211
(dp212
g4
Nsg5
Nsg6
S'192.168.2.35'
p213
sg8
F1.0
sg9
S'192.168.1.79'
p214
sg11
S'#166ae5'
p215
sbsS'192.168.1.79-192.168.2.36'
p216
(iprimitives
Link
p217
(dp218
g4
Nsg5
Nsg6
S'192.168.2.36'
p219
sg8
F1.0
sg9
g214
sg11
S'#166ae5'
p220
sbsS'192.168.1.201-192.168.1.23'
p221
(iprimitives
Link
p222
(dp223
g4
Nsg5
Nsg6
S'192.168.1.23'
p224
sg8
F1.0
sg9
g10
sg11
S'#166ae5'
p225
sbsS'192.168.1.171-192.168.1.126'
p226
(iprimitives
Link
p227
(dp228
g4
Nsg5
Nsg6
g85
sg8
F1.0
sg9
g143
sg11
S'#166ae5'
p229
sbsS'192.168.1.162-192.168.1.138'
p230
(iprimitives
Link
p231
(dp232
g4
Nsg5
Nsg6
g16
sg8
F1.0
sg9
g122
sg11
S'#166ae5'
p233
sbsS'192.168.1.79-192.168.2.33'
p234
(iprimitives
Link
p235
(dp236
g4
Nsg5
Nsg6
S'192.168.2.33'
p237
sg8
F1.0
sg9
g214
sg11
S'#166ae5'
p238
sbsS'192.168.1.162-192.168.2.41'
p239
(iprimitives
Link
p240
(dp241
g4
Nsg5
Nsg6
g95
sg8
F1.0
sg9
g122
sg11
S'#166ae5'
p242
sbsS'192.168.1.184-192.168.1.104'
p243
(iprimitives
Link
p244
(dp245
g4
Nsg5
Nsg6
g100
sg8
F1.0
sg9
g63
sg11
S'#166ae5'
p246
sbsS'192.168.1.208-192.168.1.134'
p247
(iprimitives
Link
p248
(dp249
g4
Nsg5
Nsg6
S'192.168.1.134'
p250
sg8
F3.503
sg9
g34
sg11
S'#a7e516'
p251
sbsS'192.168.1.162-192.168.2.42'
p252
(iprimitives
Link
p253
(dp254
g4
Nsg5
Nsg6
g79
sg8
F1.0
sg9
g122
sg11
S'#166ae5'
p255
sbsS'192.168.1.184-192.168.1.103'
p256
(iprimitives
Link
p257
(dp258
g4
Nsg5
Nsg6
g90
sg8
F1.0
sg9
g63
sg11
S'#166ae5'
p259
sbsS'192.168.1.214-192.168.1.112'
p260
(iprimitives
Link
p261
(dp262
g4
Nsg5
Nsg6
g208
sg8
F1.0
sg9
g35
sg11
S'#166ae5'
p263
sbsS'192.168.1.213-192.168.1.198'
p264
(iprimitives
Link
p265
(dp266
g4
Nsg5
Nsg6
g22
sg8
F3.458
sg9
S'192.168.1.213'
p267
sg11
S'#a6e516'
p268
sbsS'192.168.1.52-192.168.2.4'
p269
(iprimitives
Link
p270
(dp271
g4
Nsg5
Nsg6
g149
sg8
F1.0
sg9
g74
sg11
S'#166ae5'
p272
sbsS'192.168.1.91-192.168.1.26'
p273
(iprimitives
Link
p274
(dp275
g4
Nsg5
Nsg6
S'192.168.1.26'
p276
sg8
F1.154
sg9
S'192.168.1.91'
p277
sg11
S'#1677e5'
p278
sbsS'192.168.1.245-192.168.1.77'
p279
(iprimitives
Link
p280
(dp281
g4
Nsg5
Nsg6
S'192.168.1.77'
p282
sg8
F1.386
sg9
S'192.168.1.245'
p283
sg11
S'#168ae5'
p284
sbsS'192.168.1.152-192.168.1.15'
p285
(iprimitives
Link
p286
(dp287
g4
Nsg5
I01
sg6
S'192.168.1.15'
p288
sg8
F1.635
sg9
g41
sg11
S'#169ee5'
p289
sbsS'192.168.1.52-192.168.2.3'
p290
(iprimitives
Link
p291
(dp292
g4
Nsg5
Nsg6
g178
sg8
F1.0
sg9
g74
sg11
S'#166ae5'
p293
sbsS'192.168.1.104-192.168.2.41'
p294
(iprimitives
Link
p295
(dp296
g4
Nsg5
Nsg6
g95
sg8
F1.0
sg9
g100
sg11
S'#166ae5'
p297
sbsS'192.168.1.120-192.168.1.110'
p298
(iprimitives
Link
p299
(dp300
g4
Nsg5
Nsg6
S'192.168.1.110'
p301
sg8
F1.256
sg9
S'192.168.1.120'
p302
sg11
S'#167fe5'
p303
sbsS'192.168.1.128-192.168.1.41'
p304
(iprimitives
Link
p305
(dp306
g4
Nsg5
Nsg6
S'192.168.1.41'
p307
sg8
F1.0
sg9
S'192.168.1.128'
p308
sg11
S'#166ae5'
p309
sbsS'192.168.1.199-192.168.1.37'
p310
(iprimitives
Link
p311
(dp312
g4
Nsg5
Nsg6
S'192.168.1.37'
p313
sg8
F1.759
sg9
g23
sg11
S'#16a8e5'
p314
sbsS'192.168.1.86-192.168.1.57'
p315
(iprimitives
Link
p316
(dp317
g4
Nsg5
Nsg6
S'192.168.1.57'
p318
sg8
F1.428
sg9
S'192.168.1.86'
p319
sg11
S'#168de5'
p320
sbsS'192.168.1.179-192.168.1.127'
p321
(iprimitives
Link
p322
(dp323
g4
Nsg5
Nsg6
g117
sg8
F1.076
sg9
g7
sg11
S'#1670e5'
p324
sbsS'192.168.1.213-192.168.1.208'
p325
(iprimitives
Link
p326
(dp327
g4
Nsg5
Nsg6
g34
sg8
F1.138
sg9
g267
sg11
S'#1675e5'
p328
sbsS'192.168.1.145-192.168.1.130'
p329
(iprimitives
Link
p330
(dp331
g4
Nsg5
Nsg6
S'192.168.1.130'
p332
sg8
F1.427
sg9
S'192.168.1.145'
p333
sg11
S'#168de5'
p334
sbsS'192.168.1.236-192.168.1.124'
p335
(iprimitives
Link
p336
(dp337
g4
Nsg5
Nsg6
g68
sg8
F1.0
sg9
g46
sg11
S'#166ae5'
p338
sbsS'192.168.1.235-192.168.1.177'
p339
(iprimitives
Link
p340
(dp341
g4
Nsg5
Nsg6
S'192.168.1.177'
p342
sg8
F1.0
sg9
g29
sg11
S'#166ae5'
p343
sbsS'192.168.1.185-192.168.1.162'
p344
(iprimitives
Link
p345
(dp346
g4
Nsg5
Nsg6
g122
sg8
F1.0
sg9
g52
sg11
S'#166ae5'
p347
sbsS'192.168.1.89-192.168.1.167'
p348
(iprimitives
Link
p349
(dp350
g4
Nsg5
Nsg6
g127
sg8
F4.855
sg9
S'192.168.1.89'
p351
sg11
S'#dfe516'
p352
sbsS'192.168.1.215-192.168.1.214'
p353
(iprimitives
Link
p354
(dp355
g4
Nsg5
Nsg6
g35
sg8
F1.668
sg9
S'192.168.1.215'
p356
sg11
S'#16a1e5'
p357
sbsS'192.168.1.201-192.168.1.174'
p358
(iprimitives
Link
p359
(dp360
g4
Nsg5
Nsg6
g187
sg8
F1.0
sg9
g10
sg11
S'#166ae5'
p361
sbsS'192.168.1.236-192.168.2.41'
p362
(iprimitives
Link
p363
(dp364
g4
Nsg5
Nsg6
g95
sg8
F1.0
sg9
g46
sg11
S'#166ae5'
p365
sbsS'192.168.2.4-192.168.2.3'
p366
(iprimitives
Link
p367
(dp368
g4
Nsg5
Nsg6
g178
sg8
F1.0
sg9
g149
sg11
S'#166ae5'
p369
sbsS'192.168.1.79-192.168.1.54'
p370
(iprimitives
Link
p371
(dp372
g4
Nsg5
Nsg6
S'192.168.1.54'
p373
sg8
F1.0
sg9
g214
sg11
S'#166ae5'
p374
sbsS'192.168.2.33-192.168.2.11'
p375
(iprimitives
Link
p376
(dp377
g4
Nsg5
Nsg6
g57
sg8
F1.0
sg9
g237
sg11
S'#166ae5'
p378
sbsS'192.168.2.33-192.168.2.17'
p379
(iprimitives
Link
p380
(dp381
g4
Nsg5
Nsg6
g58
sg8
F1.0
sg9
g237
sg11
S'#166ae5'
p382
sbsS'192.168.1.231-192.168.1.40'
p383
(iprimitives
Link
p384
(dp385
g4
Nsg5
Nsg6
S'192.168.1.40'
p386
sg8
F1.0
sg9
S'192.168.1.231'
p387
sg11
S'#166ae5'
p388
sbsS'192.168.1.66-192.168.1.25'
p389
(iprimitives
Link
p390
(dp391
g4
Nsg5
I01
sg6
g40
sg8
F1.335
sg9
g172
sg11
S'#1685e5'
p392
sbsS'192.168.2.6-192.168.2.4'
p393
(iprimitives
Link
p394
(dp395
g4
Nsg5
Nsg6
g149
sg8
F1.0
sg9
S'192.168.2.6'
p396
sg11
S'#166ae5'
p397
sbsS'192.168.2.33-192.168.2.18'
p398
(iprimitives
Link
p399
(dp400
g4
Nsg5
Nsg6
S'192.168.2.18'
p401
sg8
F1.0
sg9
g237
sg11
S'#166ae5'
p402
sbsS'192.168.1.195-192.168.1.192'
p403
(iprimitives
Link
p404
(dp405
g4
Nsg5
Nsg6
S'192.168.1.192'
p406
sg8
F1.024
sg9
S'192.168.1.195'
p407
sg11
S'#166ce5'
p408
sbsS'192.168.2.41-192.168.2.40'
p409
(iprimitives
Link
p410
(dp411
g4
Nsg5
Nsg6
S'192.168.2.40'
p412
sg8
F1.0
sg9
g95
sg11
S'#166ae5'
p413
sbsS'192.168.1.192-192.168.1.126'
p414
(iprimitives
Link
p415
(dp416
g4
Nsg5
Nsg6
g85
sg8
F1.0
sg9
g406
sg11
S'#166ae5'
p417
sbsS'192.168.1.192-192.168.1.52'
p418
(iprimitives
Link
p419
(dp420
g4
Nsg5
Nsg6
g74
sg8
F1.0
sg9
g406
sg11
S'#166ae5'
p421
sbsS'192.168.1.162-192.168.1.124'
p422
(iprimitives
Link
p423
(dp424
g4
Nsg5
Nsg6
g68
sg8
F1.0
sg9
g122
sg11
S'#166ae5'
p425
sbsS'192.168.1.51-192.168.1.37'
p426
(iprimitives
Link
p427
(dp428
g4
Nsg5
Nsg6
g313
sg8
F9.469
sg9
S'192.168.1.51'
p429
sg11
S'#e52c16'
p430
sbsS'192.168.1.179-192.168.1.23'
p431
(iprimitives
Link
p432
(dp433
g4
Nsg5
Nsg6
g224
sg8
F1.0
sg9
g7
sg11
S'#166ae5'
p434
sbsS'192.168.1.236-192.168.2.42'
p435
(iprimitives
Link
p436
(dp437
g4
Nsg5
Nsg6
g79
sg8
F1.0
sg9
g46
sg11
S'#166ae5'
p438
sbsS'192.168.1.233-192.168.1.185'
p439
(iprimitives
Link
p440
(dp441
g4
Nsg5
Nsg6
g52
sg8
F1.0
sg9
g17
sg11
S'#166ae5'
p442
sbsS'192.168.1.177-192.168.1.147'
p443
(iprimitives
Link
p444
(dp445
g4
Nsg5
Nsg6
S'192.168.1.147'
p446
sg8
F1.0
sg9
g342
sg11
S'#166ae5'
p447
sbsS'192.168.1.233-192.168.2.42'
p448
(iprimitives
Link
p449
(dp450
g4
Nsg5
Nsg6
g79
sg8
F1.0
sg9
g17
sg11
S'#166ae5'
p451
sbsS'192.168.1.226-192.168.1.26'
p452
(iprimitives
Link
p453
(dp454
g4
Nsg5
Nsg6
g276
sg8
F8.493
sg9
S'192.168.1.226'
p455
sg11
S'#e55516'
p456
sbsS'192.168.2.6-192.168.2.5'
p457
(iprimitives
Link
p458
(dp459
g4
Nsg5
Nsg6
S'192.168.2.5'
p460
sg8
F1.0
sg9
g396
sg11
S'#166ae5'
p461
sbsS'192.168.2.36-192.168.2.33'
p462
(iprimitives
Link
p463
(dp464
g4
Nsg5
Nsg6
g237
sg8
F1.0
sg9
g219
sg11
S'#166ae5'
p465
sbsS'192.168.2.37-192.168.2.36'
p466
(iprimitives
Link
p467
(dp468
g4
Nsg5
Nsg6
g219
sg8
F1.0
sg9
S'192.168.2.37'
p469
sg11
S'#166ae5'
p470
sbsS'192.168.1.208-192.168.1.80'
p471
(iprimitives
Link
p472
(dp473
g4
Nsg5
Nsg6
S'192.168.1.80'
p474
sg8
F1.192
sg9
g34
sg11
S'#167ae5'
p475
sbsS'192.168.1.174-192.168.1.23'
p476
(iprimitives
Link
p477
(dp478
g4
Nsg5
Nsg6
g224
sg8
F1.0
sg9
g187
sg11
S'#166ae5'
p479
sbsS'192.168.2.36-192.168.2.35'
p480
(iprimitives
Link
p481
(dp482
g4
Nsg5
Nsg6
g213
sg8
F1.0
sg9
g219
sg11
S'#166ae5'
p483
sbsS'192.168.1.227-192.168.1.230'
p484
(iprimitives
Link
p485
(dp486
g4
I01
sg5
Nsg6
S'192.168.1.227'
p487
sg8
F1.028
sg9
g202
sg11
S'#166ce5'
p488
sbsS'192.168.2.31-192.168.2.4'
p489
(iprimitives
Link
p490
(dp491
g4
Nsg5
Nsg6
g149
sg8
F1.0
sg9
g84
sg11
S'#166ae5'
p492
sbsS'192.168.1.184-192.168.1.172'
p493
(iprimitives
Link
p494
(dp495
g4
Nsg5
Nsg6
S'192.168.1.172'
p496
sg8
F1.0
sg9
g63
sg11
S'#166ae5'
p497
sbsS'192.168.1.170-192.168.1.165'
p498
(iprimitives
Link
p499
(dp500
g4
Nsg5
Nsg6
g28
sg8
F1.0
sg9
S'192.168.1.170'
p501
sg11
S'#166ae5'
p502
sbsS'192.168.2.31-192.168.2.3'
p503
(iprimitives
Link
p504
(dp505
g4
Nsg5
Nsg6
g178
sg8
F1.0
sg9
g84
sg11
S'#166ae5'
p506
sbsS'192.168.1.166-192.168.1.155'
p507
(iprimitives
Link
p508
(dp509
g4
I01
sg5
Nsg6
g105
sg8
F1.118
sg9
S'192.168.1.166'
p510
sg11
S'#1674e5'
p511
sbsS'192.168.1.231-192.168.1.225'
p512
(iprimitives
Link
p513
(dp514
g4
Nsg5
Nsg6
g201
sg8
F1.0
sg9
g387
sg11
S'#166ae5'
p515
sbsS'192.168.1.66-192.168.1.15'
p516
(iprimitives
Link
p517
(dp518
g4
Nsg5
I01
sg6
g288
sg8
F1.771
sg9
g172
sg11
S'#16a9e5'
p519
sbsS'192.168.1.49-192.168.2.38'
p520
(iprimitives
Link
p521
(dp522
g4
Nsg5
Nsg6
S'192.168.2.38'
p523
sg8
F1.0
sg9
S'192.168.1.49'
p524
sg11
S'#166ae5'
p525
sbsS'192.168.1.243-192.168.1.241'
p526
(iprimitives
Link
p527
(dp528
g4
Nsg5
Nsg6
S'192.168.1.241'
p529
sg8
F1.102
sg9
S'192.168.1.243'
p530
sg11
S'#1672e5'
p531
sbsS'192.168.2.19-192.168.2.18'
p532
(iprimitives
Link
p533
(dp534
g4
Nsg5
Nsg6
g401
sg8
F1.0
sg9
S'192.168.2.19'
p535
sg11
S'#166ae5'
p536
sbsS'192.168.1.129-192.168.1.27'
p537
(iprimitives
Link
p538
(dp539
g4
Nsg5
Nsg6
S'192.168.1.27'
p540
sg8
F1.435
sg9
S'192.168.1.129'
p541
sg11
S'#168ee5'
p542
sbsS'192.168.1.97-192.168.1.59'
p543
(iprimitives
Link
p544
(dp545
g4
Nsg5
Nsg6
S'192.168.1.59'
p546
sg8
F5.0
sg9
S'192.168.1.97'
p547
sg11
S'#e5e516'
p548
sbsS'192.168.1.208-192.168.1.51'
p549
(iprimitives
Link
p550
(dp551
g4
Nsg5
Nsg6
g429
sg8
F1.426
sg9
g34
sg11
S'#168de5'
p552
sbsS'192.168.1.49-192.168.2.37'
p553
(iprimitives
Link
p554
(dp555
g4
Nsg5
Nsg6
g469
sg8
F1.0
sg9
g524
sg11
S'#166ae5'
p556
sbsS'192.168.1.159-192.168.1.10'
p557
(iprimitives
Link
p558
(dp559
g4
I01
sg5
Nsg6
S'192.168.1.10'
p560
sg8
F1.0
sg9
S'192.168.1.159'
p561
sg11
S'#166ae5'
p562
sbsS'192.168.1.230-192.168.1.227'
p563
g485
sS'192.168.1.52-192.168.2.31'
p564
(iprimitives
Link
p565
(dp566
g4
Nsg5
Nsg6
g84
sg8
F1.0
sg9
g74
sg11
S'#166ae5'
p567
sbsS'192.168.1.162-192.168.1.152'
p568
(iprimitives
Link
p569
(dp570
g4
Nsg5
Nsg6
g41
sg8
F1.0
sg9
g122
sg11
S'#166ae5'
p571
sbsS'192.168.1.128-192.168.1.118'
p572
(iprimitives
Link
p573
(dp574
g4
Nsg5
Nsg6
S'192.168.1.118'
p575
sg8
F1.0
sg9
g308
sg11
S'#166ae5'
p576
sbsS'192.168.1.46-192.168.2.18'
p577
(iprimitives
Link
p578
(dp579
g4
Nsg5
Nsg6
g401
sg8
F1.0
sg9
g73
sg11
S'#166ae5'
p580
sbsS'192.168.1.46-192.168.2.19'
p581
(iprimitives
Link
p582
(dp583
g4
Nsg5
Nsg6
g535
sg8
F1.0
sg9
g73
sg11
S'#166ae5'
p584
sbsS'192.168.1.208-192.168.1.198'
p585
(iprimitives
Link
p586
(dp587
g4
Nsg5
Nsg6
g22
sg8
F1.045
sg9
g34
sg11
S'#166ee5'
p588
sbsS'192.168.1.208-192.168.1.199'
p589
(iprimitives
Link
p590
(dp591
g4
Nsg5
Nsg6
g23
sg8
F1.152
sg9
g34
sg11
S'#1676e5'
p592
sbsS'192.168.1.236-192.168.1.162'
p593
(iprimitives
Link
p594
(dp595
g4
Nsg5
Nsg6
g122
sg8
F1.0
sg9
g46
sg11
S'#166ae5'
p596
sbsS'192.168.1.185-192.168.1.172'
p597
(iprimitives
Link
p598
(dp599
g4
Nsg5
Nsg6
g496
sg8
F1.0
sg9
g52
sg11
S'#166ae5'
p600
sbsS'192.168.1.233-192.168.1.124'
p601
(iprimitives
Link
p602
(dp603
g4
Nsg5
Nsg6
g68
sg8
F1.0
sg9
g17
sg11
S'#166ae5'
p604
sbsS'192.168.1.113-192.168.1.116'
p605
(iprimitives
Link
p606
(dp607
g4
I01
sg5
Nsg6
S'192.168.1.113'
p608
sg8
F1.041
sg9
S'192.168.1.116'
p609
sg11
S'#166de5'
p610
sbsS'192.168.1.167-192.168.1.147'
p611
(iprimitives
Link
p612
(dp613
g4
Nsg5
Nsg6
g446
sg8
F1.0
sg9
g127
sg11
S'#166ae5'
p614
sbsS'192.168.1.236-192.168.1.172'
p615
(iprimitives
Link
p616
(dp617
g4
Nsg5
Nsg6
g496
sg8
F1.0
sg9
g46
sg11
S'#166ae5'
p618
sbsS'192.168.1.248-192.168.1.234'
p619
(iprimitives
Link
p620
(dp621
g4
Nsg5
Nsg6
S'192.168.1.234'
p622
sg8
F1.0
sg9
S'192.168.1.248'
p623
sg11
S'#166ae5'
p624
sbsS'192.168.1.249-192.168.1.47'
p625
(iprimitives
Link
p626
(dp627
g4
Nsg5
Nsg6
S'192.168.1.47'
p628
sg8
F1.062
sg9
S'192.168.1.249'
p629
sg11
S'#166fe5'
p630
sbsS'192.168.1.187-192.168.1.126'
p631
(iprimitives
Link
p632
(dp633
g4
Nsg5
Nsg6
g85
sg8
F1.0
sg9
g144
sg11
S'#166ae5'
p634
sbsS'192.168.1.199-192.168.1.51'
p635
(iprimitives
Link
p636
(dp637
g4
Nsg5
Nsg6
g429
sg8
F1.032
sg9
g23
sg11
S'#166ce5'
p638
sbsS'192.168.1.227-192.168.1.197'
p639
(iprimitives
Link
p640
(dp641
g4
Nsg5
Nsg6
g106
sg8
F1.058
sg9
g487
sg11
S'#166fe5'
p642
sbsS'192.168.1.172-192.168.1.122'
p643
(iprimitives
Link
p644
(dp645
g4
Nsg5
Nsg6
S'192.168.1.122'
p646
sg8
F1.413
sg9
g496
sg11
S'#168ce5'
p647
sbsS'192.168.1.126-192.168.1.52'
p648
(iprimitives
Link
p649
(dp650
g4
Nsg5
Nsg6
g74
sg8
F1.0
sg9
g85
sg11
S'#166ae5'
p651
sbsS'192.168.1.234-192.168.1.233'
p652
(iprimitives
Link
p653
(dp654
g4
Nsg5
Nsg6
g17
sg8
F1.0
sg9
g622
sg11
S'#166ae5'
p655
sbsS'192.168.1.202-192.168.1.183'
p656
(iprimitives
Link
p657
(dp658
g4
Nsg5
Nsg6
g51
sg8
F1.0
sg9
S'192.168.1.202'
p659
sg11
S'#166ae5'
p660
sbsS'192.168.1.157-192.168.1.25'
p661
(iprimitives
Link
p662
(dp663
g4
Nsg5
I01
sg6
g40
sg8
F1.335
sg9
g163
sg11
S'#1685e5'
p664
sbsS'192.168.2.42-192.168.2.35'
p665
(iprimitives
Link
p666
(dp667
g4
Nsg5
Nsg6
g213
sg8
F1.0
sg9
g79
sg11
S'#166ae5'
p668
sbsS'192.168.1.25-192.168.1.15'
p669
(iprimitives
Link
p670
(dp671
g4
Nsg5
I01
sg6
g288
sg8
F1.0
sg9
g40
sg11
S'#166ae5'
p672
sbsS'192.168.1.187-192.168.2.3'
p673
(iprimitives
Link
p674
(dp675
g4
Nsg5
Nsg6
g178
sg8
F1.0
sg9
g144
sg11
S'#166ae5'
p676
sbsS'192.168.1.213-192.168.1.98'
p677
(iprimitives
Link
p678
(dp679
g4
Nsg5
Nsg6
S'192.168.1.98'
p680
sg8
F1.257
sg9
g267
sg11
S'#167fe5'
p681
sbsS'192.168.2.35-192.168.2.11'
p682
(iprimitives
Link
p683
(dp684
g4
Nsg5
Nsg6
g57
sg8
F1.0
sg9
g213
sg11
S'#166ae5'
p685
sbsS'192.168.1.218-192.168.1.208'
p686
(iprimitives
Link
p687
(dp688
g4
Nsg5
Nsg6
g34
sg8
F2.778
sg9
S'192.168.1.218'
p689
sg11
S'#16e5cd'
p690
sbsS'192.168.1.138-192.168.1.103'
p691
(iprimitives
Link
p692
(dp693
g4
Nsg5
Nsg6
g90
sg8
F1.0
sg9
g16
sg11
S'#166ae5'
p694
sbsS'192.168.2.35-192.168.2.17'
p695
(iprimitives
Link
p696
(dp697
g4
Nsg5
Nsg6
g58
sg8
F1.0
sg9
g213
sg11
S'#166ae5'
p698
sbsS'192.168.1.192-192.168.1.171'
p699
(iprimitives
Link
p700
(dp701
g4
Nsg5
Nsg6
g143
sg8
F1.0
sg9
g406
sg11
S'#166ae5'
p702
sbsS'192.168.1.187-192.168.2.45'
p703
(iprimitives
Link
p704
(dp705
g4
Nsg5
Nsg6
S'192.168.2.45'
p706
sg8
F1.02
sg9
g144
sg11
S'#166be5'
p707
sbsS'192.168.1.120-192.168.2.39'
p708
(iprimitives
Link
p709
(dp710
g4
Nsg5
Nsg6
S'192.168.2.39'
p711
sg8
F1.0
sg9
g302
sg11
S'#166ae5'
p712
sbsS'192.168.1.208-192.168.1.67'
p713
(iprimitives
Link
p714
(dp715
g4
Nsg5
Nsg6
g138
sg8
F1.351
sg9
g34
sg11
S'#1687e5'
p716
sbsS'192.168.1.233-192.168.1.184'
p717
(iprimitives
Link
p718
(dp719
g4
Nsg5
Nsg6
g63
sg8
F1.0
sg9
g17
sg11
S'#166ae5'
p720
sbsS'192.168.1.233-192.168.1.162'
p721
(iprimitives
Link
p722
(dp723
g4
Nsg5
Nsg6
g122
sg8
F1.0
sg9
g17
sg11
S'#166ae5'
p724
sbsS'192.168.1.66-192.168.2.7'
p725
(iprimitives
Link
p726
(dp727
g4
Nsg5
I01
sg6
g196
sg8
F1.0
sg9
g172
sg11
S'#166ae5'
p728
sbsS'192.168.1.166-192.168.1.22'
p729
(iprimitives
Link
p730
(dp731
g4
Nsg5
Nsg6
S'192.168.1.22'
p732
sg8
F1.0
sg9
g510
sg11
S'#166ae5'
p733
sbsS'192.168.2.42-192.168.2.41'
p734
(iprimitives
Link
p735
(dp736
g4
Nsg5
Nsg6
g95
sg8
F1.0
sg9
g79
sg11
S'#166ae5'
p737
sbsS'192.168.1.157-192.168.1.151'
p738
(iprimitives
Link
p739
(dp740
g4
Nsg5
Nsg6
S'192.168.1.151'
p741
sg8
F1.0
sg9
g163
sg11
S'#166ae5'
p742
sbsS'192.168.1.226-192.168.1.218'
p743
(iprimitives
Link
p744
(dp745
g4
Nsg5
Nsg6
g689
sg8
F1.15
sg9
g455
sg11
S'#1676e5'
p746
sbsS'192.168.1.185-192.168.1.138'
p747
(iprimitives
Link
p748
(dp749
g4
Nsg5
Nsg6
g16
sg8
F1.0
sg9
g52
sg11
S'#166ae5'
p750
sbsS'192.168.1.226-192.168.1.214'
p751
(iprimitives
Link
p752
(dp753
g4
Nsg5
Nsg6
g35
sg8
F1.057
sg9
g455
sg11
S'#166fe5'
p754
sbsS'192.168.1.66-192.168.2.8'
p755
(iprimitives
Link
p756
(dp757
g4
Nsg5
I01
sg6
g162
sg8
F1.0
sg9
g172
sg11
S'#166ae5'
p758
sbsS'192.168.1.174-192.168.1.95'
p759
(iprimitives
Link
p760
(dp761
g4
Nsg5
Nsg6
S'192.168.1.95'
p762
sg8
F1.626
sg9
g187
sg11
S'#169de5'
p763
sbsS'192.168.1.208-192.168.1.37'
p764
(iprimitives
Link
p765
(dp766
g4
Nsg5
Nsg6
g313
sg8
F1.321
sg9
g34
sg11
S'#1684e5'
p767
sbsS'192.168.2.36-192.168.2.11'
p768
(iprimitives
Link
p769
(dp770
g4
Nsg5
Nsg6
g57
sg8
F1.0
sg9
g219
sg11
S'#166ae5'
p771
sbsS'192.168.1.172-192.168.1.162'
p772
(iprimitives
Link
p773
(dp774
g4
Nsg5
Nsg6
g122
sg8
F1.0
sg9
g496
sg11
S'#166ae5'
p775
sbsS'192.168.1.47-192.168.2.45'
p776
(iprimitives
Link
p777
(dp778
g4
Nsg5
Nsg6
g706
sg8
F1.0
sg9
g628
sg11
S'#166ae5'
p779
sbsS'192.168.1.239-192.168.1.116'
p780
(iprimitives
Link
p781
(dp782
g4
Nsg5
Nsg6
g609
sg8
F1.0
sg9
S'192.168.1.239'
p783
sg11
S'#166ae5'
p784
sbsS'192.168.2.36-192.168.2.17'
p785
(iprimitives
Link
p786
(dp787
g4
Nsg5
Nsg6
g58
sg8
F1.0
sg9
g219
sg11
S'#166ae5'
p788
sbsS'192.168.1.226-192.168.1.208'
p789
(iprimitives
Link
p790
(dp791
g4
Nsg5
Nsg6
g34
sg8
F1.518
sg9
g455
sg11
S'#1695e5'
p792
sbsS'192.168.1.218-192.168.1.214'
p793
(iprimitives
Link
p794
(dp795
g4
Nsg5
Nsg6
g35
sg8
F1.154
sg9
g689
sg11
S'#1677e5'
p796
sbsS'192.168.1.58-192.168.1.47'
p797
(iprimitives
Link
p798
(dp799
g4
Nsg5
Nsg6
g628
sg8
F1.0
sg9
S'192.168.1.58'
p800
sg11
S'#166ae5'
p801
sbsS'192.168.1.128-192.168.2.40'
p802
(iprimitives
Link
p803
(dp804
g4
Nsg5
Nsg6
g412
sg8
F1.0
sg9
g308
sg11
S'#166ae5'
p805
sbsS'192.168.1.214-192.168.1.26'
p806
(iprimitives
Link
p807
(dp808
g4
Nsg5
Nsg6
g276
sg8
F1.934
sg9
g35
sg11
S'#16b7e5'
p809
sbsS'192.168.1.165-192.168.1.89'
p810
(iprimitives
Link
p811
(dp812
g4
Nsg5
Nsg6
g351
sg8
F3.063
sg9
g28
sg11
S'#95e516'
p813
sbsS'192.168.1.233-192.168.2.41'
p814
(iprimitives
Link
p815
(dp816
g4
Nsg5
Nsg6
g95
sg8
F1.0
sg9
g17
sg11
S'#166ae5'
p817
sbsS'192.168.1.183-192.168.1.23'
p818
(iprimitives
Link
p819
(dp820
g4
Nsg5
Nsg6
g224
sg8
F1.0
sg9
g51
sg11
S'#166ae5'
p821
sbsS'192.168.2.8-192.168.2.5'
p822
(iprimitives
Link
p823
(dp824
g4
Nsg5
Nsg6
g460
sg8
F1.0
sg9
g162
sg11
S'#166ae5'
p825
sbsS'192.168.1.225-192.168.1.40'
p826
(iprimitives
Link
p827
(dp828
g4
Nsg5
Nsg6
g386
sg8
F1.0
sg9
g201
sg11
S'#166ae5'
p829
sbsS'192.168.2.8-192.168.2.7'
p830
(iprimitives
Link
p831
(dp832
g4
Nsg5
I01
sg6
g196
sg8
F1.0
sg9
g162
sg11
S'#166ae5'
p833
sbsS'192.168.1.227-192.168.1.111'
p834
(iprimitives
Link
p835
(dp836
g4
Nsg5
Nsg6
g207
sg8
F1.02
sg9
g487
sg11
S'#166be5'
p837
sbsS'192.168.1.217-192.168.1.241'
p838
(iprimitives
Link
p839
(dp840
g4
Nsg5
Nsg6
g529
sg8
F1.257
sg9
S'192.168.1.217'
p841
sg11
S'#167fe5'
p842
sbsS'192.168.1.195-192.168.1.171'
p843
(iprimitives
Link
p844
(dp845
g4
Nsg5
Nsg6
g143
sg8
F7.413
sg9
g407
sg11
S'#e58116'
p846
sbsS'192.168.1.217-192.168.1.243'
p847
(iprimitives
Link
p848
(dp849
g4
Nsg5
Nsg6
g530
sg8
F1.112
sg9
g841
sg11
S'#1673e5'
p850
sbsS'192.168.1.124-192.168.1.103'
p851
(iprimitives
Link
p852
(dp853
g4
Nsg5
Nsg6
g90
sg8
F1.0
sg9
g68
sg11
S'#166ae5'
p854
sbsS'192.168.1.47-192.168.2.46'
p855
(iprimitives
Link
p856
(dp857
g4
Nsg5
Nsg6
S'192.168.2.46'
p858
sg8
F1.203
sg9
g628
sg11
S'#167be5'
p859
sbsS'192.168.1.187-192.168.2.4'
p860
(iprimitives
Link
p861
(dp862
g4
Nsg5
Nsg6
g149
sg8
F1.0
sg9
g144
sg11
S'#166ae5'
p863
sbsS'192.168.2.20-192.168.2.17'
p864
(iprimitives
Link
p865
(dp866
g4
Nsg5
Nsg6
g58
sg8
F1.016
sg9
S'192.168.2.20'
p867
sg11
S'#166be5'
p868
sbsS'192.168.1.179-192.168.1.174'
p869
(iprimitives
Link
p870
(dp871
g4
Nsg5
Nsg6
g187
sg8
F1.0
sg9
g7
sg11
S'#166ae5'
p872
sbsS'192.168.1.124-192.168.1.104'
p873
(iprimitives
Link
p874
(dp875
g4
Nsg5
Nsg6
g100
sg8
F1.0
sg9
g68
sg11
S'#166ae5'
p876
sbsS'192.168.1.172-192.168.1.124'
p877
(iprimitives
Link
p878
(dp879
g4
Nsg5
Nsg6
g68
sg8
F1.0
sg9
g496
sg11
S'#166ae5'
p880
sbsS'192.168.1.118-192.168.2.40'
p881
(iprimitives
Link
p882
(dp883
g4
Nsg5
Nsg6
g412
sg8
F1.0
sg9
g575
sg11
S'#166ae5'
p884
sbsS'192.168.1.208-192.168.1.98'
p885
(iprimitives
Link
p886
(dp887
g4
Nsg5
Nsg6
g680
sg8
F1.0
sg9
g34
sg11
S'#166ae5'
p888
sbsS'192.168.1.218-192.168.1.215'
p889
(iprimitives
Link
p890
(dp891
g4
Nsg5
Nsg6
g356
sg8
F1.217
sg9
g689
sg11
S'#167ce5'
p892
sbsS'192.168.1.192-192.168.2.4'
p893
(iprimitives
Link
p894
(dp895
g4
Nsg5
Nsg6
g149
sg8
F1.0
sg9
g406
sg11
S'#166ae5'
p896
sbsS'192.168.1.233-192.168.1.172'
p897
(iprimitives
Link
p898
(dp899
g4
Nsg5
Nsg6
g496
sg8
F1.0
sg9
g17
sg11
S'#166ae5'
p900
sbsS'192.168.2.39-192.168.2.38'
p901
(iprimitives
Link
p902
(dp903
g4
Nsg5
Nsg6
g523
sg8
F1.024
sg9
g711
sg11
S'#166ce5'
p904
sbsS'192.168.1.187-192.168.1.52'
p905
(iprimitives
Link
p906
(dp907
g4
Nsg5
Nsg6
g74
sg8
F1.0
sg9
g144
sg11
S'#166ae5'
p908
sbsS'192.168.1.238-192.168.1.232'
p909
(iprimitives
Link
p910
(dp911
g4
Nsg5
Nsg6
S'192.168.1.232'
p912
sg8
F1.0
sg9
S'192.168.1.238'
p913
sg11
S'#166ae5'
p914
sbsS'192.168.1.192-192.168.2.3'
p915
(iprimitives
Link
p916
(dp917
g4
Nsg5
Nsg6
g178
sg8
F1.0
sg9
g406
sg11
S'#166ae5'
p918
sbsS'192.168.1.171-192.168.2.31'
p919
(iprimitives
Link
p920
(dp921
g4
Nsg5
Nsg6
g84
sg8
F1.0
sg9
g143
sg11
S'#166ae5'
p922
sbsS'192.168.1.242-192.168.1.241'
p923
(iprimitives
Link
p924
(dp925
g4
Nsg5
Nsg6
g529
sg8
F2.557
sg9
S'192.168.1.242'
p926
sg11
S'#16e5e0'
p927
sbsS'192.168.1.208-192.168.1.26'
p928
(iprimitives
Link
p929
(dp930
g4
Nsg5
Nsg6
g276
sg8
F8.064
sg9
g34
sg11
S'#e56616'
p931
sbsS'192.168.1.124-192.168.2.41'
p932
(iprimitives
Link
p933
(dp934
g4
Nsg5
Nsg6
g95
sg8
F1.0
sg9
g68
sg11
S'#166ae5'
p935
sbsS'192.168.1.208-192.168.1.20'
p936
(iprimitives
Link
p937
(dp938
g4
Nsg5
Nsg6
S'192.168.1.20'
p939
sg8
F1.0
sg9
g34
sg11
S'#166ae5'
p940
sbsS'192.168.1.157-192.168.1.152'
p941
(iprimitives
Link
p942
(dp943
g4
Nsg5
I01
sg6
g41
sg8
F1.0
sg9
g163
sg11
S'#166ae5'
p944
sbsS'192.168.1.110-192.168.1.101'
p945
(iprimitives
Link
p946
(dp947
g4
Nsg5
Nsg6
S'192.168.1.101'
p948
sg8
F1.016
sg9
g301
sg11
S'#166be5'
p949
sbsS'192.168.1.241-192.168.1.232'
p950
(iprimitives
Link
p951
(dp952
g4
Nsg5
Nsg6
g912
sg8
F1.0
sg9
g529
sg11
S'#166ae5'
p953
sbsS'192.168.1.226-192.168.1.67'
p954
(iprimitives
Link
p955
(dp956
g4
Nsg5
Nsg6
g138
sg8
F1.223
sg9
g455
sg11
S'#167ce5'
p957
sbsS'192.168.1.155-192.168.1.166'
p958
g508
sS'192.168.1.152-192.168.1.66'
p959
(iprimitives
Link
p960
(dp961
g4
Nsg5
I01
sg6
g172
sg8
F1.0
sg9
g41
sg11
S'#166ae5'
p962
sbsS'192.168.1.241-192.168.1.238'
p963
(iprimitives
Link
p964
(dp965
g4
Nsg5
Nsg6
g913
sg8
F1.012
sg9
g529
sg11
S'#166be5'
p966
sbsS'192.168.1.23-192.168.2.10'
p967
(iprimitives
Link
p968
(dp969
g4
Nsg5
Nsg6
g111
sg8
F1.0
sg9
g224
sg11
S'#166ae5'
p970
sbsS'192.168.1.183-192.168.1.174'
p971
(iprimitives
Link
p972
(dp973
g4
Nsg5
Nsg6
g187
sg8
F1.0
sg9
g51
sg11
S'#166ae5'
p974
sbsS'192.168.1.202-192.168.1.179'
p975
(iprimitives
Link
p976
(dp977
g4
Nsg5
Nsg6
g7
sg8
F1.0
sg9
g659
sg11
S'#166ae5'
p978
sbsS'192.168.1.101-192.168.1.10'
p979
(iprimitives
Link
p980
(dp981
g4
Nsg5
Nsg6
g560
sg8
F1.0
sg9
g948
sg11
S'#166ae5'
p982
sbsS'192.168.1.218-192.168.1.67'
p983
(iprimitives
Link
p984
(dp985
g4
Nsg5
Nsg6
g138
sg8
F1.142
sg9
g689
sg11
S'#1676e5'
p986
sbsS'192.168.1.116-192.168.1.113'
p987
g606
sS'192.168.1.124-192.168.2.42'
p988
(iprimitives
Link
p989
(dp990
g4
Nsg5
Nsg6
g79
sg8
F1.0
sg9
g68
sg11
S'#166ae5'
p991
sbsS'192.168.1.138-192.168.2.42'
p992
(iprimitives
Link
p993
(dp994
g4
Nsg5
Nsg6
g79
sg8
F1.0
sg9
g16
sg11
S'#166ae5'
p995
sbsS'192.168.1.225-192.168.1.100'
p996
(iprimitives
Link
p997
(dp998
g4
Nsg5
Nsg6
S'192.168.1.100'
p999
sg8
F1.0
sg9
g201
sg11
S'#166ae5'
p1000
sbsS'192.168.1.173-192.168.1.39'
p1001
(iprimitives
Link
p1002
(dp1003
g4
Nsg5
Nsg6
S'192.168.1.39'
p1004
sg8
F1.0
sg9
g173
sg11
S'#166ae5'
p1005
sbsS'192.168.2.35-192.168.2.33'
p1006
(iprimitives
Link
p1007
(dp1008
g4
Nsg5
Nsg6
g237
sg8
F1.0
sg9
g213
sg11
S'#166ae5'
p1009
sbsS'192.168.1.171-192.168.1.52'
p1010
(iprimitives
Link
p1011
(dp1012
g4
Nsg5
Nsg6
g74
sg8
F1.0
sg9
g143
sg11
S'#166ae5'
p1013
sbsS'192.168.1.192-192.168.2.31'
p1014
(iprimitives
Link
p1015
(dp1016
g4
Nsg5
Nsg6
g84
sg8
F1.0
sg9
g406
sg11
S'#166ae5'
p1017
sbsS'192.168.1.245-192.168.1.143'
p1018
(iprimitives
Link
p1019
(dp1020
g4
Nsg5
Nsg6
S'192.168.1.143'
p1021
sg8
F1.0
sg9
g283
sg11
S'#166ae5'
p1022
sbsS'192.168.1.199-192.168.1.159'
p1023
(iprimitives
Link
p1024
(dp1025
g4
Nsg5
Nsg6
g561
sg8
F1.0
sg9
g23
sg11
S'#166ae5'
p1026
sbsS'192.168.1.215-192.168.1.26'
p1027
(iprimitives
Link
p1028
(dp1029
g4
Nsg5
Nsg6
g276
sg8
F1.839
sg9
g356
sg11
S'#16afe5'
p1030
sbsS'192.168.1.101-192.168.2.5'
p1031
(iprimitives
Link
p1032
(dp1033
g4
Nsg5
Nsg6
g460
sg8
F1.028
sg9
g948
sg11
S'#166ce5'
p1034
sbsS'192.168.1.197-192.168.1.111'
p1035
(iprimitives
Link
p1036
(dp1037
g4
Nsg5
Nsg6
g207
sg8
F1.067
sg9
g106
sg11
S'#166fe5'
p1038
sbsS'192.168.1.101-192.168.2.6'
p1039
(iprimitives
Link
p1040
(dp1041
g4
Nsg5
Nsg6
g396
sg8
F1.028
sg9
g948
sg11
S'#166ce5'
p1042
sbsS'192.168.1.249-192.168.2.43'
p1043
(iprimitives
Link
p1044
(dp1045
g4
Nsg5
Nsg6
S'192.168.2.43'
p1046
sg8
F1.171
sg9
g629
sg11
S'#1678e5'
p1047
sbsS'192.168.1.15-192.168.2.7'
p1048
(iprimitives
Link
p1049
(dp1050
g4
Nsg5
I01
sg6
g196
sg8
F1.723
sg9
g288
sg11
S'#16a5e5'
p1051
sbsS'192.168.1.159-192.168.1.126'
p1052
(iprimitives
Link
p1053
(dp1054
g4
I01
sg5
Nsg6
g85
sg8
F1.012
sg9
g561
sg11
S'#166be5'
p1055
sbsS'192.168.1.15-192.168.2.2'
p1056
(iprimitives
Link
p1057
(dp1058
g4
Nsg5
Nsg6
S'192.168.2.2'
p1059
sg8
F2.526
sg9
g288
sg11
S'#16e5e2'
p1060
sbsS'192.168.1.249-192.168.2.46'
p1061
(iprimitives
Link
p1062
(dp1063
g4
Nsg5
Nsg6
g858
sg8
F1.401
sg9
g629
sg11
S'#168be5'
p1064
sbsS'192.168.1.170-192.168.1.167'
p1065
(iprimitives
Link
p1066
(dp1067
g4
Nsg5
Nsg6
g127
sg8
F1.0
sg9
g501
sg11
S'#166ae5'
p1068
sbsS'192.168.1.15-192.168.2.8'
p1069
(iprimitives
Link
p1070
(dp1071
g4
Nsg5
I01
sg6
g162
sg8
F1.723
sg9
g288
sg11
S'#16a5e5'
p1072
sbsS'192.168.1.202-192.168.1.174'
p1073
(iprimitives
Link
p1074
(dp1075
g4
Nsg5
Nsg6
g187
sg8
F1.0
sg9
g659
sg11
S'#166ae5'
p1076
sbsS'192.168.1.165-192.168.1.147'
p1077
(iprimitives
Link
p1078
(dp1079
g4
Nsg5
Nsg6
g446
sg8
F1.0
sg9
g28
sg11
S'#166ae5'
p1080
sbsS'192.168.1.177-192.168.1.167'
p1081
(iprimitives
Link
p1082
(dp1083
g4
Nsg5
Nsg6
g127
sg8
F1.0
sg9
g342
sg11
S'#166ae5'
p1084
sbsS'192.168.1.170-192.168.2.48'
p1085
(iprimitives
Link
p1086
(dp1087
g4
Nsg5
Nsg6
S'192.168.2.48'
p1088
sg8
F1.154
sg9
g501
sg11
S'#1677e5'
p1089
sbsS'192.168.1.236-192.168.1.233'
p1090
(iprimitives
Link
p1091
(dp1092
g4
Nsg5
Nsg6
g17
sg8
F1.0
sg9
g46
sg11
S'#166ae5'
p1093
sbsS'192.168.2.7-192.168.2.3'
p1094
(iprimitives
Link
p1095
(dp1096
g4
Nsg5
Nsg6
g178
sg8
F1.164
sg9
g196
sg11
S'#1677e5'
p1097
sbsS'192.168.1.233-192.168.1.103'
p1098
(iprimitives
Link
p1099
(dp1100
g4
Nsg5
Nsg6
g90
sg8
F1.0
sg9
g17
sg11
S'#166ae5'
p1101
sbsS'192.168.1.104-192.168.1.103'
p1102
(iprimitives
Link
p1103
(dp1104
g4
Nsg5
Nsg6
g90
sg8
F1.0
sg9
g100
sg11
S'#166ae5'
p1105
sbsS'192.168.1.103-192.168.2.41'
p1106
(iprimitives
Link
p1107
(dp1108
g4
Nsg5
Nsg6
g95
sg8
F1.0
sg9
g90
sg11
S'#166ae5'
p1109
sbsS'192.168.1.215-192.168.1.208'
p1110
(iprimitives
Link
p1111
(dp1112
g4
Nsg5
Nsg6
g34
sg8
F9.383
sg9
g356
sg11
S'#e53016'
p1113
sbsS'192.168.1.202-192.168.1.201'
p1114
(iprimitives
Link
p1115
(dp1116
g4
Nsg5
Nsg6
g10
sg8
F1.0
sg9
g659
sg11
S'#166ae5'
p1117
sbsS'192.168.1.236-192.168.1.104'
p1118
(iprimitives
Link
p1119
(dp1120
g4
Nsg5
Nsg6
g100
sg8
F1.0
sg9
g46
sg11
S'#166ae5'
p1121
sbsS'192.168.1.185-192.168.1.124'
p1122
(iprimitives
Link
p1123
(dp1124
g4
Nsg5
Nsg6
g68
sg8
F1.0
sg9
g52
sg11
S'#166ae5'
p1125
sbsS'192.168.1.235-192.168.1.147'
p1126
(iprimitives
Link
p1127
(dp1128
g4
Nsg5
Nsg6
g446
sg8
F1.0
sg9
g29
sg11
S'#166ae5'
p1129
sbsS'192.168.1.10-192.168.2.6'
p1130
(iprimitives
Link
p1131
(dp1132
g4
Nsg5
Nsg6
g396
sg8
F1.0
sg9
g560
sg11
S'#166ae5'
p1133
sbsS'192.168.1.10-192.168.2.5'
p1134
(iprimitives
Link
p1135
(dp1136
g4
Nsg5
Nsg6
g460
sg8
F1.0
sg9
g560
sg11
S'#166ae5'
p1137
sbsS'192.168.1.236-192.168.1.103'
p1138
(iprimitives
Link
p1139
(dp1140
g4
Nsg5
Nsg6
g90
sg8
F1.0
sg9
g46
sg11
S'#166ae5'
p1141
sbsS'192.168.1.184-192.168.2.41'
p1142
(iprimitives
Link
p1143
(dp1144
g4
Nsg5
Nsg6
g95
sg8
F1.0
sg9
g63
sg11
S'#166ae5'
p1145
sbsS'192.168.1.202-192.168.2.10'
p1146
(iprimitives
Link
p1147
(dp1148
g4
Nsg5
Nsg6
g111
sg8
F1.0
sg9
g659
sg11
S'#166ae5'
p1149
sbsS'192.168.1.184-192.168.2.42'
p1150
(iprimitives
Link
p1151
(dp1152
g4
Nsg5
Nsg6
g79
sg8
F1.0
sg9
g63
sg11
S'#166ae5'
p1153
sbsS'192.168.1.187-192.168.2.31'
p1154
(iprimitives
Link
p1155
(dp1156
g4
Nsg5
Nsg6
g84
sg8
F1.0
sg9
g144
sg11
S'#166ae5'
p1157
sbsS'192.168.1.172-192.168.2.41'
p1158
(iprimitives
Link
p1159
(dp1160
g4
Nsg5
Nsg6
g95
sg8
F1.0
sg9
g496
sg11
S'#166ae5'
p1161
sbsS'192.168.1.172-192.168.2.42'
p1162
(iprimitives
Link
p1163
(dp1164
g4
Nsg5
Nsg6
g79
sg8
F1.0
sg9
g496
sg11
S'#166ae5'
p1165
sbsS'192.168.1.138-192.168.1.124'
p1166
(iprimitives
Link
p1167
(dp1168
g4
Nsg5
Nsg6
g68
sg8
F1.0
sg9
g16
sg11
S'#166ae5'
p1169
sbsS'192.168.1.171-192.168.2.4'
p1170
(iprimitives
Link
p1171
(dp1172
g4
Nsg5
Nsg6
g149
sg8
F1.0
sg9
g143
sg11
S'#166ae5'
p1173
sbsS'192.168.1.213-192.168.1.80'
p1174
(iprimitives
Link
p1175
(dp1176
g4
Nsg5
Nsg6
g474
sg8
F1.765
sg9
g267
sg11
S'#16a9e5'
p1177
sbsS'192.168.1.183-192.168.1.179'
p1178
(iprimitives
Link
p1179
(dp1180
g4
Nsg5
Nsg6
g7
sg8
F1.0
sg9
g51
sg11
S'#166ae5'
p1181
sbsS'192.168.1.177-192.168.1.170'
p1182
(iprimitives
Link
p1183
(dp1184
g4
Nsg5
Nsg6
g501
sg8
F1.0
sg9
g342
sg11
S'#166ae5'
p1185
sbsS'192.168.1.171-192.168.2.3'
p1186
(iprimitives
Link
p1187
(dp1188
g4
Nsg5
Nsg6
g178
sg8
F1.0
sg9
g143
sg11
S'#166ae5'
p1189
sbsS'192.168.1.172-192.168.1.103'
p1190
(iprimitives
Link
p1191
(dp1192
g4
Nsg5
Nsg6
g90
sg8
F1.0
sg9
g496
sg11
S'#166ae5'
p1193
sbsS'192.168.1.236-192.168.1.185'
p1194
(iprimitives
Link
p1195
(dp1196
g4
Nsg5
Nsg6
g52
sg8
F1.0
sg9
g46
sg11
S'#166ae5'
p1197
sbsS'192.168.1.51-192.168.1.198'
p1198
(iprimitives
Link
p1199
(dp1200
g4
Nsg5
Nsg6
g22
sg8
F1.154
sg9
g429
sg11
S'#1677e5'
p1201
sbsS'192.168.1.183-192.168.2.10'
p1202
(iprimitives
Link
p1203
(dp1204
g4
Nsg5
Nsg6
g111
sg8
F1.0
sg9
g51
sg11
S'#166ae5'
p1205
sbsS'192.168.1.25-192.168.2.7'
p1206
(iprimitives
Link
p1207
(dp1208
g4
Nsg5
I01
sg6
g196
sg8
F1.356
sg9
g40
sg11
S'#1687e5'
p1209
sbsS'192.168.1.58-192.168.2.45'
p1210
(iprimitives
Link
p1211
(dp1212
g4
Nsg5
Nsg6
g706
sg8
F1.0
sg9
g800
sg11
S'#166ae5'
p1213
sbsS'192.168.1.205-192.168.1.97'
p1214
(iprimitives
Link
p1215
(dp1216
g4
Nsg5
Nsg6
g547
sg8
F1.0
sg9
S'192.168.1.205'
p1217
sg11
S'#166ae5'
p1218
sbsS'192.168.1.172-192.168.1.104'
p1219
(iprimitives
Link
p1220
(dp1221
g4
Nsg5
Nsg6
g100
sg8
F1.0
sg9
g496
sg11
S'#166ae5'
p1222
sbsS'192.168.1.47-192.168.2.43'
p1223
(iprimitives
Link
p1224
(dp1225
g4
Nsg5
Nsg6
g1046
sg8
F1.905
sg9
g628
sg11
S'#16b5e5'
p1226
sbsS'192.168.1.79-192.168.2.17'
p1227
(iprimitives
Link
p1228
(dp1229
g4
Nsg5
Nsg6
g58
sg8
F1.0
sg9
g214
sg11
S'#166ae5'
p1230
sbsS'192.168.1.25-192.168.2.8'
p1231
(iprimitives
Link
p1232
(dp1233
g4
Nsg5
I01
sg6
g162
sg8
F1.356
sg9
g40
sg11
S'#1687e5'
p1234
sbsS'192.168.1.113-192.168.1.59'
p1235
(iprimitives
Link
p1236
(dp1237
g4
Nsg5
Nsg6
g546
sg8
F1.0
sg9
g608
sg11
S'#166ae5'
p1238
sbsS'192.168.1.79-192.168.2.11'
p1239
(iprimitives
Link
p1240
(dp1241
g4
Nsg5
Nsg6
g57
sg8
F1.0
sg9
g214
sg11
S'#166ae5'
p1242
sbsS'192.168.1.185-192.168.1.103'
p1243
(iprimitives
Link
p1244
(dp1245
g4
Nsg5
Nsg6
g90
sg8
F1.0
sg9
g52
sg11
S'#166ae5'
p1246
sbsS'192.168.1.104-192.168.2.42'
p1247
(iprimitives
Link
p1248
(dp1249
g4
Nsg5
Nsg6
g79
sg8
F1.0
sg9
g100
sg11
S'#166ae5'
p1250
sbsS'192.168.1.110-192.168.2.39'
p1251
(iprimitives
Link
p1252
(dp1253
g4
Nsg5
Nsg6
g711
sg8
F1.0
sg9
g301
sg11
S'#166ae5'
p1254
sbsS'192.168.1.100-192.168.1.40'
p1255
(iprimitives
Link
p1256
(dp1257
g4
Nsg5
Nsg6
g386
sg8
F4.397
sg9
g999
sg11
S'#cce516'
p1258
sbsS'192.168.1.183-192.168.1.185'
p1259
g49
sS'192.168.1.89-192.168.1.62'
p1260
(iprimitives
Link
p1261
(dp1262
g4
Nsg5
Nsg6
S'192.168.1.62'
p1263
sg8
F1.0
sg9
g351
sg11
S'#166ae5'
p1264
sbsS'192.168.1.41-192.168.2.40'
p1265
(iprimitives
Link
p1266
(dp1267
g4
Nsg5
Nsg6
g412
sg8
F1.0
sg9
g307
sg11
S'#166ae5'
p1268
sbsS'192.168.1.192-192.168.1.187'
p1269
(iprimitives
Link
p1270
(dp1271
g4
Nsg5
Nsg6
g144
sg8
F1.0
sg9
g406
sg11
S'#166ae5'
p1272
sbsS'192.168.1.152-192.168.2.8'
p1273
(iprimitives
Link
p1274
(dp1275
g4
Nsg5
I01
sg6
g162
sg8
F1.0
sg9
g41
sg11
S'#166ae5'
p1276
sbsS'192.168.1.126-192.168.1.159'
p1277
g1053
sS'192.168.1.212-192.168.1.89'
p1278
(iprimitives
Link
p1279
(dp1280
g4
Nsg5
Nsg6
g351
sg8
F2.03
sg9
S'192.168.1.212'
p1281
sg11
S'#16bfe5'
p1282
sbsS'192.168.1.172-192.168.1.138'
p1283
(iprimitives
Link
p1284
(dp1285
g4
Nsg5
Nsg6
g16
sg8
F1.0
sg9
g496
sg11
S'#166ae5'
p1286
sbsS'192.168.1.32-192.168.1.25'
p1287
(iprimitives
Link
p1288
(dp1289
g4
Nsg5
Nsg6
g40
sg8
F5.38
sg9
S'192.168.1.32'
p1290
sg11
S'#e5d516'
p1291
sbsS'192.168.1.236-192.168.1.138'
p1292
(iprimitives
Link
p1293
(dp1294
g4
Nsg5
Nsg6
g16
sg8
F1.0
sg9
g46
sg11
S'#166ae5'
p1295
sbsS'192.168.1.214-192.168.1.213'
p1296
(iprimitives
Link
p1297
(dp1298
g4
Nsg5
Nsg6
g267
sg8
F1.864
sg9
g35
sg11
S'#16b1e5'
p1299
sbsS'192.168.1.166-192.168.1.143'
p1300
(iprimitives
Link
p1301
(dp1302
g4
Nsg5
Nsg6
g1021
sg8
F1.058
sg9
g510
sg11
S'#166fe5'
p1303
sbsS'192.168.1.231-192.168.1.230'
p1304
(iprimitives
Link
p1305
(dp1306
g4
Nsg5
Nsg6
g202
sg8
F1.0
sg9
g387
sg11
S'#166ae5'
p1307
sbsS'192.168.1.152-192.168.2.7'
p1308
(iprimitives
Link
p1309
(dp1310
g4
Nsg5
I01
sg6
g196
sg8
F1.0
sg9
g41
sg11
S'#166ae5'
p1311
sbsS'192.168.1.226-192.168.1.213'
p1312
(iprimitives
Link
p1313
(dp1314
g4
Nsg5
Nsg6
g267
sg8
F1.506
sg9
g455
sg11
S'#1694e5'
p1315
sbsS'192.168.1.224-192.168.1.41'
p1316
(iprimitives
Link
p1317
(dp1318
g4
Nsg5
Nsg6
g307
sg8
F1.0
sg9
S'192.168.1.224'
p1319
sg11
S'#166ae5'
p1320
sbsS'192.168.1.118-192.168.1.41'
p1321
(iprimitives
Link
p1322
(dp1323
g4
Nsg5
Nsg6
g307
sg8
F1.0
sg9
g575
sg11
S'#166ae5'
p1324
sbsS'192.168.1.177-192.168.1.165'
p1325
(iprimitives
Link
p1326
(dp1327
g4
Nsg5
Nsg6
g28
sg8
F1.0
sg9
g342
sg11
S'#166ae5'
p1328
sbsS'192.168.1.202-192.168.1.23'
p1329
(iprimitives
Link
p1330
(dp1331
g4
Nsg5
Nsg6
g224
sg8
F1.0
sg9
g659
sg11
S'#166ae5'
p1332
sbsS'192.168.1.138-192.168.2.41'
p1333
(iprimitives
Link
p1334
(dp1335
g4
Nsg5
Nsg6
g95
sg8
F1.0
sg9
g16
sg11
S'#166ae5'
p1336
sbsS'192.168.1.162-192.168.1.104'
p1337
(iprimitives
Link
p1338
(dp1339
g4
Nsg5
Nsg6
g100
sg8
F1.0
sg9
g122
sg11
S'#166ae5'
p1340
sbsS'192.168.1.170-192.168.1.147'
p1341
(iprimitives
Link
p1342
(dp1343
g4
Nsg5
Nsg6
g446
sg8
F1.0
sg9
g501
sg11
S'#166ae5'
p1344
sbsS'192.168.2.38-192.168.2.37'
p1345
(iprimitives
Link
p1346
(dp1347
g4
Nsg5
Nsg6
g469
sg8
F1.0
sg9
g523
sg11
S'#166ae5'
p1348
sbsS'192.168.1.235-192.168.1.170'
p1349
(iprimitives
Link
p1350
(dp1351
g4
Nsg5
Nsg6
g501
sg8
F1.0
sg9
g29
sg11
S'#166ae5'
p1352
sbsS'192.168.1.157-192.168.1.15'
p1353
(iprimitives
Link
p1354
(dp1355
g4
Nsg5
I01
sg6
g288
sg8
F1.635
sg9
g163
sg11
S'#169ee5'
p1356
sbsS'192.168.1.198-192.168.1.37'
p1357
(iprimitives
Link
p1358
(dp1359
g4
Nsg5
Nsg6
g313
sg8
F1.032
sg9
g22
sg11
S'#166ce5'
p1360
sbsS'192.168.1.201-192.168.2.10'
p1361
(iprimitives
Link
p1362
(dp1363
g4
Nsg5
Nsg6
g111
sg8
F1.0
sg9
g10
sg11
S'#166ae5'
p1364
sbsS'192.168.1.167-192.168.1.165'
p1365
(iprimitives
Link
p1366
(dp1367
g4
Nsg5
Nsg6
g28
sg8
F1.0
sg9
g127
sg11
S'#166ae5'
p1368
sbsS'192.168.1.162-192.168.1.103'
p1369
(iprimitives
Link
p1370
(dp1371
g4
Nsg5
Nsg6
g90
sg8
F1.0
sg9
g122
sg11
S'#166ae5'
p1372
sbsS'192.168.1.70-192.168.2.20'
p1373
(iprimitives
Link
p1374
(dp1375
g4
Nsg5
Nsg6
g867
sg8
F1.0
sg9
S'192.168.1.70'
p1376
sg11
S'#166ae5'
p1377
sbsS'192.168.1.184-192.168.1.138'
p1378
(iprimitives
Link
p1379
(dp1380
g4
Nsg5
Nsg6
g16
sg8
F1.0
sg9
g63
sg11
S'#166ae5'
p1381
sbs.