(dp0
S'192.168.1.85-192.168.1.12'
p1
(iprimitives
Link
p2
(dp3
S'backbone'
p4
NsS'cable'
p5
NsS'ap2'
p6
S'192.168.1.12'
p7
sS'ap1'
p8
S'192.168.1.85'
p9
sS'color'
p10
S'#1617e5'
p11
sS'lq'
p12
F1.0
sbsS'192.168.1.233-192.168.1.138'
p13
(iprimitives
Link
p14
(dp15
g4
Nsg5
Nsg6
S'192.168.1.138'
p16
sg8
S'192.168.1.233'
p17
sg10
S'#1617e5'
p18
sg12
F1.0
sbsS'192.168.1.199-192.168.1.198'
p19
(iprimitives
Link
p20
(dp21
g4
Nsg5
Nsg6
S'192.168.1.198'
p22
sg8
S'192.168.1.199'
p23
sg10
S'#1621e5'
p24
sg12
F0.988
sbsS'192.168.2.36-192.168.2.11'
p25
(iprimitives
Link
p26
(dp27
g4
Nsg5
Nsg6
S'192.168.2.11'
p28
sg8
S'192.168.2.36'
p29
sg10
S'#1617e5'
p30
sg12
F1.0
sbsS'192.168.1.179-192.168.1.127'
p31
(iprimitives
Link
p32
(dp33
g4
Nsg5
Nsg6
S'192.168.1.127'
p34
sg8
S'192.168.1.179'
p35
sg10
S'#1631e5'
p36
sg12
F0.969
sbsS'192.168.1.185-192.168.1.183'
p37
(iprimitives
Link
p38
(dp39
g4
I01
sg5
Nsg6
S'192.168.1.183'
p40
sg8
S'192.168.1.185'
p41
sg10
S'#1617e5'
p42
sg12
F1.0
sbsS'192.168.2.17-192.168.2.11'
p43
(iprimitives
Link
p44
(dp45
g4
Nsg5
Nsg6
g28
sg8
S'192.168.2.17'
p46
sg10
S'#1617e5'
p47
sg12
F1.0
sbsS'192.168.1.201-192.168.1.179'
p48
(iprimitives
Link
p49
(dp50
g4
Nsg5
Nsg6
g35
sg8
S'192.168.1.201'
p51
sg10
S'#1617e5'
p52
sg12
F1.0
sbsS'192.168.1.184-192.168.1.124'
p53
(iprimitives
Link
p54
(dp55
g4
Nsg5
Nsg6
S'192.168.1.124'
p56
sg8
S'192.168.1.184'
p57
sg10
S'#1617e5'
p58
sg12
F1.0
sbsS'192.168.1.52-192.168.1.46'
p59
(iprimitives
Link
p60
(dp61
g4
Nsg5
Nsg6
S'192.168.1.46'
p62
sg8
S'192.168.1.52'
p63
sg10
S'#1617e5'
p64
sg12
F1.0
sbsS'192.168.1.185-192.168.2.42'
p65
(iprimitives
Link
p66
(dp67
g4
Nsg5
Nsg6
S'192.168.2.42'
p68
sg8
g41
sg10
S'#1617e5'
p69
sg12
F1.0
sbsS'192.168.1.103-192.168.2.41'
p70
(iprimitives
Link
p71
(dp72
g4
Nsg5
Nsg6
S'192.168.2.41'
p73
sg8
S'192.168.1.103'
p74
sg10
S'#1617e5'
p75
sg12
F1.0
sbsS'192.168.1.103-192.168.2.42'
p76
(iprimitives
Link
p77
(dp78
g4
Nsg5
Nsg6
g68
sg8
g74
sg10
S'#1617e5'
p79
sg12
F1.0
sbsS'192.168.1.185-192.168.2.41'
p80
(iprimitives
Link
p81
(dp82
g4
Nsg5
Nsg6
g73
sg8
g41
sg10
S'#1617e5'
p83
sg12
F1.0
sbsS'192.168.1.185-192.168.1.104'
p84
(iprimitives
Link
p85
(dp86
g4
Nsg5
Nsg6
S'192.168.1.104'
p87
sg8
g41
sg10
S'#1617e5'
p88
sg12
F1.0
sbsS'192.168.1.197-192.168.1.155'
p89
(iprimitives
Link
p90
(dp91
g4
I01
sg5
Nsg6
S'192.168.1.155'
p92
sg8
S'192.168.1.197'
p93
sg10
S'#1617e5'
p94
sg12
F1.0
sbsS'192.168.2.11-192.168.2.10'
p95
(iprimitives
Link
p96
(dp97
g4
Nsg5
Nsg6
S'192.168.2.10'
p98
sg8
g28
sg10
S'#1617e5'
p99
sg12
F1.0
sbsS'192.168.1.235-192.168.1.165'
p100
(iprimitives
Link
p101
(dp102
g4
Nsg5
Nsg6
S'192.168.1.165'
p103
sg8
S'192.168.1.235'
p104
sg10
S'#1617e5'
p105
sg12
F1.0
sbsS'192.168.1.184-192.168.1.162'
p106
(iprimitives
Link
p107
(dp108
g4
Nsg5
Nsg6
S'192.168.1.162'
p109
sg8
g57
sg10
S'#1617e5'
p110
sg12
F1.0
sbsS'192.168.1.135-192.168.1.90'
p111
(iprimitives
Link
p112
(dp113
g4
Nsg5
Nsg6
S'192.168.1.90'
p114
sg8
S'192.168.1.135'
p115
sg10
S'#1652e5'
p116
sg12
F0.929
sbsS'192.168.1.214-192.168.1.67'
p117
(iprimitives
Link
p118
(dp119
g4
Nsg5
Nsg6
S'192.168.1.67'
p120
sg8
S'192.168.1.214'
p121
sg10
S'#1617e5'
p122
sg12
F1.0
sbsS'192.168.1.187-192.168.1.171'
p123
(iprimitives
Link
p124
(dp125
g4
Nsg5
Nsg6
S'192.168.1.171'
p126
sg8
S'192.168.1.187'
p127
sg10
S'#1617e5'
p128
sg12
F1.0
sbsS'192.168.1.138-192.168.1.104'
p129
(iprimitives
Link
p130
(dp131
g4
Nsg5
Nsg6
g87
sg8
g16
sg10
S'#1617e5'
p132
sg12
F1.0
sbsS'192.168.1.236-192.168.1.184'
p133
(iprimitives
Link
p134
(dp135
g4
Nsg5
Nsg6
g57
sg8
S'192.168.1.236'
p136
sg10
S'#1617e5'
p137
sg12
F1.0
sbsS'192.168.1.157-192.168.2.8'
p138
(iprimitives
Link
p139
(dp140
g4
Nsg5
I01
sg6
S'192.168.2.8'
p141
sg8
S'192.168.1.157'
p142
sg10
S'#1617e5'
p143
sg12
F1.0
sbsS'192.168.1.201-192.168.1.183'
p144
(iprimitives
Link
p145
(dp146
g4
Nsg5
Nsg6
g40
sg8
g51
sg10
S'#1617e5'
p147
sg12
F1.0
sbsS'192.168.1.173-192.168.1.66'
p148
(iprimitives
Link
p149
(dp150
g4
Nsg5
Nsg6
S'192.168.1.66'
p151
sg8
S'192.168.1.173'
p152
sg10
S'#1617e5'
p153
sg12
F1.0
sbsS'192.168.1.157-192.168.1.66'
p154
(iprimitives
Link
p155
(dp156
g4
Nsg5
I01
sg6
g151
sg8
g142
sg10
S'#1617e5'
p157
sg12
F1.0
sbsS'192.168.1.174-192.168.2.10'
p158
(iprimitives
Link
p159
(dp160
g4
Nsg5
Nsg6
g98
sg8
S'192.168.1.174'
p161
sg10
S'#1617e5'
p162
sg12
F1.0
sbsS'192.168.1.19-192.168.2.17'
p163
(iprimitives
Link
p164
(dp165
g4
Nsg5
Nsg6
g46
sg8
S'192.168.1.19'
p166
sg10
S'#1617e5'
p167
sg12
F1.0
sbsS'192.168.1.230-192.168.1.225'
p168
(iprimitives
Link
p169
(dp170
g4
Nsg5
Nsg6
S'192.168.1.225'
p171
sg8
S'192.168.1.230'
p172
sg10
S'#1617e5'
p173
sg12
F1.0
sbsS'192.168.1.172-192.168.1.124'
p174
(iprimitives
Link
p175
(dp176
g4
Nsg5
Nsg6
g56
sg8
S'192.168.1.172'
p177
sg10
S'#1617e5'
p178
sg12
F1.0
sbsS'192.168.1.201-192.168.1.23'
p179
(iprimitives
Link
p180
(dp181
g4
Nsg5
Nsg6
S'192.168.1.23'
p182
sg8
g51
sg10
S'#1617e5'
p183
sg12
F1.0
sbsS'192.168.1.162-192.168.1.138'
p184
(iprimitives
Link
p185
(dp186
g4
Nsg5
Nsg6
g16
sg8
g109
sg10
S'#1617e5'
p187
sg12
F1.0
sbsS'192.168.1.172-192.168.1.122'
p188
(iprimitives
Link
p189
(dp190
g4
Nsg5
Nsg6
S'192.168.1.122'
p191
sg8
g177
sg10
S'#164be5'
p192
sg12
F0.937
sbsS'192.168.1.162-192.168.2.41'
p193
(iprimitives
Link
p194
(dp195
g4
Nsg5
Nsg6
g73
sg8
g109
sg10
S'#1617e5'
p196
sg12
F1.0
sbsS'192.168.1.184-192.168.1.104'
p197
(iprimitives
Link
p198
(dp199
g4
Nsg5
Nsg6
g87
sg8
g57
sg10
S'#1617e5'
p200
sg12
F1.0
sbsS'192.168.1.162-192.168.2.42'
p201
(iprimitives
Link
p202
(dp203
g4
Nsg5
Nsg6
g68
sg8
g109
sg10
S'#1617e5'
p204
sg12
F1.0
sbsS'192.168.1.184-192.168.1.103'
p205
(iprimitives
Link
p206
(dp207
g4
Nsg5
Nsg6
g74
sg8
g57
sg10
S'#1617e5'
p208
sg12
F1.0
sbsS'192.168.1.214-192.168.1.112'
p209
(iprimitives
Link
p210
(dp211
g4
Nsg5
Nsg6
S'192.168.1.112'
p212
sg8
g121
sg10
S'#1617e5'
p213
sg12
F1.0
sbsS'192.168.1.213-192.168.1.198'
p214
(iprimitives
Link
p215
(dp216
g4
Nsg5
Nsg6
g22
sg8
S'192.168.1.213'
p217
sg10
S'#e5c216'
p218
sg12
F0.208
sbsS'192.168.1.52-192.168.2.4'
p219
(iprimitives
Link
p220
(dp221
g4
Nsg5
Nsg6
S'192.168.2.4'
p222
sg8
g63
sg10
S'#1617e5'
p223
sg12
F1.0
sbsS'192.168.1.91-192.168.1.26'
p224
(iprimitives
Link
p225
(dp226
g4
Nsg5
Nsg6
S'192.168.1.26'
p227
sg8
S'192.168.1.91'
p228
sg10
S'#1662e5'
p229
sg12
F0.91
sbsS'192.168.1.233-192.168.1.104'
p230
(iprimitives
Link
p231
(dp232
g4
Nsg5
Nsg6
g87
sg8
g17
sg10
S'#1617e5'
p233
sg12
F1.0
sbsS'192.168.1.52-192.168.2.3'
p234
(iprimitives
Link
p235
(dp236
g4
Nsg5
Nsg6
S'192.168.2.3'
p237
sg8
g63
sg10
S'#1617e5'
p238
sg12
F1.0
sbsS'192.168.1.104-192.168.2.41'
p239
(iprimitives
Link
p240
(dp241
g4
Nsg5
Nsg6
g73
sg8
g87
sg10
S'#1617e5'
p242
sg12
F1.0
sbsS'192.168.1.120-192.168.1.110'
p243
(iprimitives
Link
p244
(dp245
g4
Nsg5
Nsg6
S'192.168.1.110'
p246
sg8
S'192.168.1.120'
p247
sg10
S'#1617e5'
p248
sg12
F1.0
sbsS'192.168.1.128-192.168.1.41'
p249
(iprimitives
Link
p250
(dp251
g4
Nsg5
Nsg6
S'192.168.1.41'
p252
sg8
S'192.168.1.128'
p253
sg10
S'#1617e5'
p254
sg12
F1.0
sbsS'192.168.1.199-192.168.1.37'
p255
(iprimitives
Link
p256
(dp257
g4
Nsg5
Nsg6
S'192.168.1.37'
p258
sg8
g23
sg10
S'#1621e5'
p259
sg12
F0.988
sbsS'192.168.1.86-192.168.1.57'
p260
(iprimitives
Link
p261
(dp262
g4
Nsg5
Nsg6
S'192.168.1.57'
p263
sg8
S'192.168.1.86'
p264
sg10
S'#16d0e5'
p265
sg12
F0.776
sbsS'192.168.1.198-192.168.1.51'
p266
(iprimitives
Link
p267
(dp268
g4
Nsg5
Nsg6
S'192.168.1.51'
p269
sg8
g22
sg10
S'#162be5'
p270
sg12
F0.976
sbsS'192.168.1.145-192.168.1.130'
p271
(iprimitives
Link
p272
(dp273
g4
Nsg5
Nsg6
S'192.168.1.130'
p274
sg8
S'192.168.1.145'
p275
sg10
S'#162be5'
p276
sg12
F0.976
sbsS'192.168.1.236-192.168.1.124'
p277
(iprimitives
Link
p278
(dp279
g4
Nsg5
Nsg6
g56
sg8
g136
sg10
S'#1617e5'
p280
sg12
F1.0
sbsS'192.168.1.245-192.168.1.158'
p281
(iprimitives
Link
p282
(dp283
g4
Nsg5
Nsg6
S'192.168.1.158'
p284
sg8
S'192.168.1.245'
p285
sg10
S'#166be5'
p286
sg12
F0.898
sbsS'192.168.1.185-192.168.1.162'
p287
(iprimitives
Link
p288
(dp289
g4
Nsg5
Nsg6
g109
sg8
g41
sg10
S'#1617e5'
p290
sg12
F1.0
sbsS'192.168.1.215-192.168.1.214'
p291
(iprimitives
Link
p292
(dp293
g4
Nsg5
Nsg6
g121
sg8
S'192.168.1.215'
p294
sg10
S'#1696e5'
p295
sg12
F0.847
sbsS'192.168.1.212-192.168.1.89'
p296
(iprimitives
Link
p297
(dp298
g4
Nsg5
Nsg6
S'192.168.1.89'
p299
sg8
S'192.168.1.212'
p300
sg10
S'#16e538'
p301
sg12
F0.541
sbsS'192.168.1.236-192.168.2.41'
p302
(iprimitives
Link
p303
(dp304
g4
Nsg5
Nsg6
g73
sg8
g136
sg10
S'#1617e5'
p305
sg12
F1.0
sbsS'192.168.2.4-192.168.2.3'
p306
(iprimitives
Link
p307
(dp308
g4
Nsg5
Nsg6
g237
sg8
g222
sg10
S'#1617e5'
p309
sg12
F1.0
sbsS'192.168.2.33-192.168.2.11'
p310
(iprimitives
Link
p311
(dp312
g4
Nsg5
Nsg6
g28
sg8
S'192.168.2.33'
p313
sg10
S'#1617e5'
p314
sg12
F1.0
sbsS'192.168.1.231-192.168.1.100'
p315
(iprimitives
Link
p316
(dp317
g4
Nsg5
Nsg6
S'192.168.1.100'
p318
sg8
S'192.168.1.231'
p319
sg10
S'#32e516'
p320
sg12
F0.467
sbsS'192.168.2.33-192.168.2.17'
p321
(iprimitives
Link
p322
(dp323
g4
Nsg5
Nsg6
g46
sg8
g313
sg10
S'#1617e5'
p324
sg12
F1.0
sbsS'192.168.1.231-192.168.1.40'
p325
(iprimitives
Link
p326
(dp327
g4
Nsg5
Nsg6
S'192.168.1.40'
p328
sg8
g319
sg10
S'#1617e5'
p329
sg12
F1.0
sbsS'192.168.1.82-192.168.2.16'
p330
(iprimitives
Link
p331
(dp332
g4
Nsg5
Nsg6
S'192.168.2.16'
p333
sg8
S'192.168.1.82'
p334
sg10
S'#1675e5'
p335
sg12
F0.886
sbsS'192.168.1.66-192.168.1.25'
p336
(iprimitives
Link
p337
(dp338
g4
Nsg5
I01
sg6
S'192.168.1.25'
p339
sg8
g151
sg10
S'#1617e5'
p340
sg12
F1.0
sbsS'192.168.2.6-192.168.2.4'
p341
(iprimitives
Link
p342
(dp343
g4
Nsg5
Nsg6
g222
sg8
S'192.168.2.6'
p344
sg10
S'#1617e5'
p345
sg12
F1.0
sbsS'192.168.2.33-192.168.2.18'
p346
(iprimitives
Link
p347
(dp348
g4
Nsg5
Nsg6
S'192.168.2.18'
p349
sg8
g313
sg10
S'#167ee5'
p350
sg12
F0.875
sbsS'192.168.2.41-192.168.2.40'
p351
(iprimitives
Link
p352
(dp353
g4
Nsg5
Nsg6
S'192.168.2.40'
p354
sg8
g73
sg10
S'#1617e5'
p355
sg12
F1.0
sbsS'192.168.1.192-192.168.1.52'
p356
(iprimitives
Link
p357
(dp358
g4
Nsg5
Nsg6
g63
sg8
S'192.168.1.192'
p359
sg10
S'#1617e5'
p360
sg12
F1.0
sbsS'192.168.1.162-192.168.1.124'
p361
(iprimitives
Link
p362
(dp363
g4
Nsg5
Nsg6
g56
sg8
g109
sg10
S'#1617e5'
p364
sg12
F1.0
sbsS'192.168.1.51-192.168.1.37'
p365
(iprimitives
Link
p366
(dp367
g4
Nsg5
Nsg6
g258
sg8
g269
sg10
S'#1662e5'
p368
sg12
F0.91
sbsS'192.168.1.179-192.168.1.23'
p369
(iprimitives
Link
p370
(dp371
g4
Nsg5
Nsg6
g182
sg8
g35
sg10
S'#1617e5'
p372
sg12
F1.0
sbsS'192.168.1.236-192.168.2.42'
p373
(iprimitives
Link
p374
(dp375
g4
Nsg5
Nsg6
g68
sg8
g136
sg10
S'#1617e5'
p376
sg12
F1.0
sbsS'192.168.1.233-192.168.1.185'
p377
(iprimitives
Link
p378
(dp379
g4
Nsg5
Nsg6
g41
sg8
g17
sg10
S'#1617e5'
p380
sg12
F1.0
sbsS'192.168.1.223-192.168.1.26'
p381
(iprimitives
Link
p382
(dp383
g4
Nsg5
Nsg6
g227
sg8
S'192.168.1.223'
p384
sg10
S'#e54716'
p385
sg12
F0.059
sbsS'192.168.1.233-192.168.2.42'
p386
(iprimitives
Link
p387
(dp388
g4
Nsg5
Nsg6
g68
sg8
g17
sg10
S'#1617e5'
p389
sg12
F1.0
sbsS'192.168.1.226-192.168.1.26'
p390
(iprimitives
Link
p391
(dp392
g4
Nsg5
Nsg6
g227
sg8
S'192.168.1.226'
p393
sg10
S'#e58116'
p394
sg12
F0.129
sbsS'192.168.1.202-192.168.1.174'
p395
(iprimitives
Link
p396
(dp397
g4
Nsg5
Nsg6
g161
sg8
S'192.168.1.202'
p398
sg10
S'#1617e5'
p399
sg12
F1.0
sbsS'192.168.2.6-192.168.2.5'
p400
(iprimitives
Link
p401
(dp402
g4
Nsg5
Nsg6
S'192.168.2.5'
p403
sg8
g344
sg10
S'#1617e5'
p404
sg12
F1.0
sbsS'192.168.1.137-192.168.2.42'
p405
(iprimitives
Link
p406
(dp407
g4
Nsg5
Nsg6
g68
sg8
S'192.168.1.137'
p408
sg10
S'#1617e5'
p409
sg12
F1.0
sbsS'192.168.1.171-192.168.2.31'
p410
(iprimitives
Link
p411
(dp412
g4
Nsg5
Nsg6
S'192.168.2.31'
p413
sg8
g126
sg10
S'#1617e5'
p414
sg12
F1.0
sbsS'192.168.2.37-192.168.2.36'
p415
(iprimitives
Link
p416
(dp417
g4
Nsg5
Nsg6
g29
sg8
S'192.168.2.37'
p418
sg10
S'#1617e5'
p419
sg12
F1.0
sbsS'192.168.1.174-192.168.1.23'
p420
(iprimitives
Link
p421
(dp422
g4
Nsg5
Nsg6
g182
sg8
g161
sg10
S'#1617e5'
p423
sg12
F1.0
sbsS'192.168.2.36-192.168.2.35'
p424
(iprimitives
Link
p425
(dp426
g4
Nsg5
Nsg6
S'192.168.2.35'
p427
sg8
g29
sg10
S'#1617e5'
p428
sg12
F1.0
sbsS'192.168.1.227-192.168.1.230'
p429
(iprimitives
Link
p430
(dp431
g4
I01
sg5
Nsg6
S'192.168.1.227'
p432
sg8
g172
sg10
S'#1617e5'
p433
sg12
F1.0
sbsS'192.168.2.31-192.168.2.4'
p434
(iprimitives
Link
p435
(dp436
g4
Nsg5
Nsg6
g222
sg8
g413
sg10
S'#1617e5'
p437
sg12
F1.0
sbsS'192.168.1.184-192.168.1.172'
p438
(iprimitives
Link
p439
(dp440
g4
Nsg5
Nsg6
g177
sg8
g57
sg10
S'#1617e5'
p441
sg12
F1.0
sbsS'192.168.1.170-192.168.1.165'
p442
(iprimitives
Link
p443
(dp444
g4
Nsg5
Nsg6
g103
sg8
S'192.168.1.170'
p445
sg10
S'#1617e5'
p446
sg12
F1.0
sbsS'192.168.2.31-192.168.2.3'
p447
(iprimitives
Link
p448
(dp449
g4
Nsg5
Nsg6
g237
sg8
g413
sg10
S'#1617e5'
p450
sg12
F1.0
sbsS'192.168.1.185-192.168.1.184'
p451
(iprimitives
Link
p452
(dp453
g4
Nsg5
Nsg6
g57
sg8
g41
sg10
S'#1617e5'
p454
sg12
F1.0
sbsS'192.168.1.166-192.168.1.155'
p455
(iprimitives
Link
p456
(dp457
g4
I01
sg5
Nsg6
g92
sg8
S'192.168.1.166'
p458
sg10
S'#1617e5'
p459
sg12
F1.0
sbsS'192.168.1.231-192.168.1.225'
p460
(iprimitives
Link
p461
(dp462
g4
Nsg5
Nsg6
g171
sg8
g319
sg10
S'#1617e5'
p463
sg12
F1.0
sbsS'192.168.1.66-192.168.1.15'
p464
(iprimitives
Link
p465
(dp466
g4
Nsg5
I01
sg6
S'192.168.1.15'
p467
sg8
g151
sg10
S'#1617e5'
p468
sg12
F1.0
sbsS'192.168.1.49-192.168.2.38'
p469
(iprimitives
Link
p470
(dp471
g4
Nsg5
Nsg6
S'192.168.2.38'
p472
sg8
S'192.168.1.49'
p473
sg10
S'#1617e5'
p474
sg12
F1.0
sbsS'192.168.1.243-192.168.1.241'
p475
(iprimitives
Link
p476
(dp477
g4
Nsg5
Nsg6
S'192.168.1.241'
p478
sg8
S'192.168.1.243'
p479
sg10
S'#165be5'
p480
sg12
F0.918
sbsS'192.168.2.19-192.168.2.18'
p481
(iprimitives
Link
p482
(dp483
g4
Nsg5
Nsg6
g349
sg8
S'192.168.2.19'
p484
sg10
S'#1617e5'
p485
sg12
F1.0
sbsS'192.168.1.172-192.168.1.162'
p486
(iprimitives
Link
p487
(dp488
g4
Nsg5
Nsg6
g109
sg8
g177
sg10
S'#1617e5'
p489
sg12
F1.0
sbsS'192.168.1.97-192.168.1.59'
p490
(iprimitives
Link
p491
(dp492
g4
Nsg5
Nsg6
S'192.168.1.59'
p493
sg8
S'192.168.1.97'
p494
sg10
S'#e59f16'
p495
sg12
F0.165
sbsS'192.168.1.49-192.168.2.37'
p496
(iprimitives
Link
p497
(dp498
g4
Nsg5
Nsg6
g418
sg8
g473
sg10
S'#1617e5'
p499
sg12
F1.0
sbsS'192.168.1.159-192.168.1.10'
p500
(iprimitives
Link
p501
(dp502
g4
I01
sg5
Nsg6
S'192.168.1.10'
p503
sg8
S'192.168.1.159'
p504
sg10
S'#1617e5'
p505
sg12
F1.0
sbsS'192.168.1.230-192.168.1.227'
p506
g430
sS'192.168.1.52-192.168.2.31'
p507
(iprimitives
Link
p508
(dp509
g4
Nsg5
Nsg6
g413
sg8
g63
sg10
S'#1617e5'
p510
sg12
F1.0
sbsS'192.168.1.236-192.168.1.103'
p511
(iprimitives
Link
p512
(dp513
g4
Nsg5
Nsg6
g74
sg8
g136
sg10
S'#1617e5'
p514
sg12
F1.0
sbsS'192.168.1.128-192.168.1.118'
p515
(iprimitives
Link
p516
(dp517
g4
Nsg5
Nsg6
S'192.168.1.118'
p518
sg8
g253
sg10
S'#1617e5'
p519
sg12
F1.0
sbsS'192.168.1.46-192.168.2.18'
p520
(iprimitives
Link
p521
(dp522
g4
Nsg5
Nsg6
g349
sg8
g62
sg10
S'#1617e5'
p523
sg12
F1.0
sbsS'192.168.1.46-192.168.2.19'
p524
(iprimitives
Link
p525
(dp526
g4
Nsg5
Nsg6
g484
sg8
g62
sg10
S'#1617e5'
p527
sg12
F1.0
sbsS'192.168.1.241-192.168.1.217'
p528
(iprimitives
Link
p529
(dp530
g4
Nsg5
Nsg6
S'192.168.1.217'
p531
sg8
g478
sg10
S'#162be5'
p532
sg12
F0.976
sbsS'192.168.1.236-192.168.1.162'
p533
(iprimitives
Link
p534
(dp535
g4
Nsg5
Nsg6
g109
sg8
g136
sg10
S'#1617e5'
p536
sg12
F1.0
sbsS'192.168.1.185-192.168.1.172'
p537
(iprimitives
Link
p538
(dp539
g4
Nsg5
Nsg6
g177
sg8
g41
sg10
S'#1617e5'
p540
sg12
F1.0
sbsS'192.168.1.233-192.168.1.124'
p541
(iprimitives
Link
p542
(dp543
g4
Nsg5
Nsg6
g56
sg8
g17
sg10
S'#1617e5'
p544
sg12
F1.0
sbsS'192.168.1.113-192.168.1.116'
p545
(iprimitives
Link
p546
(dp547
g4
I01
sg5
Nsg6
S'192.168.1.113'
p548
sg8
S'192.168.1.116'
p549
sg10
S'#1617e5'
p550
sg12
F1.0
sbsS'192.168.1.236-192.168.1.172'
p551
(iprimitives
Link
p552
(dp553
g4
Nsg5
Nsg6
g177
sg8
g136
sg10
S'#1617e5'
p554
sg12
F1.0
sbsS'192.168.1.248-192.168.1.234'
p555
(iprimitives
Link
p556
(dp557
g4
Nsg5
Nsg6
S'192.168.1.234'
p558
sg8
S'192.168.1.248'
p559
sg10
S'#1617e5'
p560
sg12
F1.0
sbsS'192.168.1.245-192.168.1.77'
p561
(iprimitives
Link
p562
(dp563
g4
Nsg5
Nsg6
S'192.168.1.77'
p564
sg8
g285
sg10
S'#1652e5'
p565
sg12
F0.929
sbsS'192.168.1.199-192.168.1.51'
p566
(iprimitives
Link
p567
(dp568
g4
Nsg5
Nsg6
g269
sg8
g23
sg10
S'#1621e5'
p569
sg12
F0.988
sbsS'192.168.2.35-192.168.1.19'
p570
(iprimitives
Link
p571
(dp572
g4
Nsg5
Nsg6
g166
sg8
g427
sg10
S'#1617e5'
p573
sg12
F1.0
sbsS'192.168.1.112-192.168.1.111'
p574
(iprimitives
Link
p575
(dp576
g4
I01
sg5
Nsg6
S'192.168.1.111'
p577
sg8
g212
sg10
S'#1617e5'
p578
sg12
F1.0
sbsS'192.168.1.234-192.168.1.233'
p579
(iprimitives
Link
p580
(dp581
g4
Nsg5
Nsg6
g17
sg8
g558
sg10
S'#1617e5'
p582
sg12
F1.0
sbsS'192.168.1.192-192.168.1.187'
p583
(iprimitives
Link
p584
(dp585
g4
Nsg5
Nsg6
g127
sg8
g359
sg10
S'#1617e5'
p586
sg12
F1.0
sbsS'192.168.1.202-192.168.1.183'
p587
(iprimitives
Link
p588
(dp589
g4
Nsg5
Nsg6
g40
sg8
g398
sg10
S'#1617e5'
p590
sg12
F1.0
sbsS'192.168.1.157-192.168.1.25'
p591
(iprimitives
Link
p592
(dp593
g4
Nsg5
I01
sg6
g339
sg8
g142
sg10
S'#1617e5'
p594
sg12
F1.0
sbsS'192.168.1.201-192.168.1.174'
p595
(iprimitives
Link
p596
(dp597
g4
Nsg5
Nsg6
g161
sg8
g51
sg10
S'#1617e5'
p598
sg12
F1.0
sbsS'192.168.1.25-192.168.1.15'
p599
(iprimitives
Link
p600
(dp601
g4
Nsg5
I01
sg6
g467
sg8
g339
sg10
S'#1617e5'
p602
sg12
F1.0
sbsS'192.168.1.187-192.168.2.3'
p603
(iprimitives
Link
p604
(dp605
g4
Nsg5
Nsg6
g237
sg8
g127
sg10
S'#1617e5'
p606
sg12
F1.0
sbsS'192.168.1.213-192.168.1.98'
p607
(iprimitives
Link
p608
(dp609
g4
Nsg5
Nsg6
S'192.168.1.98'
p610
sg8
g217
sg10
S'#1652e5'
p611
sg12
F0.929
sbsS'192.168.2.35-192.168.2.11'
p612
(iprimitives
Link
p613
(dp614
g4
Nsg5
Nsg6
g28
sg8
g427
sg10
S'#1617e5'
p615
sg12
F1.0
sbsS'192.168.1.138-192.168.1.103'
p616
(iprimitives
Link
p617
(dp618
g4
Nsg5
Nsg6
g74
sg8
g16
sg10
S'#1617e5'
p619
sg12
F1.0
sbsS'192.168.2.35-192.168.2.17'
p620
(iprimitives
Link
p621
(dp622
g4
Nsg5
Nsg6
g46
sg8
g427
sg10
S'#1617e5'
p623
sg12
F1.0
sbsS'192.168.1.192-192.168.1.171'
p624
(iprimitives
Link
p625
(dp626
g4
Nsg5
Nsg6
g126
sg8
g359
sg10
S'#1617e5'
p627
sg12
F1.0
sbsS'192.168.1.187-192.168.2.45'
p628
(iprimitives
Link
p629
(dp630
g4
Nsg5
Nsg6
S'192.168.2.45'
p631
sg8
g127
sg10
S'#1617e5'
p632
sg12
F1.0
sbsS'192.168.1.227-192.168.1.197'
p633
(iprimitives
Link
p634
(dp635
g4
Nsg5
Nsg6
g93
sg8
g432
sg10
S'#1617e5'
p636
sg12
F1.0
sbsS'192.168.1.120-192.168.2.39'
p637
(iprimitives
Link
p638
(dp639
g4
Nsg5
Nsg6
S'192.168.2.39'
p640
sg8
g247
sg10
S'#1617e5'
p641
sg12
F1.0
sbsS'192.168.1.177-192.168.1.147'
p642
(iprimitives
Link
p643
(dp644
g4
Nsg5
Nsg6
S'192.168.1.147'
p645
sg8
S'192.168.1.177'
p646
sg10
S'#1617e5'
p647
sg12
F1.0
sbsS'192.168.1.233-192.168.1.162'
p648
(iprimitives
Link
p649
(dp650
g4
Nsg5
Nsg6
g109
sg8
g17
sg10
S'#1617e5'
p651
sg12
F1.0
sbsS'192.168.1.66-192.168.2.7'
p652
(iprimitives
Link
p653
(dp654
g4
Nsg5
I01
sg6
S'192.168.2.7'
p655
sg8
g151
sg10
S'#1617e5'
p656
sg12
F1.0
sbsS'192.168.1.166-192.168.1.22'
p657
(iprimitives
Link
p658
(dp659
g4
Nsg5
Nsg6
S'192.168.1.22'
p660
sg8
g458
sg10
S'#1617e5'
p661
sg12
F1.0
sbsS'192.168.2.42-192.168.2.41'
p662
(iprimitives
Link
p663
(dp664
g4
Nsg5
Nsg6
g73
sg8
g68
sg10
S'#1617e5'
p665
sg12
F1.0
sbsS'192.168.1.226-192.168.1.218'
p666
(iprimitives
Link
p667
(dp668
g4
Nsg5
Nsg6
S'192.168.1.218'
p669
sg8
g393
sg10
S'#1621e5'
p670
sg12
F0.988
sbsS'192.168.1.185-192.168.1.138'
p671
(iprimitives
Link
p672
(dp673
g4
Nsg5
Nsg6
g16
sg8
g41
sg10
S'#1617e5'
p674
sg12
F1.0
sbsS'192.168.1.226-192.168.1.215'
p675
(iprimitives
Link
p676
(dp677
g4
Nsg5
Nsg6
g294
sg8
g393
sg10
S'#e51616'
p678
sg12
F0.0
sbsS'192.168.1.226-192.168.1.214'
p679
(iprimitives
Link
p680
(dp681
g4
Nsg5
Nsg6
g121
sg8
g393
sg10
S'#1621e5'
p682
sg12
F0.988
sbsS'192.168.1.66-192.168.2.8'
p683
(iprimitives
Link
p684
(dp685
g4
Nsg5
I01
sg6
g141
sg8
g151
sg10
S'#1617e5'
p686
sg12
F1.0
sbsS'192.168.1.174-192.168.1.95'
p687
(iprimitives
Link
p688
(dp689
g4
Nsg5
Nsg6
S'192.168.1.95'
p690
sg8
g161
sg10
S'#16d0e5'
p691
sg12
F0.776
sbsS'192.168.1.213-192.168.1.67'
p692
(iprimitives
Link
p693
(dp694
g4
Nsg5
Nsg6
g120
sg8
g217
sg10
S'#16e5a0'
p695
sg12
F0.667
sbsS'192.168.1.19-192.168.2.11'
p696
(iprimitives
Link
p697
(dp698
g4
Nsg5
Nsg6
g28
sg8
g166
sg10
S'#1617e5'
p699
sg12
F1.0
sbsS'192.168.1.157-192.168.2.7'
p700
(iprimitives
Link
p701
(dp702
g4
Nsg5
I01
sg6
g655
sg8
g142
sg10
S'#1617e5'
p703
sg12
F1.0
sbsS'192.168.1.47-192.168.2.45'
p704
(iprimitives
Link
p705
(dp706
g4
Nsg5
Nsg6
g631
sg8
S'192.168.1.47'
p707
sg10
S'#1617e5'
p708
sg12
F1.0
sbsS'192.168.1.239-192.168.1.116'
p709
(iprimitives
Link
p710
(dp711
g4
Nsg5
Nsg6
g549
sg8
S'192.168.1.239'
p712
sg10
S'#1617e5'
p713
sg12
F1.0
sbsS'192.168.2.36-192.168.2.17'
p714
(iprimitives
Link
p715
(dp716
g4
Nsg5
Nsg6
g46
sg8
g29
sg10
S'#1617e5'
p717
sg12
F1.0
sbsS'192.168.1.58-192.168.1.47'
p718
(iprimitives
Link
p719
(dp720
g4
Nsg5
Nsg6
g707
sg8
S'192.168.1.58'
p721
sg10
S'#1617e5'
p722
sg12
F1.0
sbsS'192.168.1.223-192.168.1.213'
p723
(iprimitives
Link
p724
(dp725
g4
Nsg5
Nsg6
g217
sg8
g384
sg10
S'#1685e5'
p726
sg12
F0.867
sbsS'192.168.1.128-192.168.2.40'
p727
(iprimitives
Link
p728
(dp729
g4
Nsg5
Nsg6
g354
sg8
g253
sg10
S'#1617e5'
p730
sg12
F1.0
sbsS'192.168.1.214-192.168.1.26'
p731
(iprimitives
Link
p732
(dp733
g4
Nsg5
Nsg6
g227
sg8
g121
sg10
S'#1662e5'
p734
sg12
F0.91
sbsS'192.168.1.165-192.168.1.89'
p735
(iprimitives
Link
p736
(dp737
g4
Nsg5
Nsg6
g299
sg8
g103
sg10
S'#e5df16'
p738
sg12
F0.243
sbsS'192.168.1.233-192.168.2.41'
p739
(iprimitives
Link
p740
(dp741
g4
Nsg5
Nsg6
g73
sg8
g17
sg10
S'#1617e5'
p742
sg12
F1.0
sbsS'192.168.1.183-192.168.1.23'
p743
(iprimitives
Link
p744
(dp745
g4
Nsg5
Nsg6
g182
sg8
g40
sg10
S'#1617e5'
p746
sg12
F1.0
sbsS'192.168.2.8-192.168.2.5'
p747
(iprimitives
Link
p748
(dp749
g4
Nsg5
Nsg6
g403
sg8
g141
sg10
S'#1617e5'
p750
sg12
F1.0
sbsS'192.168.1.225-192.168.1.40'
p751
(iprimitives
Link
p752
(dp753
g4
Nsg5
Nsg6
g328
sg8
g171
sg10
S'#1617e5'
p754
sg12
F1.0
sbsS'192.168.2.8-192.168.2.7'
p755
(iprimitives
Link
p756
(dp757
g4
Nsg5
I01
sg6
g655
sg8
g141
sg10
S'#1617e5'
p758
sg12
F1.0
sbsS'192.168.1.227-192.168.1.111'
p759
(iprimitives
Link
p760
(dp761
g4
Nsg5
Nsg6
g577
sg8
g432
sg10
S'#1617e5'
p762
sg12
F1.0
sbsS'192.168.1.195-192.168.1.171'
p763
(iprimitives
Link
p764
(dp765
g4
Nsg5
Nsg6
g126
sg8
S'192.168.1.195'
p766
sg10
S'#1685e5'
p767
sg12
F0.867
sbsS'192.168.1.124-192.168.1.103'
p768
(iprimitives
Link
p769
(dp770
g4
Nsg5
Nsg6
g74
sg8
g56
sg10
S'#1617e5'
p771
sg12
F1.0
sbsS'192.168.1.47-192.168.2.46'
p772
(iprimitives
Link
p773
(dp774
g4
Nsg5
Nsg6
S'192.168.2.46'
p775
sg8
g707
sg10
S'#1617e5'
p776
sg12
F1.0
sbsS'192.168.1.187-192.168.2.4'
p777
(iprimitives
Link
p778
(dp779
g4
Nsg5
Nsg6
g222
sg8
g127
sg10
S'#1617e5'
p780
sg12
F1.0
sbsS'192.168.2.42-192.168.2.35'
p781
(iprimitives
Link
p782
(dp783
g4
Nsg5
Nsg6
g427
sg8
g68
sg10
S'#1658e5'
p784
sg12
F0.922
sbsS'192.168.1.179-192.168.1.174'
p785
(iprimitives
Link
p786
(dp787
g4
Nsg5
Nsg6
g161
sg8
g35
sg10
S'#1621e5'
p788
sg12
F0.988
sbsS'192.168.1.124-192.168.1.104'
p789
(iprimitives
Link
p790
(dp791
g4
Nsg5
Nsg6
g87
sg8
g56
sg10
S'#1617e5'
p792
sg12
F1.0
sbsS'192.168.1.118-192.168.2.40'
p793
(iprimitives
Link
p794
(dp795
g4
Nsg5
Nsg6
g354
sg8
g518
sg10
S'#1617e5'
p796
sg12
F1.0
sbsS'192.168.1.218-192.168.1.213'
p797
(iprimitives
Link
p798
(dp799
g4
Nsg5
Nsg6
g217
sg8
g669
sg10
S'#cee516'
p800
sg12
F0.278
sbsS'192.168.1.218-192.168.1.214'
p801
(iprimitives
Link
p802
(dp803
g4
Nsg5
Nsg6
g121
sg8
g669
sg10
S'#167ce5'
p804
sg12
F0.878
sbsS'192.168.1.218-192.168.1.215'
p805
(iprimitives
Link
p806
(dp807
g4
Nsg5
Nsg6
g294
sg8
g669
sg10
S'#163be5'
p808
sg12
F0.957
sbsS'192.168.1.192-192.168.2.4'
p809
(iprimitives
Link
p810
(dp811
g4
Nsg5
Nsg6
g222
sg8
g359
sg10
S'#1617e5'
p812
sg12
F1.0
sbsS'192.168.1.233-192.168.1.172'
p813
(iprimitives
Link
p814
(dp815
g4
Nsg5
Nsg6
g177
sg8
g17
sg10
S'#1617e5'
p816
sg12
F1.0
sbsS'192.168.2.39-192.168.2.38'
p817
(iprimitives
Link
p818
(dp819
g4
Nsg5
Nsg6
g472
sg8
g640
sg10
S'#1617e5'
p820
sg12
F1.0
sbsS'192.168.1.187-192.168.1.52'
p821
(iprimitives
Link
p822
(dp823
g4
Nsg5
Nsg6
g63
sg8
g127
sg10
S'#1617e5'
p824
sg12
F1.0
sbsS'192.168.1.238-192.168.1.232'
p825
(iprimitives
Link
p826
(dp827
g4
Nsg5
Nsg6
S'192.168.1.232'
p828
sg8
S'192.168.1.238'
p829
sg10
S'#1617e5'
p830
sg12
F1.0
sbsS'192.168.1.192-192.168.2.3'
p831
(iprimitives
Link
p832
(dp833
g4
Nsg5
Nsg6
g237
sg8
g359
sg10
S'#1617e5'
p834
sg12
F1.0
sbsS'192.168.2.36-192.168.2.33'
p835
(iprimitives
Link
p836
(dp837
g4
Nsg5
Nsg6
g313
sg8
g29
sg10
S'#1617e5'
p838
sg12
F1.0
sbsS'192.168.1.242-192.168.1.241'
p839
(iprimitives
Link
p840
(dp841
g4
Nsg5
Nsg6
g478
sg8
S'192.168.1.242'
p842
sg10
S'#19e516'
p843
sg12
F0.498
sbsS'192.168.1.124-192.168.2.42'
p844
(iprimitives
Link
p845
(dp846
g4
Nsg5
Nsg6
g68
sg8
g56
sg10
S'#1617e5'
p847
sg12
F1.0
sbsS'192.168.1.124-192.168.2.41'
p848
(iprimitives
Link
p849
(dp850
g4
Nsg5
Nsg6
g73
sg8
g56
sg10
S'#1617e5'
p851
sg12
F1.0
sbsS'192.168.1.165-192.168.1.147'
p852
(iprimitives
Link
p853
(dp854
g4
Nsg5
Nsg6
g645
sg8
g103
sg10
S'#1617e5'
p855
sg12
F1.0
sbsS'192.168.1.110-192.168.1.101'
p856
(iprimitives
Link
p857
(dp858
g4
Nsg5
Nsg6
S'192.168.1.101'
p859
sg8
g246
sg10
S'#1617e5'
p860
sg12
F1.0
sbsS'192.168.2.33-192.168.1.19'
p861
(iprimitives
Link
p862
(dp863
g4
Nsg5
Nsg6
g166
sg8
g313
sg10
S'#1617e5'
p864
sg12
F1.0
sbsS'192.168.1.137-192.168.2.16'
p865
(iprimitives
Link
p866
(dp867
g4
Nsg5
Nsg6
g333
sg8
g408
sg10
S'#1617e5'
p868
sg12
F1.0
sbsS'192.168.1.241-192.168.1.232'
p869
(iprimitives
Link
p870
(dp871
g4
Nsg5
Nsg6
g828
sg8
g478
sg10
S'#1617e5'
p872
sg12
F1.0
sbsS'192.168.1.226-192.168.1.67'
p873
(iprimitives
Link
p874
(dp875
g4
Nsg5
Nsg6
g120
sg8
g393
sg10
S'#167ce5'
p876
sg12
F0.878
sbsS'192.168.1.155-192.168.1.166'
p877
g456
sS'192.168.1.127-192.168.1.106'
p878
(iprimitives
Link
p879
(dp880
g4
Nsg5
Nsg6
S'192.168.1.106'
p881
sg8
g34
sg10
S'#1617e5'
p882
sg12
F1.0
sbsS'192.168.1.241-192.168.1.238'
p883
(iprimitives
Link
p884
(dp885
g4
Nsg5
Nsg6
g829
sg8
g478
sg10
S'#1617e5'
p886
sg12
F1.0
sbsS'192.168.1.23-192.168.2.10'
p887
(iprimitives
Link
p888
(dp889
g4
Nsg5
Nsg6
g98
sg8
g182
sg10
S'#1617e5'
p890
sg12
F1.0
sbsS'192.168.1.236-192.168.1.235'
p891
(iprimitives
Link
p892
(dp893
g4
Nsg5
Nsg6
g104
sg8
g136
sg10
S'#1628e5'
p894
sg12
F0.98
sbsS'192.168.1.202-192.168.1.179'
p895
(iprimitives
Link
p896
(dp897
g4
Nsg5
Nsg6
g35
sg8
g398
sg10
S'#1617e5'
p898
sg12
F1.0
sbsS'192.168.1.101-192.168.1.10'
p899
(iprimitives
Link
p900
(dp901
g4
Nsg5
Nsg6
g503
sg8
g859
sg10
S'#16e5bd'
p902
sg12
F0.702
sbsS'192.168.1.218-192.168.1.67'
p903
(iprimitives
Link
p904
(dp905
g4
Nsg5
Nsg6
g120
sg8
g669
sg10
S'#1652e5'
p906
sg12
F0.929
sbsS'192.168.1.116-192.168.1.113'
p907
g546
sS'192.168.1.183-192.168.1.174'
p908
(iprimitives
Link
p909
(dp910
g4
Nsg5
Nsg6
g161
sg8
g40
sg10
S'#1617e5'
p911
sg12
F1.0
sbsS'192.168.1.118-192.168.1.41'
p912
(iprimitives
Link
p913
(dp914
g4
Nsg5
Nsg6
g252
sg8
g518
sg10
S'#1617e5'
p915
sg12
F1.0
sbsS'192.168.1.225-192.168.1.100'
p916
(iprimitives
Link
p917
(dp918
g4
Nsg5
Nsg6
g318
sg8
g171
sg10
S'#1617e5'
p919
sg12
F1.0
sbsS'192.168.1.173-192.168.1.39'
p920
(iprimitives
Link
p921
(dp922
g4
Nsg5
Nsg6
S'192.168.1.39'
p923
sg8
g152
sg10
S'#1617e5'
p924
sg12
F1.0
sbsS'192.168.2.35-192.168.2.33'
p925
(iprimitives
Link
p926
(dp927
g4
Nsg5
Nsg6
g313
sg8
g427
sg10
S'#1617e5'
p928
sg12
F1.0
sbsS'192.168.1.171-192.168.1.52'
p929
(iprimitives
Link
p930
(dp931
g4
Nsg5
Nsg6
g63
sg8
g126
sg10
S'#1617e5'
p932
sg12
F1.0
sbsS'192.168.1.192-192.168.2.31'
p933
(iprimitives
Link
p934
(dp935
g4
Nsg5
Nsg6
g413
sg8
g359
sg10
S'#1617e5'
p936
sg12
F1.0
sbsS'192.168.1.245-192.168.1.143'
p937
(iprimitives
Link
p938
(dp939
g4
Nsg5
Nsg6
S'192.168.1.143'
p940
sg8
g285
sg10
S'#1617e5'
p941
sg12
F1.0
sbsS'192.168.1.199-192.168.1.159'
p942
(iprimitives
Link
p943
(dp944
g4
Nsg5
Nsg6
g504
sg8
g23
sg10
S'#1617e5'
p945
sg12
F1.0
sbsS'192.168.1.215-192.168.1.26'
p946
(iprimitives
Link
p947
(dp948
g4
Nsg5
Nsg6
g227
sg8
g294
sg10
S'#39e516'
p949
sg12
F0.459
sbsS'192.168.1.101-192.168.2.5'
p950
(iprimitives
Link
p951
(dp952
g4
Nsg5
Nsg6
g403
sg8
g859
sg10
S'#16a3e5'
p953
sg12
F0.831
sbsS'192.168.1.197-192.168.1.111'
p954
(iprimitives
Link
p955
(dp956
g4
Nsg5
Nsg6
g577
sg8
g93
sg10
S'#1617e5'
p957
sg12
F1.0
sbsS'192.168.1.101-192.168.2.6'
p958
(iprimitives
Link
p959
(dp960
g4
Nsg5
Nsg6
g344
sg8
g859
sg10
S'#1692e5'
p961
sg12
F0.851
sbsS'192.168.1.15-192.168.2.7'
p962
(iprimitives
Link
p963
(dp964
g4
Nsg5
I01
sg6
g655
sg8
g467
sg10
S'#1648e5'
p965
sg12
F0.941
sbsS'192.168.1.15-192.168.2.2'
p966
(iprimitives
Link
p967
(dp968
g4
Nsg5
Nsg6
S'192.168.2.2'
p969
sg8
g467
sg10
S'#16e569'
p970
sg12
F0.6
sbsS'192.168.1.15-192.168.2.8'
p971
(iprimitives
Link
p972
(dp973
g4
Nsg5
I01
sg6
g141
sg8
g467
sg10
S'#1648e5'
p974
sg12
F0.941
sbsS'192.168.1.128-192.168.1.15'
p975
(iprimitives
Link
p976
(dp977
g4
Nsg5
Nsg6
g467
sg8
g253
sg10
S'#e54716'
p978
sg12
F0.059
sbsS'192.168.1.27-192.168.1.12'
p979
(iprimitives
Link
p980
(dp981
g4
Nsg5
Nsg6
g7
sg8
S'192.168.1.27'
p982
sg10
S'#16e59d'
p983
sg12
F0.663
sbsS'192.168.1.236-192.168.1.233'
p984
(iprimitives
Link
p985
(dp986
g4
Nsg5
Nsg6
g17
sg8
g136
sg10
S'#1617e5'
p987
sg12
F1.0
sbsS'192.168.2.7-192.168.2.3'
p988
(iprimitives
Link
p989
(dp990
g4
Nsg5
Nsg6
g237
sg8
g655
sg10
S'#1617e5'
p991
sg12
F1.0
sbsS'192.168.1.233-192.168.1.103'
p992
(iprimitives
Link
p993
(dp994
g4
Nsg5
Nsg6
g74
sg8
g17
sg10
S'#1617e5'
p995
sg12
F1.0
sbsS'192.168.1.243-192.168.1.217'
p996
(iprimitives
Link
p997
(dp998
g4
Nsg5
Nsg6
g531
sg8
g479
sg10
S'#1621e5'
p999
sg12
F0.988
sbsS'192.168.1.104-192.168.1.103'
p1000
(iprimitives
Link
p1001
(dp1002
g4
Nsg5
Nsg6
g74
sg8
g87
sg10
S'#1617e5'
p1003
sg12
F1.0
sbsS'192.168.1.202-192.168.1.201'
p1004
(iprimitives
Link
p1005
(dp1006
g4
Nsg5
Nsg6
g51
sg8
g398
sg10
S'#1617e5'
p1007
sg12
F1.0
sbsS'192.168.1.236-192.168.1.104'
p1008
(iprimitives
Link
p1009
(dp1010
g4
Nsg5
Nsg6
g87
sg8
g136
sg10
S'#1617e5'
p1011
sg12
F1.0
sbsS'192.168.1.185-192.168.1.124'
p1012
(iprimitives
Link
p1013
(dp1014
g4
Nsg5
Nsg6
g56
sg8
g41
sg10
S'#1617e5'
p1015
sg12
F1.0
sbsS'192.168.1.235-192.168.1.147'
p1016
(iprimitives
Link
p1017
(dp1018
g4
Nsg5
Nsg6
g645
sg8
g104
sg10
S'#1617e5'
p1019
sg12
F1.0
sbsS'192.168.1.10-192.168.2.6'
p1020
(iprimitives
Link
p1021
(dp1022
g4
Nsg5
Nsg6
g344
sg8
g503
sg10
S'#1617e5'
p1023
sg12
F1.0
sbsS'192.168.1.10-192.168.2.5'
p1024
(iprimitives
Link
p1025
(dp1026
g4
Nsg5
Nsg6
g403
sg8
g503
sg10
S'#1617e5'
p1027
sg12
F1.0
sbsS'192.168.1.67-192.168.1.26'
p1028
(iprimitives
Link
p1029
(dp1030
g4
Nsg5
Nsg6
g227
sg8
g120
sg10
S'#e57116'
p1031
sg12
F0.11
sbsS'192.168.1.184-192.168.2.41'
p1032
(iprimitives
Link
p1033
(dp1034
g4
Nsg5
Nsg6
g73
sg8
g57
sg10
S'#1617e5'
p1035
sg12
F1.0
sbsS'192.168.1.202-192.168.2.10'
p1036
(iprimitives
Link
p1037
(dp1038
g4
Nsg5
Nsg6
g98
sg8
g398
sg10
S'#1617e5'
p1039
sg12
F1.0
sbsS'192.168.1.184-192.168.2.42'
p1040
(iprimitives
Link
p1041
(dp1042
g4
Nsg5
Nsg6
g68
sg8
g57
sg10
S'#1617e5'
p1043
sg12
F1.0
sbsS'192.168.1.187-192.168.2.31'
p1044
(iprimitives
Link
p1045
(dp1046
g4
Nsg5
Nsg6
g413
sg8
g127
sg10
S'#1617e5'
p1047
sg12
F1.0
sbsS'192.168.1.172-192.168.2.41'
p1048
(iprimitives
Link
p1049
(dp1050
g4
Nsg5
Nsg6
g73
sg8
g177
sg10
S'#1617e5'
p1051
sg12
F1.0
sbsS'192.168.1.172-192.168.2.42'
p1052
(iprimitives
Link
p1053
(dp1054
g4
Nsg5
Nsg6
g68
sg8
g177
sg10
S'#1617e5'
p1055
sg12
F1.0
sbsS'192.168.1.138-192.168.1.124'
p1056
(iprimitives
Link
p1057
(dp1058
g4
Nsg5
Nsg6
g56
sg8
g16
sg10
S'#1617e5'
p1059
sg12
F1.0
sbsS'192.168.1.171-192.168.2.4'
p1060
(iprimitives
Link
p1061
(dp1062
g4
Nsg5
Nsg6
g222
sg8
g126
sg10
S'#1617e5'
p1063
sg12
F1.0
sbsS'192.168.1.213-192.168.1.80'
p1064
(iprimitives
Link
p1065
(dp1066
g4
Nsg5
Nsg6
S'192.168.1.80'
p1067
sg8
g217
sg10
S'#16e5a9'
p1068
sg12
F0.678
sbsS'192.168.1.183-192.168.1.179'
p1069
(iprimitives
Link
p1070
(dp1071
g4
Nsg5
Nsg6
g35
sg8
g40
sg10
S'#1617e5'
p1072
sg12
F1.0
sbsS'192.168.1.177-192.168.1.170'
p1073
(iprimitives
Link
p1074
(dp1075
g4
Nsg5
Nsg6
g445
sg8
g646
sg10
S'#1617e5'
p1076
sg12
F1.0
sbsS'192.168.1.171-192.168.2.3'
p1077
(iprimitives
Link
p1078
(dp1079
g4
Nsg5
Nsg6
g237
sg8
g126
sg10
S'#1617e5'
p1080
sg12
F1.0
sbsS'192.168.1.172-192.168.1.103'
p1081
(iprimitives
Link
p1082
(dp1083
g4
Nsg5
Nsg6
g74
sg8
g177
sg10
S'#1617e5'
p1084
sg12
F1.0
sbsS'192.168.1.236-192.168.1.185'
p1085
(iprimitives
Link
p1086
(dp1087
g4
Nsg5
Nsg6
g41
sg8
g136
sg10
S'#1617e5'
p1088
sg12
F1.0
sbsS'192.168.1.183-192.168.2.10'
p1089
(iprimitives
Link
p1090
(dp1091
g4
Nsg5
Nsg6
g98
sg8
g40
sg10
S'#1617e5'
p1092
sg12
F1.0
sbsS'192.168.1.25-192.168.2.7'
p1093
(iprimitives
Link
p1094
(dp1095
g4
Nsg5
I01
sg6
g655
sg8
g339
sg10
S'#1637e5'
p1096
sg12
F0.961
sbsS'192.168.1.58-192.168.2.45'
p1097
(iprimitives
Link
p1098
(dp1099
g4
Nsg5
Nsg6
g631
sg8
g721
sg10
S'#1617e5'
p1100
sg12
F1.0
sbsS'192.168.1.205-192.168.1.97'
p1101
(iprimitives
Link
p1102
(dp1103
g4
Nsg5
Nsg6
g494
sg8
S'192.168.1.205'
p1104
sg10
S'#1617e5'
p1105
sg12
F1.0
sbsS'192.168.1.172-192.168.1.104'
p1106
(iprimitives
Link
p1107
(dp1108
g4
Nsg5
Nsg6
g87
sg8
g177
sg10
S'#1617e5'
p1109
sg12
F1.0
sbsS'192.168.1.47-192.168.2.43'
p1110
(iprimitives
Link
p1111
(dp1112
g4
Nsg5
Nsg6
S'192.168.2.43'
p1113
sg8
g707
sg10
S'#1617e5'
p1114
sg12
F1.0
sbsS'192.168.1.25-192.168.2.8'
p1115
(iprimitives
Link
p1116
(dp1117
g4
Nsg5
I01
sg6
g141
sg8
g339
sg10
S'#162be5'
p1118
sg12
F0.976
sbsS'192.168.1.113-192.168.1.59'
p1119
(iprimitives
Link
p1120
(dp1121
g4
Nsg5
Nsg6
g493
sg8
g548
sg10
S'#1617e5'
p1122
sg12
F1.0
sbsS'192.168.1.233-192.168.1.184'
p1123
(iprimitives
Link
p1124
(dp1125
g4
Nsg5
Nsg6
g57
sg8
g17
sg10
S'#1617e5'
p1126
sg12
F1.0
sbsS'192.168.1.185-192.168.1.103'
p1127
(iprimitives
Link
p1128
(dp1129
g4
Nsg5
Nsg6
g74
sg8
g41
sg10
S'#1617e5'
p1130
sg12
F1.0
sbsS'192.168.1.104-192.168.2.42'
p1131
(iprimitives
Link
p1132
(dp1133
g4
Nsg5
Nsg6
g68
sg8
g87
sg10
S'#1617e5'
p1134
sg12
F1.0
sbsS'192.168.1.110-192.168.2.39'
p1135
(iprimitives
Link
p1136
(dp1137
g4
Nsg5
Nsg6
g640
sg8
g246
sg10
S'#1617e5'
p1138
sg12
F1.0
sbsS'192.168.1.100-192.168.1.40'
p1139
(iprimitives
Link
p1140
(dp1141
g4
Nsg5
Nsg6
g328
sg8
g318
sg10
S'#1648e5'
p1142
sg12
F0.941
sbsS'192.168.1.183-192.168.1.185'
p1143
g38
sS'192.168.1.89-192.168.1.62'
p1144
(iprimitives
Link
p1145
(dp1146
g4
Nsg5
Nsg6
S'192.168.1.62'
p1147
sg8
g299
sg10
S'#1617e5'
p1148
sg12
F1.0
sbsS'192.168.1.41-192.168.2.40'
p1149
(iprimitives
Link
p1150
(dp1151
g4
Nsg5
Nsg6
g354
sg8
g252
sg10
S'#1617e5'
p1152
sg12
F1.0
sbsS'192.168.1.236-192.168.1.156'
p1153
(iprimitives
Link
p1154
(dp1155
g4
Nsg5
Nsg6
S'192.168.1.156'
p1156
sg8
g136
sg10
S'#162be5'
p1157
sg12
F0.976
sbsS'192.168.1.158-192.168.1.77'
p1158
(iprimitives
Link
p1159
(dp1160
g4
Nsg5
Nsg6
g564
sg8
g284
sg10
S'#16e5da'
p1161
sg12
F0.737
sbsS'192.168.1.172-192.168.1.138'
p1162
(iprimitives
Link
p1163
(dp1164
g4
Nsg5
Nsg6
g16
sg8
g177
sg10
S'#1617e5'
p1165
sg12
F1.0
sbsS'192.168.1.32-192.168.1.25'
p1166
(iprimitives
Link
p1167
(dp1168
g4
Nsg5
Nsg6
g339
sg8
S'192.168.1.32'
p1169
sg10
S'#83e516'
p1170
sg12
F0.369
sbsS'192.168.1.236-192.168.1.138'
p1171
(iprimitives
Link
p1172
(dp1173
g4
Nsg5
Nsg6
g16
sg8
g136
sg10
S'#1617e5'
p1174
sg12
F1.0
sbsS'192.168.1.214-192.168.1.213'
p1175
(iprimitives
Link
p1176
(dp1177
g4
Nsg5
Nsg6
g217
sg8
g121
sg10
S'#166be5'
p1178
sg12
F0.898
sbsS'192.168.1.166-192.168.1.143'
p1179
(iprimitives
Link
p1180
(dp1181
g4
Nsg5
Nsg6
g940
sg8
g458
sg10
S'#1617e5'
p1182
sg12
F1.0
sbsS'192.168.1.231-192.168.1.230'
p1183
(iprimitives
Link
p1184
(dp1185
g4
Nsg5
Nsg6
g172
sg8
g319
sg10
S'#1617e5'
p1186
sg12
F1.0
sbsS'192.168.1.179-192.168.2.10'
p1187
(iprimitives
Link
p1188
(dp1189
g4
Nsg5
Nsg6
g98
sg8
g35
sg10
S'#1617e5'
p1190
sg12
F1.0
sbsS'192.168.1.226-192.168.1.213'
p1191
(iprimitives
Link
p1192
(dp1193
g4
Nsg5
Nsg6
g217
sg8
g393
sg10
S'#39e516'
p1194
sg12
F0.459
sbsS'192.168.1.224-192.168.1.41'
p1195
(iprimitives
Link
p1196
(dp1197
g4
Nsg5
Nsg6
g252
sg8
S'192.168.1.224'
p1198
sg10
S'#1617e5'
p1199
sg12
F1.0
sbsS'192.168.2.36-192.168.1.19'
p1200
(iprimitives
Link
p1201
(dp1202
g4
Nsg5
Nsg6
g166
sg8
g29
sg10
S'#1617e5'
p1203
sg12
F1.0
sbsS'192.168.1.177-192.168.1.165'
p1204
(iprimitives
Link
p1205
(dp1206
g4
Nsg5
Nsg6
g103
sg8
g646
sg10
S'#1617e5'
p1207
sg12
F1.0
sbsS'192.168.1.202-192.168.1.23'
p1208
(iprimitives
Link
p1209
(dp1210
g4
Nsg5
Nsg6
g182
sg8
g398
sg10
S'#1617e5'
p1211
sg12
F1.0
sbsS'192.168.1.138-192.168.2.41'
p1212
(iprimitives
Link
p1213
(dp1214
g4
Nsg5
Nsg6
g73
sg8
g16
sg10
S'#1617e5'
p1215
sg12
F1.0
sbsS'192.168.1.162-192.168.1.104'
p1216
(iprimitives
Link
p1217
(dp1218
g4
Nsg5
Nsg6
g87
sg8
g109
sg10
S'#1617e5'
p1219
sg12
F1.0
sbsS'192.168.1.170-192.168.1.147'
p1220
(iprimitives
Link
p1221
(dp1222
g4
Nsg5
Nsg6
g645
sg8
g445
sg10
S'#1617e5'
p1223
sg12
F1.0
sbsS'192.168.2.38-192.168.2.37'
p1224
(iprimitives
Link
p1225
(dp1226
g4
Nsg5
Nsg6
g418
sg8
g472
sg10
S'#1617e5'
p1227
sg12
F1.0
sbsS'192.168.1.235-192.168.1.170'
p1228
(iprimitives
Link
p1229
(dp1230
g4
Nsg5
Nsg6
g445
sg8
g104
sg10
S'#1617e5'
p1231
sg12
F1.0
sbsS'192.168.1.157-192.168.1.15'
p1232
(iprimitives
Link
p1233
(dp1234
g4
Nsg5
I01
sg6
g467
sg8
g142
sg10
S'#1617e5'
p1235
sg12
F1.0
sbsS'192.168.1.184-192.168.1.138'
p1236
(iprimitives
Link
p1237
(dp1238
g4
Nsg5
Nsg6
g16
sg8
g57
sg10
S'#1617e5'
p1239
sg12
F1.0
sbsS'192.168.1.223-192.168.1.80'
p1240
(iprimitives
Link
p1241
(dp1242
g4
Nsg5
Nsg6
g1067
sg8
g384
sg10
S'#22e516'
p1243
sg12
F0.486
sbsS'192.168.1.198-192.168.1.37'
p1244
(iprimitives
Link
p1245
(dp1246
g4
Nsg5
Nsg6
g258
sg8
g22
sg10
S'#1621e5'
p1247
sg12
F0.988
sbsS'192.168.1.201-192.168.2.10'
p1248
(iprimitives
Link
p1249
(dp1250
g4
Nsg5
Nsg6
g98
sg8
g51
sg10
S'#1617e5'
p1251
sg12
F1.0
sbsS'192.168.1.175-192.168.1.55'
p1252
(iprimitives
Link
p1253
(dp1254
g4
Nsg5
Nsg6
S'192.168.1.55'
p1255
sg8
S'192.168.1.175'
p1256
sg10
S'#1617e5'
p1257
sg12
F1.0
sbsS'192.168.1.226-192.168.1.223'
p1258
(iprimitives
Link
p1259
(dp1260
g4
Nsg5
Nsg6
g384
sg8
g393
sg10
S'#ade516'
p1261
sg12
F0.318
sbsS'192.168.1.162-192.168.1.103'
p1262
(iprimitives
Link
p1263
(dp1264
g4
Nsg5
Nsg6
g74
sg8
g109
sg10
S'#1617e5'
p1265
sg12
F1.0
sbsS'192.168.1.194-192.168.1.89'
p1266
(iprimitives
Link
p1267
(dp1268
g4
Nsg5
Nsg6
g299
sg8
S'192.168.1.194'
p1269
sg10
S'#16d9e5'
p1270
sg12
F0.765
sbsS'192.168.1.138-192.168.2.42'
p1271
(iprimitives
Link
p1272
(dp1273
g4
Nsg5
Nsg6
g68
sg8
g16
sg10
S'#1617e5'
p1274
sg12
F1.0
sbsS'192.168.1.235-192.168.1.177'
p1275
(iprimitives
Link
p1276
(dp1277
g4
Nsg5
Nsg6
g646
sg8
g104
sg10
S'#1617e5'
p1278
sg12
F1.0
sbs.