(dp0
S'192.168.2.14'
p1
(iprimitives
AccesPoint
p2
(dp3
S'wifidog'
p4
NsS'state'
p5
NsS'position'
p6
ccopy_reg
_reconstructor
p7
(cgeojson.geometry
Point
p8
c__builtin__
object
p9
Ntp10
Rp11
(dp12
S'crs'
p13
g7
(cgeojson.crs
Default
p14
g9
Ntp15
Rp16
sS'type'
p17
S'Point'
p18
sS'coordinates'
p19
(lp20
F12.15857
aF54.02775
asS'extra'
p21
(dp22
sbsS'lastonline'
p23
NsS'ugw'
p24
NsS'id'
p25
g1
sbsS'192.168.1.119'
p26
(iprimitives
AccesPoint
p27
(dp28
g4
Nsg5
I3
sg6
g7
(g8
g9
Ntp29
Rp30
(dp31
g13
g7
(g14
g9
Ntp32
Rp33
sg17
g18
sg19
(lp34
S''
p35
ag35
asg21
(dp36
sbsg23
S'17.02.2010 (05:10:08)'
p37
sg24
Nsg25
g26
sbsS'192.168.1.118'
p38
(iprimitives
AccesPoint
p39
(dp40
g4
Nsg5
I3
sg6
g7
(g8
g9
Ntp41
Rp42
(dp43
g13
g7
(g14
g9
Ntp44
Rp45
sg17
g18
sg19
(lp46
F12.114927
aF54.087829
asg21
(dp47
sbsg23
S'20.05.2012 (16:56:04)'
p48
sg24
Nsg25
g38
sbsS'192.168.1.117'
p49
(iprimitives
AccesPoint
p50
(dp51
g4
Nsg5
Nsg6
g7
(g8
g9
Ntp52
Rp53
(dp54
g13
g7
(g14
g9
Ntp55
Rp56
sg17
g18
sg19
(lp57
F12.110621
aF54.090421
asg21
(dp58
sbsg23
Nsg24
Nsg25
g49
sbsS'192.168.1.116'
p59
(iprimitives
AccesPoint
p60
(dp61
S'vpn'
p62
I0
sS'os'
p63
S'AirOS(XM.v5.3.3 )'
p64
sg4
I0
sg5
I3
sS'board'
p65
S'Ubiquiti NanoBridge M5'
p66
sg6
g7
(g8
g9
Ntp67
Rp68
(dp69
g13
g7
(g14
g9
Ntp70
Rp71
sg17
g18
sg19
(lp72
F11.421235
aF53.700792
asg21
(dp73
sbsg23
S'20.05.2012 (16:56:04)'
p74
sg24
I0
sg25
g59
sbsS'192.168.1.115'
p75
(iprimitives
AccesPoint
p76
(dp77
g4
Nsg5
I3
sg6
g7
(g8
g9
Ntp78
Rp79
(dp80
g13
g7
(g14
g9
Ntp81
Rp82
sg17
g18
sg19
(lp83
F12.102045
aF54.117033
asg21
(dp84
sbsg23
S'25.06.2011 (20:02:04)'
p85
sg24
Nsg25
g75
sbsS'192.168.1.114'
p86
(iprimitives
AccesPoint
p87
(dp88
g4
Nsg5
I3
sg6
g7
(g8
g9
Ntp89
Rp90
(dp91
g13
g7
(g14
g9
Ntp92
Rp93
sg17
g18
sg19
(lp94
F12.156051
aF54.027887
asg21
(dp95
sbsg23
S'09.04.2012 (17:38:04)'
p96
sg24
Nsg25
g86
sbsS'192.168.1.113'
p97
(iprimitives
AccesPoint
p98
(dp99
g62
I0
sg63
S'AirOS(XM.v5.3.3 )'
p100
sg4
I0
sg5
I3
sg65
g66
sg6
g7
(g8
g9
Ntp101
Rp102
(dp103
g13
g7
(g14
g9
Ntp104
Rp105
sg17
g18
sg19
(lp106
F11.413947
aF53.629677
asg21
(dp107
sbsg23
S'20.05.2012 (16:56:04)'
p108
sg24
I0
sg25
g97
sbsS'192.168.1.112'
p109
(iprimitives
AccesPoint
p110
(dp111
g4
Nsg5
I3
sg6
g7
(g8
g9
Ntp112
Rp113
(dp114
g13
g7
(g14
g9
Ntp115
Rp116
sg17
g18
sg19
(lp117
F12.155771
aF54.025192
asg21
(dp118
sbsg23
S'20.05.2012 (16:56:04)'
p119
sg24
Nsg25
g109
sbsS'192.168.1.111'
p120
(iprimitives
AccesPoint
p121
(dp122
g4
Nsg5
I3
sg6
g7
(g8
g9
Ntp123
Rp124
(dp125
g13
g7
(g14
g9
Ntp126
Rp127
sg17
g18
sg19
(lp128
F12.189857
aF54.005511
asg21
(dp129
sbsg23
S'20.05.2012 (16:56:04)'
p130
sg24
Nsg25
g120
sbsS'192.168.1.110'
p131
(iprimitives
AccesPoint
p132
(dp133
g62
I0
sg63
S'AirOS(XM.v5.2.1 )'
p134
sg4
I0
sg5
I3
sg65
S'Ubiquiti NanoStration M5'
p135
sg6
g7
(g8
g9
Ntp136
Rp137
(dp138
g13
g7
(g14
g9
Ntp139
Rp140
sg17
g18
sg19
(lp141
F12.1285
aF54.082
asg21
(dp142
sbsg23
S'20.05.2012 (16:56:04)'
p143
sg24
I0
sg25
g131
sbsS'192.168.1.84'
p144
(iprimitives
AccesPoint
p145
(dp146
g4
Nsg5
I3
sg6
g7
(g8
g9
Ntp147
Rp148
(dp149
g13
g7
(g14
g9
Ntp150
Rp151
sg17
g18
sg19
(lp152
F12.213771
aF54.048064
asg21
(dp153
sbsg23
S'10.08.2011 (14:26:04)'
p154
sg24
Nsg25
g144
sbsS'192.168.1.16'
p155
(iprimitives
AccesPoint
p156
(dp157
g4
Nsg5
I3
sg6
g7
(g8
g9
Ntp158
Rp159
(dp160
g13
g7
(g14
g9
Ntp161
Rp162
sg17
g18
sg19
(lp163
g35
ag35
asg21
(dp164
sbsg23
S'06.09.2011 (10:19:04)'
p165
sg24
Nsg25
g155
sbsV192.168.2.62
p166
(iprimitives
AccesPoint
p167
(dp168
g62
I1
sg63
S'OpenWrt(white russian  0.9-ON5)'
p169
sg4
I0
sg5
Nsg65
S'Linksys WRT54G'
p170
sg6
g7
(g8
g9
Ntp171
Rp172
(dp173
g13
g7
(g14
g9
Ntp174
Rp175
sg17
g18
sg19
(lp176
g35
ag35
asg21
(dp177
sbsg23
Nsg24
I0
sg25
S'192.168.2.2'
p178
sbsS'192.168.1.103'
p179
(iprimitives
AccesPoint
p180
(dp181
g62
I1
sg63
S'OpenWrt(backfire 10.03.1-RC6)'
p182
sg4
I1
sg5
I3
sg65
g170
sg6
g7
(g8
g9
Ntp183
Rp184
(dp185
g13
g7
(g14
g9
Ntp186
Rp187
sg17
g18
sg19
(lp188
F12.11675
aF54.08865
asg21
(dp189
sbsg23
S'20.05.2012 (16:56:04)'
p190
sg24
I0
sg25
g179
sbsS'192.168.1.31'
p191
(iprimitives
AccesPoint
p192
(dp193
g4
Nsg5
I3
sg6
g7
(g8
g9
Ntp194
Rp195
(dp196
g13
g7
(g14
g9
Ntp197
Rp198
sg17
g18
sg19
(lp199
F12.1438
aF54.081878
asg21
(dp200
sbsg23
S'25.09.2011 (23:12:04)'
p201
sg24
Nsg25
g191
sbsS'192.168.1.45'
p202
(iprimitives
AccesPoint
p203
(dp204
g4
Nsg5
I3
sg6
g7
(g8
g9
Ntp205
Rp206
(dp207
g13
g7
(g14
g9
Ntp208
Rp209
sg17
g18
sg19
(lp210
F12.11287
aF54.0929
asg21
(dp211
sbsg23
S'27.03.2011 (03:25:04)'
p212
sg24
Nsg25
g202
sbsS'192.168.1.62'
p213
(iprimitives
AccesPoint
p214
(dp215
g62
I1
sg63
S'OpenWrt(white russian  0.9-ON5)'
p216
sg4
I0
sg5
I3
sg65
g170
sg6
g7
(g8
g9
Ntp217
Rp218
(dp219
g13
g7
(g14
g9
Ntp220
Rp221
sg17
g18
sg19
(lp222
F12.1066
aF54.0926
asg21
(dp223
sbsg23
S'20.05.2012 (16:57:04)'
p224
sg24
I0
sg25
g213
sbsS'192.168.1.63'
p225
(iprimitives
AccesPoint
p226
(dp227
g4
Nsg5
I3
sg6
g7
(g8
g9
Ntp228
Rp229
(dp230
g13
g7
(g14
g9
Ntp231
Rp232
sg17
g18
sg19
(lp233
F12.111717
aF54.092107
asg21
(dp234
sbsg23
S'22.08.2010 (18:30:06)'
p235
sg24
Nsg25
g225
sbsS'192.168.1.60'
p236
(iprimitives
AccesPoint
p237
(dp238
g4
Nsg5
Nsg6
g7
(g8
g9
Ntp239
Rp240
(dp241
g13
g7
(g14
g9
Ntp242
Rp243
sg17
g18
sg19
(lp244
g35
ag35
asg21
(dp245
sbsg23
Nsg24
Nsg25
g236
sbsS'192.168.1.61'
p246
(iprimitives
AccesPoint
p247
(dp248
g4
Nsg5
I3
sg6
g7
(g8
g9
Ntp249
Rp250
(dp251
g13
g7
(g14
g9
Ntp252
Rp253
sg17
g18
sg19
(lp254
g35
ag35
asg21
(dp255
sbsg23
S'30.03.2010 (17:04:04)'
p256
sg24
Nsg25
g246
sbsS'192.168.1.66'
p257
(iprimitives
AccesPoint
p258
(dp259
g4
Nsg5
I3
sg6
g7
(g8
g9
Ntp260
Rp261
(dp262
g13
g7
(g14
g9
Ntp263
Rp264
sg17
g18
sg19
(lp265
F12.1099
aF54.08626
asg21
(dp266
sbsg23
S'20.05.2012 (16:57:04)'
p267
sg24
Nsg25
g257
sbsS'192.168.1.67'
p268
(iprimitives
AccesPoint
p269
(dp270
g62
I1
sg63
S'OpenWrt(white russian  0.9-ON5)'
p271
sg4
I0
sg5
I3
sg65
S'Linksys WRT54GL'
p272
sg6
g7
(g8
g9
Ntp273
Rp274
(dp275
g13
g7
(g14
g9
Ntp276
Rp277
sg17
g18
sg19
(lp278
F12.156672
aF54.02494
asg21
(dp279
sbsg23
S'20.05.2012 (16:57:04)'
p280
sg24
I0
sg25
g268
sbsS'192.168.1.64'
p281
(iprimitives
AccesPoint
p282
(dp283
g4
Nsg5
Nsg6
g7
(g8
g9
Ntp284
Rp285
(dp286
g13
g7
(g14
g9
Ntp287
Rp288
sg17
g18
sg19
(lp289
F12.260965
aF54.017522
asg21
(dp290
sbsg23
Nsg24
Nsg25
g281
sbsS'192.168.1.65'
p291
(iprimitives
AccesPoint
p292
(dp293
g4
Nsg5
Nsg6
g7
(g8
g9
Ntp294
Rp295
(dp296
g13
g7
(g14
g9
Ntp297
Rp298
sg17
g18
sg19
(lp299
F12.336059
aF54.020905
asg21
(dp300
sbsg23
Nsg24
Nsg25
g291
sbsS'192.168.1.193'
p301
(iprimitives
AccesPoint
p302
(dp303
g4
Nsg5
I3
sg6
g7
(g8
g9
Ntp304
Rp305
(dp306
g13
g7
(g14
g9
Ntp307
Rp308
sg17
g18
sg19
(lp309
F12.210335
aF54.04833
asg21
(dp310
sbsg23
S'31.03.2012 (07:40:04)'
p311
sg24
Nsg25
g301
sbsS'192.168.1.68'
p312
(iprimitives
AccesPoint
p313
(dp314
g4
Nsg5
Nsg6
g7
(g8
g9
Ntp315
Rp316
(dp317
g13
g7
(g14
g9
Ntp318
Rp319
sg17
g18
sg19
(lp320
g35
ag35
asg21
(dp321
sbsg23
Nsg24
Nsg25
g312
sbsS'192.168.1.69'
p322
(iprimitives
AccesPoint
p323
(dp324
g4
Nsg5
I3
sg6
g7
(g8
g9
Ntp325
Rp326
(dp327
g13
g7
(g14
g9
Ntp328
Rp329
sg17
g18
sg19
(lp330
F12.211154
aF54.048495
asg21
(dp331
sbsg23
S'23.10.2011 (16:10:04)'
p332
sg24
Nsg25
g322
sbsS'192.168.1.21'
p333
(iprimitives
AccesPoint
p334
(dp335
g4
Nsg5
I3
sg6
g7
(g8
g9
Ntp336
Rp337
(dp338
g13
g7
(g14
g9
Ntp339
Rp340
sg17
g18
sg19
(lp341
g35
ag35
asg21
(dp342
sbsg23
S'17.12.2011 (11:25:04)'
p343
sg24
Nsg25
g333
sbsS'192.168.2.33'
p344
(iprimitives
AccesPoint
p345
(dp346
g4
Nsg5
I3
sg6
g7
(g8
g9
Ntp347
Rp348
(dp349
g13
g7
(g14
g9
Ntp350
Rp351
sg17
g18
sg19
(lp352
F12.1334
aF54.0848
asg21
(dp353
sbsg23
S'20.05.2012 (16:57:04)'
p354
sg24
Nsg25
g344
sbsS'192.168.1.80'
p355
(iprimitives
AccesPoint
p356
(dp357
g4
Nsg5
I3
sg6
g7
(g8
g9
Ntp358
Rp359
(dp360
g13
g7
(g14
g9
Ntp361
Rp362
sg17
g18
sg19
(lp363
F12.155063
aF54.027033
asg21
(dp364
sbsg23
S'20.05.2012 (16:57:04)'
p365
sg24
Nsg25
g355
sbsS'192.168.1.109'
p366
(iprimitives
AccesPoint
p367
(dp368
g4
Nsg5
I3
sg6
g7
(g8
g9
Ntp369
Rp370
(dp371
g13
g7
(g14
g9
Ntp372
Rp373
sg17
g18
sg19
(lp374
F12.212908
aF54.047184
asg21
(dp375
sbsg23
S'12.01.2012 (10:27:04)'
p376
sg24
Nsg25
g366
sbsS'192.168.1.82'
p377
(iprimitives
AccesPoint
p378
(dp379
g4
Nsg5
I3
sg6
g7
(g8
g9
Ntp380
Rp381
(dp382
g13
g7
(g14
g9
Ntp383
Rp384
sg17
g18
sg19
(lp385
F12.121611
aF54.087011
asg21
(dp386
sbsg23
S'20.05.2012 (16:57:04)'
p387
sg24
Nsg25
g377
sbsS'192.168.2.3'
p388
(iprimitives
AccesPoint
p389
(dp390
g62
I0
sg63
S'AirOS(XM.v5.2.1 )'
p391
sg4
I0
sg5
I3
sg65
g135
sg6
g7
(g8
g9
Ntp392
Rp393
(dp394
g13
g7
(g14
g9
Ntp395
Rp396
sg17
g18
sg19
(lp397
F12.120323
aF54.072364
asg21
(dp398
sbsg23
S'20.05.2012 (16:57:04)'
p399
sg24
I0
sg25
g388
sbsS'192.168.2.4'
p400
(iprimitives
AccesPoint
p401
(dp402
g4
Nsg5
I3
sg6
g7
(g8
g9
Ntp403
Rp404
(dp405
g13
g7
(g14
g9
Ntp406
Rp407
sg17
g18
sg19
(lp408
F12.120377
aF54.072339
asg21
(dp409
sbsg23
S'20.05.2012 (16:57:04)'
p410
sg24
Nsg25
g400
sbsS'192.168.1.85'
p411
(iprimitives
AccesPoint
p412
(dp413
g4
Nsg5
I3
sg6
g7
(g8
g9
Ntp414
Rp415
(dp416
g13
g7
(g14
g9
Ntp417
Rp418
sg17
g18
sg19
(lp419
F12.111373
aF54.092363
asg21
(dp420
sbsg23
S'20.05.2012 (16:57:04)'
p421
sg24
Nsg25
g411
sbsS'192.168.2.6'
p422
(iprimitives
AccesPoint
p423
(dp424
g62
I0
sg63
S'AirOS(XM.v5.2.1 )'
p425
sg4
I0
sg5
I3
sg65
g135
sg6
g7
(g8
g9
Ntp426
Rp427
(dp428
g13
g7
(g14
g9
Ntp429
Rp430
sg17
g18
sg19
(lp431
F12.107988
aF54.071556
asg21
(dp432
sbsg23
S'20.05.2012 (16:57:04)'
p433
sg24
I0
sg25
g422
sbsS'192.168.2.7'
p434
(iprimitives
AccesPoint
p435
(dp436
g4
Nsg5
I3
sg6
g7
(g8
g9
Ntp437
Rp438
(dp439
g13
g7
(g14
g9
Ntp440
Rp441
sg17
g18
sg19
(lp442
F12.106773
aF54.076736
asg21
(dp443
sbsg23
S'20.05.2012 (16:57:04)'
p444
sg24
Nsg25
g434
sbsS'192.168.2.8'
p445
(iprimitives
AccesPoint
p446
(dp447
g4
Nsg5
I3
sg6
g7
(g8
g9
Ntp448
Rp449
(dp450
g13
g7
(g14
g9
Ntp451
Rp452
sg17
g18
sg19
(lp453
F12.106563
aF54.076661
asg21
(dp454
sbsg23
S'20.05.2012 (16:57:04)'
p455
sg24
Nsg25
g445
sbsS'192.168.2.9'
p456
(iprimitives
AccesPoint
p457
(dp458
g4
Nsg5
I3
sg6
g7
(g8
g9
Ntp459
Rp460
(dp461
g13
g7
(g14
g9
Ntp462
Rp463
sg17
g18
sg19
(lp464
g35
ag35
asg21
(dp465
sbsg23
S'23.06.2011 (16:44:04)'
p466
sg24
Nsg25
g456
sbsS'192.168.1.102'
p467
(iprimitives
AccesPoint
p468
(dp469
g4
Nsg5
I3
sg6
g7
(g8
g9
Ntp470
Rp471
(dp472
g13
g7
(g14
g9
Ntp473
Rp474
sg17
g18
sg19
(lp475
F12.114437
aF54.091218
asg21
(dp476
sbsg23
S'20.05.2011 (11:35:04)'
p477
sg24
Nsg25
g467
sbsS'192.168.1.43'
p478
(iprimitives
AccesPoint
p479
(dp480
g4
Nsg5
I3
sg6
g7
(g8
g9
Ntp481
Rp482
(dp483
g13
g7
(g14
g9
Ntp484
Rp485
sg17
g18
sg19
(lp486
F12.112545
aF54.093184
asg21
(dp487
sbsg23
S'07.03.2012 (05:38:04)'
p488
sg24
Nsg25
g478
sbsS'192.168.1.104'
p489
(iprimitives
AccesPoint
p490
(dp491
g62
I1
sg63
S'OpenWrt(backfire 10.03.1-RC6)'
p492
sg4
I1
sg5
I3
sg65
g170
sg6
g7
(g8
g9
Ntp493
Rp494
(dp495
g13
g7
(g14
g9
Ntp496
Rp497
sg17
g18
sg19
(lp498
F12.11675
aF54.08855
asg21
(dp499
sbsg23
S'20.05.2012 (16:56:04)'
p500
sg24
I0
sg25
g489
sbsS'192.168.1.105'
p501
(iprimitives
AccesPoint
p502
(dp503
g4
Nsg5
I3
sg6
g7
(g8
g9
Ntp504
Rp505
(dp506
g13
g7
(g14
g9
Ntp507
Rp508
sg17
g18
sg19
(lp509
F12.119877
aF47.856283
asg21
(dp510
sbsg23
S'05.02.2010 (13:39:02)'
p511
sg24
Nsg25
g501
sbsS'192.168.1.106'
p512
(iprimitives
AccesPoint
p513
(dp514
g62
I1
sg63
S'OpenWrt(backfire 10.03.1-RC6)'
p515
sg4
I1
sg5
I3
sg65
g170
sg6
g7
(g8
g9
Ntp516
Rp517
(dp518
g13
g7
(g14
g9
Ntp519
Rp520
sg17
g18
sg19
(lp521
F12.127222
aF54.095726
asg21
(dp522
sbsg23
S'20.05.2012 (16:56:04)'
p523
sg24
I0
sg25
g512
sbsS'192.168.1.107'
p524
(iprimitives
AccesPoint
p525
(dp526
g4
Nsg5
I3
sg6
g7
(g8
g9
Ntp527
Rp528
(dp529
g13
g7
(g14
g9
Ntp530
Rp531
sg17
g18
sg19
(lp532
F12.025468
aF54.108878
asg21
(dp533
sbsg23
S'07.05.2012 (19:46:04)'
p534
sg24
Nsg25
g524
sbsS'192.168.1.143'
p535
(iprimitives
AccesPoint
p536
(dp537
g4
Nsg5
I3
sg6
g7
(g8
g9
Ntp538
Rp539
(dp540
g13
g7
(g14
g9
Ntp541
Rp542
sg17
g18
sg19
(lp543
F12.267029
aF53.983651
asg21
(dp544
sbsg23
S'20.05.2012 (16:56:04)'
p545
sg24
Nsg25
g535
sbsS'192.168.1.32'
p546
(iprimitives
AccesPoint
p547
(dp548
g4
Nsg5
I3
sg6
g7
(g8
g9
Ntp549
Rp550
(dp551
g13
g7
(g14
g9
Ntp552
Rp553
sg17
g18
sg19
(lp554
F12.111901
aF54.083559
asg21
(dp555
sbsg23
S'20.05.2012 (16:57:04)'
p556
sg24
Nsg25
g546
sbsS'192.168.2.1'
p557
(iprimitives
AccesPoint
p558
(dp559
g4
Nsg5
Nsg6
g7
(g8
g9
Ntp560
Rp561
(dp562
g13
g7
(g14
g9
Ntp563
Rp564
sg17
g18
sg19
(lp565
g35
ag35
asg21
(dp566
sbsg23
Nsg24
Nsg25
g557
sbsS'192.168.1.35'
p567
(iprimitives
AccesPoint
p568
(dp569
g4
Nsg5
I3
sg6
g7
(g8
g9
Ntp570
Rp571
(dp572
g13
g7
(g14
g9
Ntp573
Rp574
sg17
g18
sg19
(lp575
F12.115163
aF54.089107
asg21
(dp576
sbsg23
S'05.01.2012 (08:28:04)'
p577
sg24
Nsg25
g567
sbsS'192.168.1.100'
p578
(iprimitives
AccesPoint
p579
(dp580
g62
I1
sg63
S'OpenWrt(backfire 10.03.1-RC6)'
p581
sg4
I0
sg5
I3
sg65
S'Ubiquiti Nanostation M'
p582
sg6
g7
(g8
g9
Ntp583
Rp584
(dp585
g13
g7
(g14
g9
Ntp586
Rp587
sg17
g18
sg19
(lp588
F12.294991
aF54.005691
asg21
(dp589
sbsg23
S'20.05.2012 (16:56:04)'
p590
sg24
I0
sg25
g578
sbsS'192.168.1.33'
p591
(iprimitives
AccesPoint
p592
(dp593
g4
Nsg5
I3
sg6
g7
(g8
g9
Ntp594
Rp595
(dp596
g13
g7
(g14
g9
Ntp597
Rp598
sg17
g18
sg19
(lp599
F12.111971
aF54.083622
asg21
(dp600
sbsg23
S'20.05.2012 (16:57:04)'
p601
sg24
Nsg25
g591
sbsS'192.168.1.34'
p602
(iprimitives
AccesPoint
p603
(dp604
g4
Nsg5
I3
sg6
g7
(g8
g9
Ntp605
Rp606
(dp607
g13
g7
(g14
g9
Ntp608
Rp609
sg17
g18
sg19
(lp610
F12.112899
aF54.091642
asg21
(dp611
sbsg23
S'29.05.2010 (17:57:04)'
p612
sg24
Nsg25
g602
sbsS'192.168.1.79'
p613
(iprimitives
AccesPoint
p614
(dp615
g4
Nsg5
I3
sg6
g7
(g8
g9
Ntp616
Rp617
(dp618
g13
g7
(g14
g9
Ntp619
Rp620
sg17
g18
sg19
(lp621
F12.1333
aF54.0849
asg21
(dp622
sbsg23
S'10.11.2011 (16:59:04)'
p623
sg24
Nsg25
g613
sbsS'192.168.1.78'
p624
(iprimitives
AccesPoint
p625
(dp626
g4
Nsg5
I3
sg6
Nsg23
S'18.01.2011 (13:44:04)'
p627
sg24
Nsg25
g624
sbsS'192.168.1.75'
p628
(iprimitives
AccesPoint
p629
(dp630
g4
Nsg5
I3
sg6
g7
(g8
g9
Ntp631
Rp632
(dp633
g13
g7
(g14
g9
Ntp634
Rp635
sg17
g18
sg19
(lp636
F12.11039
aF54.0906
asg21
(dp637
sbsg23
S'20.05.2012 (11:59:04)'
p638
sg24
Nsg25
g628
sbsS'192.168.1.74'
p639
(iprimitives
AccesPoint
p640
(dp641
g4
Nsg5
I3
sg6
g7
(g8
g9
Ntp642
Rp643
(dp644
g13
g7
(g14
g9
Ntp645
Rp646
sg17
g18
sg19
(lp647
g35
ag35
asg21
(dp648
sbsg23
S'10.08.2011 (18:41:04)'
p649
sg24
Nsg25
g639
sbsS'192.168.1.77'
p650
(iprimitives
AccesPoint
p651
(dp652
g62
I1
sg63
S'OpenWrt(white russian  0.9-ON5)'
p653
sg4
I0
sg5
I3
sg65
g272
sg6
g7
(g8
g9
Ntp654
Rp655
(dp656
g13
g7
(g14
g9
Ntp657
Rp658
sg17
g18
sg19
(lp659
F12.266901
aF53.983241
asg21
(dp660
sbsg23
S'20.05.2012 (16:57:04)'
p661
sg24
I0
sg25
g650
sbsS'192.168.1.76'
p662
(iprimitives
AccesPoint
p663
(dp664
g4
Nsg5
I3
sg6
g7
(g8
g9
Ntp665
Rp666
(dp667
g13
g7
(g14
g9
Ntp668
Rp669
sg17
g18
sg19
(lp670
F12.11079
aF54.09058
asg21
(dp671
sbsg23
S'06.04.2011 (02:18:04)'
p672
sg24
Nsg25
g662
sbsS'192.168.1.71'
p673
(iprimitives
AccesPoint
p674
(dp675
g4
Nsg5
I3
sg6
g7
(g8
g9
Ntp676
Rp677
(dp678
g13
g7
(g14
g9
Ntp679
Rp680
sg17
g18
sg19
(lp681
g35
ag35
asg21
(dp682
sbsg23
S'08.05.2012 (10:35:04)'
p683
sg24
Nsg25
g673
sbsS'192.168.1.70'
p684
(iprimitives
AccesPoint
p685
(dp686
g4
Nsg5
I3
sg6
g7
(g8
g9
Ntp687
Rp688
(dp689
g13
g7
(g14
g9
Ntp690
Rp691
sg17
g18
sg19
(lp692
F12.131053
aF54.140876
asg21
(dp693
sbsg23
S'18.05.2012 (12:39:04)'
p694
sg24
Nsg25
g684
sbsS'192.168.1.73'
p695
(iprimitives
AccesPoint
p696
(dp697
g4
Nsg5
I3
sg6
g7
(g8
g9
Ntp698
Rp699
(dp700
g13
g7
(g14
g9
Ntp701
Rp702
sg17
g18
sg19
(lp703
F12.111648
aF54.09185
asg21
(dp704
sbsg23
S'20.05.2012 (16:49:04)'
p705
sg24
Nsg25
g695
sbsS'192.168.1.72'
p706
(iprimitives
AccesPoint
p707
(dp708
g4
Nsg5
Nsg6
g7
(g8
g9
Ntp709
Rp710
(dp711
g13
g7
(g14
g9
Ntp712
Rp713
sg17
g18
sg19
(lp714
F12.101912
aF54.116987
asg21
(dp715
sbsg23
Nsg24
Nsg25
g706
sbsS'192.168.1.197'
p716
(iprimitives
AccesPoint
p717
(dp718
g4
Nsg5
I3
sg6
g7
(g8
g9
Ntp719
Rp720
(dp721
g13
g7
(g14
g9
Ntp722
Rp723
sg17
g18
sg19
(lp724
F12.189953
aF54.005524
asg21
(dp725
sbsg23
S'20.05.2012 (16:57:04)'
p726
sg24
Nsg25
g716
sbsS'192.168.1.196'
p727
(iprimitives
AccesPoint
p728
(dp729
g4
Nsg5
I3
sg6
g7
(g8
g9
Ntp730
Rp731
(dp732
g13
g7
(g14
g9
Ntp733
Rp734
sg17
g18
sg19
(lp735
F12.145455
aF54.090818
asg21
(dp736
sbsg23
S'21.09.2010 (08:12:04)'
p737
sg24
Nsg25
g727
sbsS'192.168.1.195'
p738
(iprimitives
AccesPoint
p739
(dp740
g62
I1
sg63
S'OpenWrt(white russian  0.9-ON6)'
p741
sg4
I0
sg5
I3
sg65
g272
sg6
g7
(g8
g9
Ntp742
Rp743
(dp744
g13
g7
(g14
g9
Ntp745
Rp746
sg17
g18
sg19
(lp747
F12.119126
aF54.075052
asg21
(dp748
sbsg23
S'20.05.2012 (16:56:04)'
p749
sg24
I0
sg25
g738
sbsS'192.168.1.194'
p750
(iprimitives
AccesPoint
p751
(dp752
g62
I1
sg63
S'OpenWrt(white russian  0.9-ON5)'
p753
sg4
I0
sg5
I3
sg65
g170
sg6
g7
(g8
g9
Ntp754
Rp755
(dp756
g13
g7
(g14
g9
Ntp757
Rp758
sg17
g18
sg19
(lp759
F12.109594
aF54.090749
asg21
(dp760
sbsg23
S'20.05.2012 (16:56:04)'
p761
sg24
I0
sg25
g750
sbsS'192.168.1.218'
p762
(iprimitives
AccesPoint
p763
(dp764
g4
Nsg5
I3
sg6
g7
(g8
g9
Ntp765
Rp766
(dp767
g13
g7
(g14
g9
Ntp768
Rp769
sg17
g18
sg19
(lp770
F12.156587
aF54.025923
asg21
(dp771
sbsg23
S'20.05.2012 (16:57:04)'
p772
sg24
Nsg25
g762
sbsS'192.168.1.192'
p773
(iprimitives
AccesPoint
p774
(dp775
g4
Nsg5
I3
sg6
g7
(g8
g9
Ntp776
Rp777
(dp778
g13
g7
(g14
g9
Ntp779
Rp780
sg17
g18
sg19
(lp781
F12.120475
aF54.072473
asg21
(dp782
sbsg23
S'20.05.2012 (16:56:04)'
p783
sg24
Nsg25
g773
sbsS'192.168.1.191'
p784
(iprimitives
AccesPoint
p785
(dp786
g4
Nsg5
I3
sg6
g7
(g8
g9
Ntp787
Rp788
(dp789
g13
g7
(g14
g9
Ntp790
Rp791
sg17
g18
sg19
(lp792
g35
ag35
asg21
(dp793
sbsg23
S'01.04.2011 (03:52:04)'
p794
sg24
Nsg25
g784
sbsS'192.168.1.190'
p795
(iprimitives
AccesPoint
p796
(dp797
g4
Nsg5
I3
sg6
g7
(g8
g9
Ntp798
Rp799
(dp800
g13
g7
(g14
g9
Ntp801
Rp802
sg17
g18
sg19
(lp803
F12.212269
aF54.047138
asg21
(dp804
sbsg23
S'19.11.2011 (01:46:04)'
p805
sg24
Nsg25
g795
sbsS'192.168.1.214'
p806
(iprimitives
AccesPoint
p807
(dp808
g4
Nsg5
I3
sg6
g7
(g8
g9
Ntp809
Rp810
(dp811
g13
g7
(g14
g9
Ntp812
Rp813
sg17
g18
sg19
(lp814
F12.155889
aF54.025394
asg21
(dp815
sbsg23
S'20.05.2012 (16:57:04)'
p816
sg24
Nsg25
g806
sbsS'192.168.1.215'
p817
(iprimitives
AccesPoint
p818
(dp819
g4
Nsg5
I3
sg6
g7
(g8
g9
Ntp820
Rp821
(dp822
g13
g7
(g14
g9
Ntp823
Rp824
sg17
g18
sg19
(lp825
F12.154484
aF54.025192
asg21
(dp826
sbsg23
S'20.05.2012 (16:57:04)'
p827
sg24
Nsg25
g817
sbsS'192.168.1.216'
p828
(iprimitives
AccesPoint
p829
(dp830
g4
Nsg5
I3
sg6
g7
(g8
g9
Ntp831
Rp832
(dp833
g13
g7
(g14
g9
Ntp834
Rp835
sg17
g18
sg19
(lp836
F12.156329
aF54.025583
asg21
(dp837
sbsg23
S'03.09.2011 (11:20:04)'
p838
sg24
Nsg25
g828
sbsS'192.168.1.217'
p839
(iprimitives
AccesPoint
p840
(dp841
g62
I1
sg63
S'OpenWrt(white russian  0.9-ON5)'
p842
sg4
I0
sg5
I3
sg65
g272
sg6
g7
(g8
g9
Ntp843
Rp844
(dp845
g13
g7
(g14
g9
Ntp846
Rp847
sg17
g18
sg19
(lp848
F12.477551
aF53.756704
asg21
(dp849
sbsg23
S'20.05.2012 (16:57:04)'
p850
sg24
I0
sg25
g839
sbsS'192.168.1.210'
p851
(iprimitives
AccesPoint
p852
(dp853
g4
Nsg5
Nsg6
g7
(g8
g9
Ntp854
Rp855
(dp856
g13
g7
(g14
g9
Ntp857
Rp858
sg17
g18
sg19
(lp859
g35
ag35
asg21
(dp860
sbsg23
Nsg24
Nsg25
g851
sbsS'192.168.1.211'
p861
(iprimitives
AccesPoint
p862
(dp863
g4
Nsg5
Nsg6
g7
(g8
g9
Ntp864
Rp865
(dp866
g13
g7
(g14
g9
Ntp867
Rp868
sg17
g18
sg19
(lp869
g35
ag35
asg21
(dp870
sbsg23
Nsg24
Nsg25
g861
sbsS'192.168.1.212'
p871
(iprimitives
AccesPoint
p872
(dp873
g62
I1
sg63
S'OpenWrt(white russian  0.9-ON5)'
p874
sg4
I0
sg5
I3
sg65
g272
sg6
g7
(g8
g9
Ntp875
Rp876
(dp877
g13
g7
(g14
g9
Ntp878
Rp879
sg17
g18
sg19
(lp880
F12.105091
aF54.092238
asg21
(dp881
sbsg23
S'20.05.2012 (16:57:04)'
p882
sg24
I1
sg25
g871
sbsS'192.168.1.198'
p883
(iprimitives
AccesPoint
p884
(dp885
g62
I1
sg63
S'OpenWrt(white russian  0.9-ON5)'
p886
sg4
I0
sg5
I3
sg65
g272
sg6
g7
(g8
g9
Ntp887
Rp888
(dp889
g13
g7
(g14
g9
Ntp890
Rp891
sg17
g18
sg19
(lp892
F12.158496
aF54.027789
asg21
(dp893
sbsg23
S'20.05.2012 (16:57:04)'
p894
sg24
I0
sg25
g883
sbsS'192.168.1.93'
p895
(iprimitives
AccesPoint
p896
(dp897
g4
Nsg5
I3
sg6
g7
(g8
g9
Ntp898
Rp899
(dp900
g13
g7
(g14
g9
Ntp901
Rp902
sg17
g18
sg19
(lp903
g35
ag35
asg21
(dp904
sbsg23
S'02.08.2011 (16:07:04)'
p905
sg24
Nsg25
g895
sbsS'192.168.1.92'
p906
(iprimitives
AccesPoint
p907
(dp908
g4
Nsg5
I3
sg6
g7
(g8
g9
Ntp909
Rp910
(dp911
g13
g7
(g14
g9
Ntp912
Rp913
sg17
g18
sg19
(lp914
F12.109509
aF54.105027
asg21
(dp915
sbsg23
S'06.05.2012 (08:43:04)'
p916
sg24
Nsg25
g906
sbsS'192.168.1.91'
p917
(iprimitives
AccesPoint
p918
(dp919
g4
Nsg5
I3
sg6
g7
(g8
g9
Ntp920
Rp921
(dp922
g13
g7
(g14
g9
Ntp923
Rp924
sg17
g18
sg19
(lp925
F12.153625
aF54.025722
asg21
(dp926
sbsg23
S'20.05.2012 (16:57:04)'
p927
sg24
Nsg25
g917
sbsS'192.168.1.90'
p928
(iprimitives
AccesPoint
p929
(dp930
g62
I0
sg63
S'OpenWrt(white russian  0.9-ON5)'
p931
sg4
I0
sg5
I3
sg65
g272
sg6
g7
(g8
g9
Ntp932
Rp933
(dp934
g13
g7
(g14
g9
Ntp935
Rp936
sg17
g18
sg19
(lp937
F12.370595
aF54.273441
asg21
(dp938
sbsg23
S'20.05.2012 (16:57:04)'
p939
sg24
I1
sg25
g928
sbsS'192.168.1.97'
p940
(iprimitives
AccesPoint
p941
(dp942
g62
I0
sg63
S'AirOS(XM.v5.2.1 )'
p943
sg4
I0
sg5
I3
sg65
g135
sg6
g7
(g8
g9
Ntp944
Rp945
(dp946
g13
g7
(g14
g9
Ntp947
Rp948
sg17
g18
sg19
(lp949
F11.415916
aF53.630815
asg21
(dp950
sbsg23
S'20.05.2012 (16:57:04)'
p951
sg24
I0
sg25
g940
sbsS'192.168.1.96'
p952
(iprimitives
AccesPoint
p953
(dp954
g4
Nsg5
I3
sg6
g7
(g8
g9
Ntp955
Rp956
(dp957
g13
g7
(g14
g9
Ntp958
Rp959
sg17
g18
sg19
(lp960
F12.21376
aF54.04827
asg21
(dp961
sbsg23
S'05.09.2011 (06:25:04)'
p962
sg24
Nsg25
g952
sbsS'192.168.1.95'
p963
(iprimitives
AccesPoint
p964
(dp965
g4
Nsg5
I3
sg6
g7
(g8
g9
Ntp966
Rp967
(dp968
g13
g7
(g14
g9
Ntp969
Rp970
sg17
g18
sg19
(lp971
F12.123874
aF54.093115
asg21
(dp972
sbsg23
S'20.05.2012 (16:57:04)'
p973
sg24
Nsg25
g963
sbsS'192.168.1.94'
p974
(iprimitives
AccesPoint
p975
(dp976
g4
Nsg5
I3
sg6
g7
(g8
g9
Ntp977
Rp978
(dp979
g13
g7
(g14
g9
Ntp980
Rp981
sg17
g18
sg19
(lp982
g35
ag35
asg21
(dp983
sbsg23
S'22.03.2012 (21:14:04)'
p984
sg24
Nsg25
g974
sbsS'192.168.1.99'
p985
(iprimitives
AccesPoint
p986
(dp987
g4
Nsg5
I3
sg6
g7
(g8
g9
Ntp988
Rp989
(dp990
g13
g7
(g14
g9
Ntp991
Rp992
sg17
g18
sg19
(lp993
g35
ag35
asg21
(dp994
sbsg23
S'26.06.2011 (13:38:04)'
p995
sg24
Nsg25
g985
sbsS'192.168.1.98'
p996
(iprimitives
AccesPoint
p997
(dp998
g62
I0
sg63
S'OpenWrt(white russian  0.9-ON5)'
p999
sg4
I0
sg5
I3
sg65
S'Buffalo WHR-G54s'
p1000
sg6
g7
(g8
g9
Ntp1001
Rp1002
(dp1003
g13
g7
(g14
g9
Ntp1004
Rp1005
sg17
g18
sg19
(lp1006
F12.156973
aF54.0261
asg21
(dp1007
sbsg23
S'20.05.2012 (16:57:04)'
p1008
sg24
I0
sg25
g996
sbsS'192.168.2.41'
p1009
(iprimitives
AccesPoint
p1010
(dp1011
g4
Nsg5
I3
sg6
g7
(g8
g9
Ntp1012
Rp1013
(dp1014
g13
g7
(g14
g9
Ntp1015
Rp1016
sg17
g18
sg19
(lp1017
F12.11647
aF54.088603
asg21
(dp1018
sbsg23
S'20.05.2012 (16:57:04)'
p1019
sg24
Nsg25
g1009
sbsS'192.168.2.40'
p1020
(iprimitives
AccesPoint
p1021
(dp1022
g4
Nsg5
I3
sg6
g7
(g8
g9
Ntp1023
Rp1024
(dp1025
g13
g7
(g14
g9
Ntp1026
Rp1027
sg17
g18
sg19
(lp1028
F12.115018
aF54.088
asg21
(dp1029
sbsg23
S'20.05.2012 (16:57:04)'
p1030
sg24
Nsg25
g1020
sbsS'192.168.2.43'
p1031
(iprimitives
AccesPoint
p1032
(dp1033
g4
Nsg5
I3
sg6
g7
(g8
g9
Ntp1034
Rp1035
(dp1036
g13
g7
(g14
g9
Ntp1037
Rp1038
sg17
g18
sg19
(lp1039
F12.159805
aF54.076387
asg21
(dp1040
sbsg23
S'20.05.2012 (16:57:04)'
p1041
sg24
Nsg25
g1031
sbsS'192.168.2.42'
p1042
(iprimitives
AccesPoint
p1043
(dp1044
g4
Nsg5
I3
sg6
g7
(g8
g9
Ntp1045
Rp1046
(dp1047
g13
g7
(g14
g9
Ntp1048
Rp1049
sg17
g18
sg19
(lp1050
F12.116877
aF54.088523
asg21
(dp1051
sbsg23
S'20.05.2012 (16:57:04)'
p1052
sg24
Nsg25
g1042
sbsS'192.168.1.179'
p1053
(iprimitives
AccesPoint
p1054
(dp1055
g4
Nsg5
I3
sg6
g7
(g8
g9
Ntp1056
Rp1057
(dp1058
g13
g7
(g14
g9
Ntp1059
Rp1060
sg17
g18
sg19
(lp1061
F12.123327
aF54.091429
asg21
(dp1062
sbsg23
S'20.05.2012 (16:56:04)'
p1063
sg24
Nsg25
g1053
sbsS'192.168.1.178'
p1064
(iprimitives
AccesPoint
p1065
(dp1066
g4
Nsg5
I3
sg6
g7
(g8
g9
Ntp1067
Rp1068
(dp1069
g13
g7
(g14
g9
Ntp1070
Rp1071
sg17
g18
sg19
(lp1072
F12.212098
aF54.047503
asg21
(dp1073
sbsg23
S'24.12.2011 (21:23:04)'
p1074
sg24
Nsg25
g1064
sbsS'192.168.2.47'
p1075
(iprimitives
AccesPoint
p1076
(dp1077
g4
Nsg5
Nsg6
g7
(g8
g9
Ntp1078
Rp1079
(dp1080
g13
g7
(g14
g9
Ntp1081
Rp1082
sg17
g18
sg19
(lp1083
F12.14219
aF54.0669
asg21
(dp1084
sbsg23
Nsg24
Nsg25
g1075
sbsS'192.168.2.46'
p1085
(iprimitives
AccesPoint
p1086
(dp1087
g4
Nsg5
I3
sg6
g7
(g8
g9
Ntp1088
Rp1089
(dp1090
g13
g7
(g14
g9
Ntp1091
Rp1092
sg17
g18
sg19
(lp1093
F12.158861
aF54.074675
asg21
(dp1094
sbsg23
S'20.05.2012 (16:57:04)'
p1095
sg24
Nsg25
g1085
sbsS'192.168.1.175'
p1096
(iprimitives
AccesPoint
p1097
(dp1098
g4
Nsg5
I3
sg6
g7
(g8
g9
Ntp1099
Rp1100
(dp1101
g13
g7
(g14
g9
Ntp1102
Rp1103
sg17
g18
sg19
(lp1104
F12.110624
aF54.090913
asg21
(dp1105
sbsg23
S'20.05.2012 (11:59:04)'
p1106
sg24
Nsg25
g1096
sbsS'192.168.1.174'
p1107
(iprimitives
AccesPoint
p1108
(dp1109
g62
I0
sg63
S'OpenWrt(white russian  0.9-ON5)'
p1110
sg4
I0
sg5
I3
sg65
g170
sg6
g7
(g8
g9
Ntp1111
Rp1112
(dp1113
g13
g7
(g14
g9
Ntp1114
Rp1115
sg17
g18
sg19
(lp1116
F12.12293
aF54.091366
asg21
(dp1117
sbsg23
S'20.05.2012 (16:56:04)'
p1118
sg24
I0
sg25
g1107
sbsS'192.168.1.177'
p1119
(iprimitives
AccesPoint
p1120
(dp1121
g4
Nsg5
I3
sg6
g7
(g8
g9
Ntp1122
Rp1123
(dp1124
g13
g7
(g14
g9
Ntp1125
Rp1126
sg17
g18
sg19
(lp1127
F12.098536
aF54.092901
asg21
(dp1128
sbsg23
S'20.05.2012 (16:56:04)'
p1129
sg24
Nsg25
g1119
sbsS'192.168.1.176'
p1130
(iprimitives
AccesPoint
p1131
(dp1132
g4
Nsg5
I3
sg6
g7
(g8
g9
Ntp1133
Rp1134
(dp1135
g13
g7
(g14
g9
Ntp1136
Rp1137
sg17
g18
sg19
(lp1138
F12.11704
aF54.09401
asg21
(dp1139
sbsg23
S'08.06.2011 (09:23:04)'
p1140
sg24
Nsg25
g1130
sbsS'192.168.1.171'
p1141
(iprimitives
AccesPoint
p1142
(dp1143
g62
I0
sg63
S'OpenWrt(white russian  0.9-ON5)'
p1144
sg4
I0
sg5
I3
sg65
g272
sg6
g7
(g8
g9
Ntp1145
Rp1146
(dp1147
g13
g7
(g14
g9
Ntp1148
Rp1149
sg17
g18
sg19
(lp1150
F12.12038
aF54.07247
asg21
(dp1151
sbsg23
S'20.05.2012 (16:56:04)'
p1152
sg24
I0
sg25
g1141
sbsS'192.168.1.170'
p1153
(iprimitives
AccesPoint
p1154
(dp1155
g62
I0
sg63
S'OpenWrt(white russian  0.9-ON5)'
p1156
sg4
I0
sg5
I3
sg65
g170
sg6
g7
(g8
g9
Ntp1157
Rp1158
(dp1159
g13
g7
(g14
g9
Ntp1160
Rp1161
sg17
g18
sg19
(lp1162
F12.098308
aF54.092775
asg21
(dp1163
sbsg23
S'20.05.2012 (16:56:04)'
p1164
sg24
I0
sg25
g1153
sbsS'192.168.1.173'
p1165
(iprimitives
AccesPoint
p1166
(dp1167
g4
Nsg5
I3
sg6
g7
(g8
g9
Ntp1168
Rp1169
(dp1170
g13
g7
(g14
g9
Ntp1171
Rp1172
sg17
g18
sg19
(lp1173
F12.10439
aF54.08125
asg21
(dp1174
sbsg23
S'20.05.2012 (16:56:04)'
p1175
sg24
Nsg25
g1165
sbsS'192.168.1.172'
p1176
(iprimitives
AccesPoint
p1177
(dp1178
g62
I1
sg63
S'OpenWrt(backfire 10.03.1-RC6)'
p1179
sg4
I0
sg5
I3
sg65
g170
sg6
g7
(g8
g9
Ntp1180
Rp1181
(dp1182
g13
g7
(g14
g9
Ntp1183
Rp1184
sg17
g18
sg19
(lp1185
F12.116523
aF54.088523
asg21
(dp1186
sbsg23
S'20.05.2012 (16:56:04)'
p1187
sg24
I0
sg25
g1176
sbsS'192.168.2.13'
p1188
(iprimitives
AccesPoint
p1189
(dp1190
g4
Nsg5
Nsg6
g7
(g8
g9
Ntp1191
Rp1192
(dp1193
g13
g7
(g14
g9
Ntp1194
Rp1195
sg17
g18
sg19
(lp1196
F12.15857
aF54.02775
asg21
(dp1197
sbsg23
Nsg24
Nsg25
g1188
sbsS'192.168.1.180'
p1198
(iprimitives
AccesPoint
p1199
(dp1200
g4
Nsg5
I3
sg6
g7
(g8
g9
Ntp1201
Rp1202
(dp1203
g13
g7
(g14
g9
Ntp1204
Rp1205
sg17
g18
sg19
(lp1206
F12.21106
aF54.048478
asg21
(dp1207
sbsg23
S'08.09.2011 (20:07:04)'
p1208
sg24
Nsg25
g1198
sbsS'192.168.1.181'
p1209
(iprimitives
AccesPoint
p1210
(dp1211
g4
Nsg5
I3
sg6
g7
(g8
g9
Ntp1212
Rp1213
(dp1214
g13
g7
(g14
g9
Ntp1215
Rp1216
sg17
g18
sg19
(lp1217
F12.112389
aF54.093061
asg21
(dp1218
sbsg23
S'31.03.2012 (03:20:04)'
p1219
sg24
Nsg25
g1209
sbsS'192.168.1.182'
p1220
(iprimitives
AccesPoint
p1221
(dp1222
g4
Nsg5
I3
sg6
g7
(g8
g9
Ntp1223
Rp1224
(dp1225
g13
g7
(g14
g9
Ntp1226
Rp1227
sg17
g18
sg19
(lp1228
F12.10766
aF54.07675
asg21
(dp1229
sbsg23
S'09.12.2011 (12:00:04)'
p1230
sg24
Nsg25
g1220
sbsS'192.168.1.183'
p1231
(iprimitives
AccesPoint
p1232
(dp1233
g62
I0
sg63
S'OpenWrt(backfire 10.03.1-RC6)'
p1234
sg4
I0
sg5
I3
sg65
S'Avila'
p1235
sg6
g7
(g8
g9
Ntp1236
Rp1237
(dp1238
g13
g7
(g14
g9
Ntp1239
Rp1240
sg17
g18
sg19
(lp1241
F12.123091
aF54.090913
asg21
(dp1242
sbsg23
S'20.05.2012 (16:56:04)'
p1243
sg24
I0
sg25
g1231
sbsS'192.168.1.184'
p1244
(iprimitives
AccesPoint
p1245
(dp1246
g62
I0
sg63
S'OpenWrt(backfire 10.03.1-RC6)'
p1247
sg4
I0
sg5
I3
sg65
S'WRAP 2E-E'
p1248
sg6
g7
(g8
g9
Ntp1249
Rp1250
(dp1251
g13
g7
(g14
g9
Ntp1252
Rp1253
sg17
g18
sg19
(lp1254
g35
ag35
asg21
(dp1255
sbsg23
S'08.05.2012 (21:49:04)'
p1256
sg24
I0
sg25
g1244
sbsS'192.168.1.185'
p1257
(iprimitives
AccesPoint
p1258
(dp1259
g62
I0
sg63
S'OpenWrt(backfire 10.03.1-RC6)'
p1260
sg4
I0
sg5
I3
sg65
g1248
sg6
g7
(g8
g9
Ntp1261
Rp1262
(dp1263
g13
g7
(g14
g9
Ntp1264
Rp1265
sg17
g18
sg19
(lp1266
F12.116877
aF54.088677
asg21
(dp1267
sbsg23
S'20.05.2012 (16:56:04)'
p1268
sg24
I0
sg25
g1257
sbsS'192.168.1.186'
p1269
(iprimitives
AccesPoint
p1270
(dp1271
g4
Nsg5
I3
sg6
g7
(g8
g9
Ntp1272
Rp1273
(dp1274
g13
g7
(g14
g9
Ntp1275
Rp1276
sg17
g18
sg19
(lp1277
g35
ag35
asg21
(dp1278
sbsg23
S'08.05.2012 (20:46:04)'
p1279
sg24
Nsg25
g1269
sbsS'192.168.1.187'
p1280
(iprimitives
AccesPoint
p1281
(dp1282
g4
Nsg5
I3
sg6
g7
(g8
g9
Ntp1283
Rp1284
(dp1285
g13
g7
(g14
g9
Ntp1286
Rp1287
sg17
g18
sg19
(lp1288
F12.120597
aF54.072364
asg21
(dp1289
sbsg23
S'20.05.2012 (16:56:04)'
p1290
sg24
Nsg25
g1280
sbsS'192.168.1.188'
p1291
(iprimitives
AccesPoint
p1292
(dp1293
g4
Nsg5
I3
sg6
g7
(g8
g9
Ntp1294
Rp1295
(dp1296
g13
g7
(g14
g9
Ntp1297
Rp1298
sg17
g18
sg19
(lp1299
g35
ag35
asg21
(dp1300
sbsg23
S'08.05.2012 (10:36:04)'
p1301
sg24
Nsg25
g1291
sbsS'192.168.1.189'
p1302
(iprimitives
AccesPoint
p1303
(dp1304
g4
Nsg5
I3
sg6
g7
(g8
g9
Ntp1305
Rp1306
(dp1307
g13
g7
(g14
g9
Ntp1308
Rp1309
sg17
g18
sg19
(lp1310
F12.295482
aF54.005653
asg21
(dp1311
sbsg23
S'26.11.2011 (11:15:04)'
p1312
sg24
Nsg25
g1302
sbsS'192.168.1.219'
p1313
(iprimitives
AccesPoint
p1314
(dp1315
g4
Nsg5
I3
sg6
g7
(g8
g9
Ntp1316
Rp1317
(dp1318
g13
g7
(g14
g9
Ntp1319
Rp1320
sg17
g18
sg19
(lp1321
g35
ag35
asg21
(dp1322
sbsg23
S'23.05.2011 (22:37:04)'
p1323
sg24
Nsg25
g1313
sbsS'192.168.2.28'
p1324
(iprimitives
AccesPoint
p1325
(dp1326
g4
Nsg5
Nsg6
g7
(g8
g9
Ntp1327
Rp1328
(dp1329
g13
g7
(g14
g9
Ntp1330
Rp1331
sg17
g18
sg19
(lp1332
F12.10766
aF54.07657
asg21
(dp1333
sbsg23
Nsg24
Nsg25
g1324
sbsS'192.168.2.26'
p1334
(iprimitives
AccesPoint
p1335
(dp1336
g4
Nsg5
Nsg6
g7
(g8
g9
Ntp1337
Rp1338
(dp1339
g13
g7
(g14
g9
Ntp1340
Rp1341
sg17
g18
sg19
(lp1342
F12.10766
aF54.07657
asg21
(dp1343
sbsg23
Nsg24
Nsg25
g1334
sbsS'192.168.2.21'
p1344
(iprimitives
AccesPoint
p1345
(dp1346
g4
Nsg5
Nsg6
g7
(g8
g9
Ntp1347
Rp1348
(dp1349
g13
g7
(g14
g9
Ntp1350
Rp1351
sg17
g18
sg19
(lp1352
F12.11588
aF54.07454
asg21
(dp1353
sbsg23
Nsg24
Nsg25
g1344
sbsS'192.168.2.25'
p1354
(iprimitives
AccesPoint
p1355
(dp1356
g4
Nsg5
Nsg6
g7
(g8
g9
Ntp1357
Rp1358
(dp1359
g13
g7
(g14
g9
Ntp1360
Rp1361
sg17
g18
sg19
(lp1362
F12.10766
aF54.07657
asg21
(dp1363
sbsg23
Nsg24
Nsg25
g1354
sbsS'192.168.2.24'
p1364
(iprimitives
AccesPoint
p1365
(dp1366
g4
Nsg5
Nsg6
g7
(g8
g9
Ntp1367
Rp1368
(dp1369
g13
g7
(g14
g9
Ntp1370
Rp1371
sg17
g18
sg19
(lp1372
F12.10766
aF54.07657
asg21
(dp1373
sbsg23
Nsg24
Nsg25
g1364
sbsS'192.168.2.27'
p1374
(iprimitives
AccesPoint
p1375
(dp1376
g4
Nsg5
Nsg6
g7
(g8
g9
Ntp1377
Rp1378
(dp1379
g13
g7
(g14
g9
Ntp1380
Rp1381
sg17
g18
sg19
(lp1382
F12.10766
aF54.07657
asg21
(dp1383
sbsg23
Nsg24
Nsg25
g1374
sbsS'192.168.1.168'
p1384
(iprimitives
AccesPoint
p1385
(dp1386
g4
Nsg5
I3
sg6
g7
(g8
g9
Ntp1387
Rp1388
(dp1389
g13
g7
(g14
g9
Ntp1390
Rp1391
sg17
g18
sg19
(lp1392
F12.119626
aF54.088027
asg21
(dp1393
sbsg23
S'26.11.2011 (13:26:04)'
p1394
sg24
Nsg25
g1384
sbsS'192.168.1.169'
p1395
(iprimitives
AccesPoint
p1396
(dp1397
g4
Nsg5
I3
sg6
g7
(g8
g9
Ntp1398
Rp1399
(dp1400
g13
g7
(g14
g9
Ntp1401
Rp1402
sg17
g18
sg19
(lp1403
F12.051036
aF54.139198
asg21
(dp1404
sbsg23
S'09.03.2012 (17:53:04)'
p1405
sg24
Nsg25
g1395
sbsS'192.168.1.166'
p1406
(iprimitives
AccesPoint
p1407
(dp1408
g4
Nsg5
I3
sg6
g7
(g8
g9
Ntp1409
Rp1410
(dp1411
g13
g7
(g14
g9
Ntp1412
Rp1413
sg17
g18
sg19
(lp1414
F12.26557
aF53.985181
asg21
(dp1415
sbsg23
S'20.05.2012 (16:56:04)'
p1416
sg24
Nsg25
g1406
sbsS'192.168.1.167'
p1417
(iprimitives
AccesPoint
p1418
(dp1419
g4
Nsg5
I3
sg6
g7
(g8
g9
Ntp1420
Rp1421
(dp1422
g13
g7
(g14
g9
Ntp1423
Rp1424
sg17
g18
sg19
(lp1425
F12.098436
aF54.092901
asg21
(dp1426
sbsg23
S'09.05.2012 (07:35:04)'
p1427
sg24
Nsg25
g1417
sbsS'192.168.1.164'
p1428
(iprimitives
AccesPoint
p1429
(dp1430
g4
Nsg5
Nsg6
g7
(g8
g9
Ntp1431
Rp1432
(dp1433
g13
g7
(g14
g9
Ntp1434
Rp1435
sg17
g18
sg19
(lp1436
F12.14839
aF54.090107
asg21
(dp1437
sbsg23
Nsg24
Nsg25
g1428
sbsS'192.168.1.165'
p1438
(iprimitives
AccesPoint
p1439
(dp1440
g62
I0
sg63
S'OpenWrt(white russian  0.9-ON5)'
p1441
sg4
I0
sg5
I3
sg65
g272
sg6
g7
(g8
g9
Ntp1442
Rp1443
(dp1444
g13
g7
(g14
g9
Ntp1445
Rp1446
sg17
g18
sg19
(lp1447
F12.098308
aF54.092875
asg21
(dp1448
sbsg23
S'20.05.2012 (16:56:04)'
p1449
sg24
I0
sg25
g1438
sbsS'192.168.1.162'
p1450
(iprimitives
AccesPoint
p1451
(dp1452
g62
I0
sg63
S'AirOS(XM.v5.3.3 )'
p1453
sg4
I0
sg5
I3
sg65
g135
sg6
g7
(g8
g9
Ntp1454
Rp1455
(dp1456
g13
g7
(g14
g9
Ntp1457
Rp1458
sg17
g18
sg19
(lp1459
F12.116603
aF54.08847
asg21
(dp1460
sbsg23
S'20.05.2012 (16:56:04)'
p1461
sg24
I0
sg25
g1450
sbsS'192.168.1.163'
p1462
(iprimitives
AccesPoint
p1463
(dp1464
g4
Nsg5
I3
sg6
g7
(g8
g9
Ntp1465
Rp1466
(dp1467
g13
g7
(g14
g9
Ntp1468
Rp1469
sg17
g18
sg19
(lp1470
F12.210534
aF54.047865
asg21
(dp1471
sbsg23
S'31.03.2012 (07:41:04)'
p1472
sg24
Nsg25
g1462
sbsS'192.168.1.160'
p1473
(iprimitives
AccesPoint
p1474
(dp1475
g4
Nsg5
I3
sg6
g7
(g8
g9
Ntp1476
Rp1477
(dp1478
g13
g7
(g14
g9
Ntp1479
Rp1480
sg17
g18
sg19
(lp1481
F12.112389
aF54.093061
asg21
(dp1482
sbsg23
S'17.07.2011 (10:41:04)'
p1483
sg24
Nsg25
g1473
sbsS'192.168.1.23'
p1484
(iprimitives
AccesPoint
p1485
(dp1486
g62
I1
sg63
S'OpenWrt(backfire 10.03.1)'
p1487
sg4
I1
sg5
I3
sg65
S'TP-LINK TL-WR1043ND'
p1488
sg6
g7
(g8
g9
Ntp1489
Rp1490
(dp1491
g13
g7
(g14
g9
Ntp1492
Rp1493
sg17
g18
sg19
(lp1494
F12.122941
aF54.091479
asg21
(dp1495
sbsg23
S'20.05.2012 (16:57:04)'
p1496
sg24
I0
sg25
g1484
sbsS'192.168.2.34'
p1497
(iprimitives
AccesPoint
p1498
(dp1499
g4
Nsg5
Nsg6
g7
(g8
g9
Ntp1500
Rp1501
(dp1502
g13
g7
(g14
g9
Ntp1503
Rp1504
sg17
g18
sg19
(lp1505
g35
ag35
asg21
(dp1506
sbsg23
Nsg24
Nsg25
g1497
sbsS'192.168.1.122'
p1507
(iprimitives
AccesPoint
p1508
(dp1509
g4
Nsg5
I3
sg6
g7
(g8
g9
Ntp1510
Rp1511
(dp1512
g13
g7
(g14
g9
Ntp1513
Rp1514
sg17
g18
sg19
(lp1515
F12.1153
aF54.0875
asg21
(dp1516
sbsg23
S'20.05.2012 (16:56:04)'
p1517
sg24
Nsg25
g1507
sbsS'192.168.1.19'
p1518
(iprimitives
AccesPoint
p1519
(dp1520
g4
Nsg5
I3
sg6
g7
(g8
g9
Ntp1521
Rp1522
(dp1523
g13
g7
(g14
g9
Ntp1524
Rp1525
sg17
g18
sg19
(lp1526
g35
ag35
asg21
(dp1527
sbsg23
S'20.05.2012 (16:56:04)'
p1528
sg24
Nsg25
g1518
sbsS'192.168.2.37'
p1529
(iprimitives
AccesPoint
p1530
(dp1531
g4
Nsg5
I3
sg6
g7
(g8
g9
Ntp1532
Rp1533
(dp1534
g13
g7
(g14
g9
Ntp1535
Rp1536
sg17
g18
sg19
(lp1537
F12.129319
aF54.083801
asg21
(dp1538
sbsg23
S'20.05.2012 (16:57:04)'
p1539
sg24
Nsg25
g1529
sbsS'192.168.2.30'
p1540
(iprimitives
AccesPoint
p1541
(dp1542
g4
Nsg5
Nsg6
g7
(g8
g9
Ntp1543
Rp1544
(dp1545
g13
g7
(g14
g9
Ntp1546
Rp1547
sg17
g18
sg19
(lp1548
F12.10766
aF54.07657
asg21
(dp1549
sbsg23
Nsg24
Nsg25
g1540
sbsS'192.168.2.31'
p1550
(iprimitives
AccesPoint
p1551
(dp1552
g4
Nsg5
I3
sg6
g7
(g8
g9
Ntp1553
Rp1554
(dp1555
g13
g7
(g14
g9
Ntp1556
Rp1557
sg17
g18
sg19
(lp1558
F12.120597
aF54.072297
asg21
(dp1559
sbsg23
S'20.05.2012 (16:57:04)'
p1560
sg24
Nsg25
g1550
sbsS'192.168.2.32'
p1561
(iprimitives
AccesPoint
p1562
(dp1563
g4
Nsg5
I3
sg6
g7
(g8
g9
Ntp1564
Rp1565
(dp1566
g13
g7
(g14
g9
Ntp1567
Rp1568
sg17
g18
sg19
(lp1569
F12.210875
aF54.048445
asg21
(dp1570
sbsg23
S'31.03.2012 (07:45:04)'
p1571
sg24
Nsg25
g1561
sbsS'192.168.1.123'
p1572
(iprimitives
AccesPoint
p1573
(dp1574
g4
Nsg5
I3
sg6
g7
(g8
g9
Ntp1575
Rp1576
(dp1577
g13
g7
(g14
g9
Ntp1578
Rp1579
sg17
g18
sg19
(lp1580
F12.16791
aF54.09918
asg21
(dp1581
sbsg23
S'20.05.2012 (16:56:04)'
p1582
sg24
Nsg25
g1572
sbsS'192.168.1.13'
p1583
(iprimitives
AccesPoint
p1584
(dp1585
g4
Nsg5
Nsg6
g7
(g8
g9
Ntp1586
Rp1587
(dp1588
g13
g7
(g14
g9
Ntp1589
Rp1590
sg17
g18
sg19
(lp1591
F12.0987474918
aF54.0908873816
asg21
(dp1592
sbsg23
Nsg24
Nsg25
g1583
sbsS'192.168.1.12'
p1593
(iprimitives
AccesPoint
p1594
(dp1595
g4
Nsg5
I3
sg6
g7
(g8
g9
Ntp1596
Rp1597
(dp1598
g13
g7
(g14
g9
Ntp1599
Rp1600
sg17
g18
sg19
(lp1601
F12.11141
aF54.09238
asg21
(dp1602
sbsg23
S'20.05.2012 (16:56:04)'
p1603
sg24
Nsg25
g1593
sbsS'192.168.1.11'
p1604
(iprimitives
AccesPoint
p1605
(dp1606
g4
Nsg5
I3
sg6
g7
(g8
g9
Ntp1607
Rp1608
(dp1609
g13
g7
(g14
g9
Ntp1610
Rp1611
sg17
g18
sg19
(lp1612
F12.09902644
aF54.09096918
asg21
(dp1613
sbsg23
S'19.11.2011 (01:29:04)'
p1614
sg24
Nsg25
g1604
sbsS'192.168.1.10'
p1615
(iprimitives
AccesPoint
p1616
(dp1617
g62
I0
sg63
S'OpenWrt(backfire 10.03.1-RC6)'
p1618
sg4
I0
sg5
I3
sg65
g1235
sg6
g7
(g8
g9
Ntp1619
Rp1620
(dp1621
g13
g7
(g14
g9
Ntp1622
Rp1623
sg17
g18
sg19
(lp1624
F12.107926
aF54.071496
asg21
(dp1625
sbsg23
S'20.05.2012 (16:56:04)'
p1626
sg24
I0
sg25
g1615
sbsS'192.168.1.17'
p1627
(iprimitives
AccesPoint
p1628
(dp1629
g4
Nsg5
I3
sg6
g7
(g8
g9
Ntp1630
Rp1631
(dp1632
g13
g7
(g14
g9
Ntp1633
Rp1634
sg17
g18
sg19
(lp1635
F12.11704
aF54.09371
asg21
(dp1636
sbsg23
S'08.06.2011 (09:23:04)'
p1637
sg24
Nsg25
g1627
sbsS'192.168.1.120'
p1638
(iprimitives
AccesPoint
p1639
(dp1640
g4
Nsg5
I3
sg6
g7
(g8
g9
Ntp1641
Rp1642
(dp1643
g13
g7
(g14
g9
Ntp1644
Rp1645
sg17
g18
sg19
(lp1646
F12.1289
aF54.0818
asg21
(dp1647
sbsg23
S'20.05.2012 (16:56:04)'
p1648
sg24
Nsg25
g1638
sbsS'192.168.1.15'
p1649
(iprimitives
AccesPoint
p1650
(dp1651
g4
Nsg5
I3
sg6
g7
(g8
g9
Ntp1652
Rp1653
(dp1654
g13
g7
(g14
g9
Ntp1655
Rp1656
sg17
g18
sg19
(lp1657
F12.11033
aF54.08653
asg21
(dp1658
sbsg23
S'20.05.2012 (16:56:04)'
p1659
sg24
Nsg25
g1649
sbsS'192.168.1.14'
p1660
(iprimitives
AccesPoint
p1661
(dp1662
g4
Nsg5
I3
sg6
g7
(g8
g9
Ntp1663
Rp1664
(dp1665
g13
g7
(g14
g9
Ntp1666
Rp1667
sg17
g18
sg19
(lp1668
F12.11056
aF54.08644
asg21
(dp1669
sbsg23
S'21.11.2011 (03:10:04)'
p1670
sg24
Nsg25
g1660
sbsS'192.168.1.121'
p1671
(iprimitives
AccesPoint
p1672
(dp1673
g4
Nsg5
I3
sg6
g7
(g8
g9
Ntp1674
Rp1675
(dp1676
g13
g7
(g14
g9
Ntp1677
Rp1678
sg17
g18
sg19
(lp1679
F12.266112
aF53.983061
asg21
(dp1680
sbsg23
S'14.04.2012 (12:09:04)'
p1681
sg24
Nsg25
g1671
sbsS'192.168.1.199'
p1682
(iprimitives
AccesPoint
p1683
(dp1684
g62
I1
sg63
S'OpenWrt(white russian  0.9-ON5)'
p1685
sg4
I0
sg5
I3
sg65
g272
sg6
g7
(g8
g9
Ntp1686
Rp1687
(dp1688
g13
g7
(g14
g9
Ntp1689
Rp1690
sg17
g18
sg19
(lp1691
F12.15789
aF54.02789
asg21
(dp1692
sbsg23
S'20.05.2012 (16:57:04)'
p1693
sg24
I0
sg25
g1682
sbsS'192.168.1.101'
p1694
(iprimitives
AccesPoint
p1695
(dp1696
g62
I0
sg63
S'AirOS(XM.v5.2.1 )'
p1697
sg4
I0
sg5
I3
sg65
g135
sg6
g7
(g8
g9
Ntp1698
Rp1699
(dp1700
g13
g7
(g14
g9
Ntp1701
Rp1702
sg17
g18
sg19
(lp1703
F12.107945
aF54.07157
asg21
(dp1704
sbsg23
S'20.05.2012 (16:56:04)'
p1705
sg24
I0
sg25
g1694
sbsS'192.168.1.126'
p1706
(iprimitives
AccesPoint
p1707
(dp1708
g4
Nsg5
I3
sg6
g7
(g8
g9
Ntp1709
Rp1710
(dp1711
g13
g7
(g14
g9
Ntp1712
Rp1713
sg17
g18
sg19
(lp1714
F12.12048
aF54.072297
asg21
(dp1715
sbsg23
S'18.05.2012 (12:39:04)'
p1716
sg24
Nsg25
g1706
sbsS'192.168.1.213'
p1717
(iprimitives
AccesPoint
p1718
(dp1719
g4
Nsg5
I3
sg6
g7
(g8
g9
Ntp1720
Rp1721
(dp1722
g13
g7
(g14
g9
Ntp1723
Rp1724
sg17
g18
sg19
(lp1725
F12.15561
aF54.026503
asg21
(dp1726
sbsg23
S'20.05.2012 (16:57:04)'
p1727
sg24
Nsg25
g1717
sbsS'192.168.1.2'
p1728
(iprimitives
AccesPoint
p1729
(dp1730
g4
Nsg5
Nsg6
g7
(g8
g9
Ntp1731
Rp1732
(dp1733
g13
g7
(g14
g9
Ntp1734
Rp1735
sg17
g18
sg19
(lp1736
F12.111028
aF54.086632
asg21
(dp1737
sbsg23
Nsg24
Nsg25
g1728
sbsS'192.168.1.1'
p1738
(iprimitives
AccesPoint
p1739
(dp1740
g4
Nsg5
Nsg6
g7
(g8
g9
Ntp1741
Rp1742
(dp1743
g13
g7
(g14
g9
Ntp1744
Rp1745
sg17
g18
sg19
(lp1746
g35
ag35
asg21
(dp1747
sbsg23
Nsg24
Nsg25
g1738
sbsS'192.168.1.237'
p1748
(iprimitives
AccesPoint
p1749
(dp1750
g4
Nsg5
I3
sg6
g7
(g8
g9
Ntp1751
Rp1752
(dp1753
g13
g7
(g14
g9
Ntp1754
Rp1755
sg17
g18
sg19
(lp1756
F12.387847
aF53.758125
asg21
(dp1757
sbsg23
S'20.05.2012 (16:57:04)'
p1758
sg24
Nsg25
g1748
sbsS'192.168.1.159'
p1759
(iprimitives
AccesPoint
p1760
(dp1761
g4
Nsg5
I3
sg6
g7
(g8
g9
Ntp1762
Rp1763
(dp1764
g13
g7
(g14
g9
Ntp1765
Rp1766
sg17
g18
sg19
(lp1767
F12.15774
aF54.027811
asg21
(dp1768
sbsg23
S'20.05.2012 (16:56:04)'
p1769
sg24
Nsg25
g1759
sbsS'192.168.1.158'
p1770
(iprimitives
AccesPoint
p1771
(dp1772
g62
I1
sg63
S'OpenWrt(white russian  0.9-ON5)'
p1773
sg4
I0
sg5
I3
sg65
g272
sg6
g7
(g8
g9
Ntp1774
Rp1775
(dp1776
g13
g7
(g14
g9
Ntp1777
Rp1778
sg17
g18
sg19
(lp1779
F12.267936
aF53.982774
asg21
(dp1780
sbsg23
S'20.05.2012 (16:56:04)'
p1781
sg24
I0
sg25
g1770
sbsS'192.168.2.29'
p1782
(iprimitives
AccesPoint
p1783
(dp1784
g4
Nsg5
Nsg6
g7
(g8
g9
Ntp1785
Rp1786
(dp1787
g13
g7
(g14
g9
Ntp1788
Rp1789
sg17
g18
sg19
(lp1790
F12.10766
aF54.07657
asg21
(dp1791
sbsg23
Nsg24
Nsg25
g1782
sbsS'192.168.1.153'
p1792
(iprimitives
AccesPoint
p1793
(dp1794
g4
Nsg5
Nsg6
g7
(g8
g9
Ntp1795
Rp1796
(dp1797
g13
g7
(g14
g9
Ntp1798
Rp1799
sg17
g18
sg19
(lp1800
F12.101827
aF54.117018
asg21
(dp1801
sbsg23
Nsg24
Nsg25
g1792
sbsS'192.168.1.152'
p1802
(iprimitives
AccesPoint
p1803
(dp1804
g4
Nsg5
I3
sg6
g7
(g8
g9
Ntp1805
Rp1806
(dp1807
g13
g7
(g14
g9
Ntp1808
Rp1809
sg17
g18
sg19
(lp1810
F12.107706
aF54.07791
asg21
(dp1811
sbsg23
S'20.05.2012 (09:06:04)'
p1812
sg24
Nsg25
g1802
sbsS'192.168.1.151'
p1813
(iprimitives
AccesPoint
p1814
(dp1815
g4
Nsg5
I3
sg6
g7
(g8
g9
Ntp1816
Rp1817
(dp1818
g13
g7
(g14
g9
Ntp1819
Rp1820
sg17
g18
sg19
(lp1821
F12.107942
aF54.07932
asg21
(dp1822
sbsg23
S'13.05.2012 (15:47:04)'
p1823
sg24
Nsg25
g1813
sbsS'192.168.1.150'
p1824
(iprimitives
AccesPoint
p1825
(dp1826
g4
Nsg5
I3
sg6
g7
(g8
g9
Ntp1827
Rp1828
(dp1829
g13
g7
(g14
g9
Ntp1830
Rp1831
sg17
g18
sg19
(lp1832
g35
ag35
asg21
(dp1833
sbsg23
S'10.06.2011 (18:42:04)'
p1834
sg24
Nsg25
g1824
sbsS'192.168.1.157'
p1835
(iprimitives
AccesPoint
p1836
(dp1837
g62
I0
sg63
S'AirOS(XM.v5.3.3 )'
p1838
sg4
I0
sg5
I3
sg65
g135
sg6
g7
(g8
g9
Ntp1839
Rp1840
(dp1841
g13
g7
(g14
g9
Ntp1842
Rp1843
sg17
g18
sg19
(lp1844
F12.107749
aF54.077193
asg21
(dp1845
sbsg23
S'20.05.2012 (16:56:04)'
p1846
sg24
I0
sg25
g1835
sbsS'192.168.1.156'
p1847
(iprimitives
AccesPoint
p1848
(dp1849
g4
Nsg5
I3
sg6
g7
(g8
g9
Ntp1850
Rp1851
(dp1852
g13
g7
(g14
g9
Ntp1853
Rp1854
sg17
g18
sg19
(lp1855
F12.111064
aF54.089346
asg21
(dp1856
sbsg23
S'20.05.2012 (16:56:04)'
p1857
sg24
Nsg25
g1847
sbsS'192.168.1.155'
p1858
(iprimitives
AccesPoint
p1859
(dp1860
g4
Nsg5
I3
sg6
g7
(g8
g9
Ntp1861
Rp1862
(dp1863
g13
g7
(g14
g9
Ntp1864
Rp1865
sg17
g18
sg19
(lp1866
F12.245674
aF53.96924
asg21
(dp1867
sbsg23
S'20.05.2012 (16:56:04)'
p1868
sg24
Nsg25
g1858
sbsS'192.168.1.154'
p1869
(iprimitives
AccesPoint
p1870
(dp1871
g4
Nsg5
I3
sg6
g7
(g8
g9
Ntp1872
Rp1873
(dp1874
g13
g7
(g14
g9
Ntp1875
Rp1876
sg17
g18
sg19
(lp1877
F12.15914
aF54.027612
asg21
(dp1878
sbsg23
S'20.03.2012 (10:37:04)'
p1879
sg24
Nsg25
g1869
sbsS'192.168.1.26'
p1880
(iprimitives
AccesPoint
p1881
(dp1882
g4
Nsg5
I3
sg6
g7
(g8
g9
Ntp1883
Rp1884
(dp1885
g13
g7
(g14
g9
Ntp1886
Rp1887
sg17
g18
sg19
(lp1888
F12.154484
aF54.024638
asg21
(dp1889
sbsg23
S'20.05.2012 (16:57:04)'
p1890
sg24
Nsg25
g1880
sbsS'192.168.1.27'
p1891
(iprimitives
AccesPoint
p1892
(dp1893
g62
I1
sg63
S'OpenWrt(white russian  0.9-ON5)'
p1894
sg4
I0
sg5
I3
sg65
S'Linksys WRT54GS'
p1895
sg6
g7
(g8
g9
Ntp1896
Rp1897
(dp1898
g13
g7
(g14
g9
Ntp1899
Rp1900
sg17
g18
sg19
(lp1901
F12.112518
aF54.093131
asg21
(dp1902
sbsg23
S'20.05.2012 (16:57:04)'
p1903
sg24
I1
sg25
g1891
sbsS'192.168.1.24'
p1904
(iprimitives
AccesPoint
p1905
(dp1906
g4
Nsg5
I3
sg6
g7
(g8
g9
Ntp1907
Rp1908
(dp1909
g13
g7
(g14
g9
Ntp1910
Rp1911
sg17
g18
sg19
(lp1912
F12.1141
aF54.09095
asg21
(dp1913
sbsg23
S'17.10.2011 (08:58:04)'
p1914
sg24
Nsg25
g1904
sbsS'192.168.1.25'
p1915
(iprimitives
AccesPoint
p1916
(dp1917
g4
Nsg5
I3
sg6
g7
(g8
g9
Ntp1918
Rp1919
(dp1920
g13
g7
(g14
g9
Ntp1921
Rp1922
sg17
g18
sg19
(lp1923
F12.1102
aF54.08626
asg21
(dp1924
sbsg23
S'20.05.2012 (16:57:04)'
p1925
sg24
Nsg25
g1915
sbsS'192.168.1.22'
p1926
(iprimitives
AccesPoint
p1927
(dp1928
g62
I1
sg63
S'OpenWrt(white russian  0.9-ON5)'
p1929
sg4
I0
sg5
I3
sg65
g272
sg6
g7
(g8
g9
Ntp1930
Rp1931
(dp1932
g13
g7
(g14
g9
Ntp1933
Rp1934
sg17
g18
sg19
(lp1935
F12.265683
aF53.98519
asg21
(dp1936
sbsg23
S'20.05.2012 (16:57:04)'
p1937
sg24
I0
sg25
g1926
sbsS'192.168.2.22'
p1938
(iprimitives
AccesPoint
p1939
(dp1940
g4
Nsg5
I3
sg6
g7
(g8
g9
Ntp1941
Rp1942
(dp1943
g13
g7
(g14
g9
Ntp1944
Rp1945
sg17
g18
sg19
(lp1946
F12.10692
aF54.07669
asg21
(dp1947
sbsg23
S'03.08.2011 (08:31:04)'
p1948
sg24
Nsg25
g1938
sbsS'192.168.1.20'
p1949
(iprimitives
AccesPoint
p1950
(dp1951
g4
Nsg5
I3
sg6
g7
(g8
g9
Ntp1952
Rp1953
(dp1954
g13
g7
(g14
g9
Ntp1955
Rp1956
sg17
g18
sg19
(lp1957
F12.157359
aF54.026503
asg21
(dp1958
sbsg23
S'26.02.2012 (08:24:04)'
p1959
sg24
Nsg25
g1949
sbsS'192.168.2.20'
p1960
(iprimitives
AccesPoint
p1961
(dp1962
g4
Nsg5
I3
sg6
g7
(g8
g9
Ntp1963
Rp1964
(dp1965
g13
g7
(g14
g9
Ntp1966
Rp1967
sg17
g18
sg19
(lp1968
F12.130365
aF54.140876
asg21
(dp1969
sbsg23
S'31.03.2012 (07:44:04)'
p1970
sg24
Nsg25
g1960
sbsS'192.168.1.253'
p1971
(iprimitives
AccesPoint
p1972
(dp1973
g4
Nsg5
Nsg6
g7
(g8
g9
Ntp1974
Rp1975
(dp1976
g13
g7
(g14
g9
Ntp1977
Rp1978
sg17
g18
sg19
(lp1979
F12.193322
aF54.01398
asg21
(dp1980
sbsg23
Nsg24
Nsg25
g1971
sbsS'192.168.1.28'
p1981
(iprimitives
AccesPoint
p1982
(dp1983
g4
Nsg5
I3
sg6
g7
(g8
g9
Ntp1984
Rp1985
(dp1986
g13
g7
(g14
g9
Ntp1987
Rp1988
sg17
g18
sg19
(lp1989
F12.118167
aF54.08837
asg21
(dp1990
sbsg23
S'02.04.2012 (06:24:04)'
p1991
sg24
Nsg25
g1981
sbsS'192.168.1.29'
p1992
(iprimitives
AccesPoint
p1993
(dp1994
g4
Nsg5
I3
sg6
g7
(g8
g9
Ntp1995
Rp1996
(dp1997
g13
g7
(g14
g9
Ntp1998
Rp1999
sg17
g18
sg19
(lp2000
F12.117534
aF54.088395
asg21
(dp2001
sbsg23
S'12.02.2012 (09:47:04)'
p2002
sg24
Nsg25
g1992
sbsS'192.168.1.247'
p2003
(iprimitives
AccesPoint
p2004
(dp2005
g4
Nsg5
I3
sg6
g7
(g8
g9
Ntp2006
Rp2007
(dp2008
g13
g7
(g14
g9
Ntp2009
Rp2010
sg17
g18
sg19
(lp2011
F12.267571
aF53.983982
asg21
(dp2012
sbsg23
S'25.02.2011 (17:04:04)'
p2013
sg24
Nsg25
g2003
sbsS'192.168.1.246'
p2014
(iprimitives
AccesPoint
p2015
(dp2016
g4
Nsg5
I3
sg6
g7
(g8
g9
Ntp2017
Rp2018
(dp2019
g13
g7
(g14
g9
Ntp2020
Rp2021
sg17
g18
sg19
(lp2022
F12.26947
aF53.980743
asg21
(dp2023
sbsg23
S'26.08.2011 (11:22:04)'
p2024
sg24
Nsg25
g2014
sbsS'192.168.1.245'
p2025
(iprimitives
AccesPoint
p2026
(dp2027
g62
I1
sg63
S'OpenWrt(white russian  0.9-ON5)'
p2028
sg4
I0
sg5
I3
sg65
g272
sg6
g7
(g8
g9
Ntp2029
Rp2030
(dp2031
g13
g7
(g14
g9
Ntp2032
Rp2033
sg17
g18
sg19
(lp2034
F12.266927
aF53.98367
asg21
(dp2035
sbsg23
S'20.05.2012 (16:57:04)'
p2036
sg24
I0
sg25
g2025
sbsS'192.168.1.244'
p2037
(iprimitives
AccesPoint
p2038
(dp2039
g4
Nsg5
Nsg6
g7
(g8
g9
Ntp2040
Rp2041
(dp2042
g13
g7
(g14
g9
Ntp2043
Rp2044
sg17
g18
sg19
(lp2045
F12.21415
aF53.980334
asg21
(dp2046
sbsg23
Nsg24
Nsg25
g2037
sbsS'192.168.1.243'
p2047
(iprimitives
AccesPoint
p2048
(dp2049
g62
I1
sg63
S'OpenWrt(white russian  0.9-ON5)'
p2050
sg4
I0
sg5
I3
sg65
g272
sg6
g7
(g8
g9
Ntp2051
Rp2052
(dp2053
g13
g7
(g14
g9
Ntp2054
Rp2055
sg17
g18
sg19
(lp2056
F12.477518
aF53.756951
asg21
(dp2057
sbsg23
S'20.05.2012 (16:57:04)'
p2058
sg24
I0
sg25
g2047
sbsS'192.168.1.242'
p2059
(iprimitives
AccesPoint
p2060
(dp2061
g62
I1
sg63
S'OpenWrt(white russian  0.9-ON5)'
p2062
sg4
I0
sg5
I3
sg65
g272
sg6
g7
(g8
g9
Ntp2063
Rp2064
(dp2065
g13
g7
(g14
g9
Ntp2066
Rp2067
sg17
g18
sg19
(lp2068
F12.476413
aF53.756139
asg21
(dp2069
sbsg23
S'20.05.2012 (16:57:04)'
p2070
sg24
I0
sg25
g2059
sbsS'192.168.1.241'
p2071
(iprimitives
AccesPoint
p2072
(dp2073
g62
I1
sg63
S'OpenWrt(white russian  0.9-ON5)'
p2074
sg4
I0
sg5
I3
sg65
g272
sg6
g7
(g8
g9
Ntp2075
Rp2076
(dp2077
g13
g7
(g14
g9
Ntp2078
Rp2079
sg17
g18
sg19
(lp2080
F12.474643
aF53.756406
asg21
(dp2081
sbsg23
S'20.05.2012 (16:57:04)'
p2082
sg24
I0
sg25
g2071
sbsS'192.168.1.240'
p2083
(iprimitives
AccesPoint
p2084
(dp2085
g4
Nsg5
I3
sg6
g7
(g8
g9
Ntp2086
Rp2087
(dp2088
g13
g7
(g14
g9
Ntp2089
Rp2090
sg17
g18
sg19
(lp2091
F12.477068
aF53.75593
asg21
(dp2092
sbsg23
S'23.04.2012 (09:49:02)'
p2093
sg24
Nsg25
g2083
sbsS'192.168.1.161'
p2094
(iprimitives
AccesPoint
p2095
(dp2096
g4
Nsg5
I3
sg6
g7
(g8
g9
Ntp2097
Rp2098
(dp2099
g13
g7
(g14
g9
Ntp2100
Rp2101
sg17
g18
sg19
(lp2102
F12.123574
aF54.093115
asg21
(dp2103
sbsg23
S'03.10.2011 (11:34:04)'
p2104
sg24
Nsg25
g2094
sbsS'192.168.1.249'
p2105
(iprimitives
AccesPoint
p2106
(dp2107
g4
Nsg5
I3
sg6
g7
(g8
g9
Ntp2108
Rp2109
(dp2110
g13
g7
(g14
g9
Ntp2111
Rp2112
sg17
g18
sg19
(lp2113
F12.159848
aF54.076614
asg21
(dp2114
sbsg23
S'19.05.2012 (13:34:04)'
p2115
sg24
Nsg25
g2105
sbsS'192.168.1.248'
p2116
(iprimitives
AccesPoint
p2117
(dp2118
g4
Nsg5
I3
sg6
g7
(g8
g9
Ntp2119
Rp2120
(dp2121
g13
g7
(g14
g9
Ntp2122
Rp2123
sg17
g18
sg19
(lp2124
F12.118521
aF54.102187
asg21
(dp2125
sbsg23
S'20.05.2012 (16:57:04)'
p2126
sg24
Nsg25
g2116
sbsS'192.168.1.225'
p2127
(iprimitives
AccesPoint
p2128
(dp2129
g62
I0
sg63
S'OpenWrt(backfire 10.03.1-RC6)'
p2130
sg4
I0
sg5
I3
sg65
g582
sg6
g7
(g8
g9
Ntp2131
Rp2132
(dp2133
g13
g7
(g14
g9
Ntp2134
Rp2135
sg17
g18
sg19
(lp2136
F12.294755
aF54.00786
asg21
(dp2137
sbsg23
S'20.05.2012 (16:57:04)'
p2138
sg24
I0
sg25
g2127
sbsS'192.168.1.224'
p2139
(iprimitives
AccesPoint
p2140
(dp2141
g4
Nsg5
I3
sg6
g7
(g8
g9
Ntp2142
Rp2143
(dp2144
g13
g7
(g14
g9
Ntp2145
Rp2146
sg17
g18
sg19
(lp2147
F12.1145
aF54.0889
asg21
(dp2148
sbsg23
S'20.05.2012 (16:57:04)'
p2149
sg24
Nsg25
g2139
sbsS'192.168.1.227'
p2150
(iprimitives
AccesPoint
p2151
(dp2152
g4
Nsg5
I3
sg6
g7
(g8
g9
Ntp2153
Rp2154
(dp2155
g13
g7
(g14
g9
Ntp2156
Rp2157
sg17
g18
sg19
(lp2158
F12.190058
aF54.005707
asg21
(dp2159
sbsg23
S'20.05.2012 (16:57:04)'
p2160
sg24
Nsg25
g2150
sbsS'192.168.1.226'
p2161
(iprimitives
AccesPoint
p2162
(dp2163
g4
Nsg5
I3
sg6
g7
(g8
g9
Ntp2164
Rp2165
(dp2166
g13
g7
(g14
g9
Ntp2167
Rp2168
sg17
g18
sg19
(lp2169
F12.155728
aF54.025016
asg21
(dp2170
sbsg23
S'20.05.2012 (16:57:04)'
p2171
sg24
Nsg25
g2161
sbsS'192.168.1.221'
p2172
(iprimitives
AccesPoint
p2173
(dp2174
g4
Nsg5
I3
sg6
g7
(g8
g9
Ntp2175
Rp2176
(dp2177
g13
g7
(g14
g9
Ntp2178
Rp2179
sg17
g18
sg19
(lp2180
F12.083981
aF54.101537
asg21
(dp2181
sbsg23
S'10.06.2010 (23:27:02)'
p2182
sg24
Nsg25
g2172
sbsS'192.168.1.220'
p2183
(iprimitives
AccesPoint
p2184
(dp2185
g4
Nsg5
Nsg6
g7
(g8
g9
Ntp2186
Rp2187
(dp2188
g13
g7
(g14
g9
Ntp2189
Rp2190
sg17
g18
sg19
(lp2191
F12.130365
aF54.141247
asg21
(dp2192
sbsg23
Nsg24
Nsg25
g2183
sbsS'192.168.1.223'
p2193
(iprimitives
AccesPoint
p2194
(dp2195
g4
Nsg5
I3
sg6
g7
(g8
g9
Ntp2196
Rp2197
(dp2198
g13
g7
(g14
g9
Ntp2199
Rp2200
sg17
g18
sg19
(lp2201
F12.153756
aF54.025936
asg21
(dp2202
sbsg23
S'11.05.2012 (15:21:04)'
p2203
sg24
Nsg25
g2193
sbsS'192.168.1.222'
p2204
(iprimitives
AccesPoint
p2205
(dp2206
g4
Nsg5
I3
sg6
g7
(g8
g9
Ntp2207
Rp2208
(dp2209
g13
g7
(g14
g9
Ntp2210
Rp2211
sg17
g18
sg19
(lp2212
F12.1147
aF54.0891
asg21
(dp2213
sbsg23
S'16.05.2012 (20:23:04)'
p2214
sg24
Nsg25
g2204
sbsS'192.168.1.229'
p2215
(iprimitives
AccesPoint
p2216
(dp2217
g4
Nsg5
I3
sg6
g7
(g8
g9
Ntp2218
Rp2219
(dp2220
g13
g7
(g14
g9
Ntp2221
Rp2222
sg17
g18
sg19
(lp2223
F12.260908
aF54.017397
asg21
(dp2224
sbsg23
S'22.06.2011 (17:33:04)'
p2225
sg24
Nsg25
g2215
sbsS'192.168.2.36'
p2226
(iprimitives
AccesPoint
p2227
(dp2228
g4
Nsg5
I3
sg6
g7
(g8
g9
Ntp2229
Rp2230
(dp2231
g13
g7
(g14
g9
Ntp2232
Rp2233
sg17
g18
sg19
(lp2234
F12.1332
aF54.0848
asg21
(dp2235
sbsg23
S'20.05.2012 (16:57:04)'
p2236
sg24
Nsg25
g2226
sbsS'192.168.1.144'
p2237
(iprimitives
AccesPoint
p2238
(dp2239
g4
Nsg5
I3
sg6
g7
(g8
g9
Ntp2240
Rp2241
(dp2242
g13
g7
(g14
g9
Ntp2243
Rp2244
sg17
g18
sg19
(lp2245
F12.11675
aF54.08847
asg21
(dp2246
sbsg23
S'31.03.2012 (07:41:04)'
p2247
sg24
Nsg25
g2237
sbsS'192.168.1.145'
p2248
(iprimitives
AccesPoint
p2249
(dp2250
g62
I1
sg63
S'OpenWrt(white russian  0.9-ON5)'
p2251
sg4
I0
sg5
I3
sg65
g1000
sg6
g7
(g8
g9
Ntp2252
Rp2253
(dp2254
g13
g7
(g14
g9
Ntp2255
Rp2256
sg17
g18
sg19
(lp2257
F12.09084
aF54.096163
asg21
(dp2258
sbsg23
S'20.05.2012 (16:56:04)'
p2259
sg24
I0
sg25
g2248
sbsS'192.168.1.146'
p2260
(iprimitives
AccesPoint
p2261
(dp2262
g4
Nsg5
I3
sg6
g7
(g8
g9
Ntp2263
Rp2264
(dp2265
g13
g7
(g14
g9
Ntp2266
Rp2267
sg17
g18
sg19
(lp2268
g35
ag35
asg21
(dp2269
sbsg23
S'20.12.2011 (19:49:04)'
p2270
sg24
Nsg25
g2260
sbsS'192.168.1.147'
p2271
(iprimitives
AccesPoint
p2272
(dp2273
g4
Nsg5
I3
sg6
g7
(g8
g9
Ntp2274
Rp2275
(dp2276
g13
g7
(g14
g9
Ntp2277
Rp2278
sg17
g18
sg19
(lp2279
F12.09822
aF54.093044
asg21
(dp2280
sbsg23
S'20.05.2012 (16:56:04)'
p2281
sg24
Nsg25
g2271
sbsS'192.168.1.140'
p2282
(iprimitives
AccesPoint
p2283
(dp2284
g4
Nsg5
I3
sg6
g7
(g8
g9
Ntp2285
Rp2286
(dp2287
g13
g7
(g14
g9
Ntp2288
Rp2289
sg17
g18
sg19
(lp2290
F12.270248
aF53.981831
asg21
(dp2291
sbsg23
S'24.12.2011 (13:32:04)'
p2292
sg24
Nsg25
g2282
sbsS'192.168.1.141'
p2293
(iprimitives
AccesPoint
p2294
(dp2295
g4
Nsg5
I3
sg6
g7
(g8
g9
Ntp2296
Rp2297
(dp2298
g13
g7
(g14
g9
Ntp2299
Rp2300
sg17
g18
sg19
(lp2301
F12.120672
aF54.08904
asg21
(dp2302
sbsg23
S'10.04.2012 (22:20:04)'
p2303
sg24
Nsg25
g2293
sbsS'192.168.1.142'
p2304
(iprimitives
AccesPoint
p2305
(dp2306
g4
Nsg5
I3
sg6
g7
(g8
g9
Ntp2307
Rp2308
(dp2309
g13
g7
(g14
g9
Ntp2310
Rp2311
sg17
g18
sg19
(lp2312
F12.114653
aF54.086429
asg21
(dp2313
sbsg23
S'05.11.2011 (13:52:04)'
p2314
sg24
Nsg25
g2304
sbsS'192.168.1.18'
p2315
(iprimitives
AccesPoint
p2316
(dp2317
g4
Nsg5
I3
sg6
g7
(g8
g9
Ntp2318
Rp2319
(dp2320
g13
g7
(g14
g9
Ntp2321
Rp2322
sg17
g18
sg19
(lp2323
F12.114959
aF54.100344
asg21
(dp2324
sbsg23
S'15.08.2010 (09:15:06)'
p2325
sg24
Nsg25
g2315
sbsS'192.168.1.239'
p2326
(iprimitives
AccesPoint
p2327
(dp2328
g62
I1
sg63
S'OpenWrt(backfire 10.03.1)'
p2329
sg4
I1
sg5
I3
sg65
g1488
sg6
g7
(g8
g9
Ntp2330
Rp2331
(dp2332
g13
g7
(g14
g9
Ntp2333
Rp2334
sg17
g18
sg19
(lp2335
F11.421
aF53.7008
asg21
(dp2336
sbsg23
S'20.05.2012 (16:57:04)'
p2337
sg24
I0
sg25
g2326
sbsS'192.168.1.148'
p2338
(iprimitives
AccesPoint
p2339
(dp2340
g4
Nsg5
I3
sg6
g7
(g8
g9
Ntp2341
Rp2342
(dp2343
g13
g7
(g14
g9
Ntp2344
Rp2345
sg17
g18
sg19
(lp2346
g35
ag35
asg21
(dp2347
sbsg23
S'20.09.2011 (13:37:04)'
p2348
sg24
Nsg25
g2338
sbsS'192.168.1.149'
p2349
(iprimitives
AccesPoint
p2350
(dp2351
g4
Nsg5
I3
sg6
g7
(g8
g9
Ntp2352
Rp2353
(dp2354
g13
g7
(g14
g9
Ntp2355
Rp2356
sg17
g18
sg19
(lp2357
F12.269309
aF53.983266
asg21
(dp2358
sbsg23
S'31.08.2011 (14:32:04)'
p2359
sg24
Nsg25
g2349
sbsS'192.168.2.12'
p2360
(iprimitives
AccesPoint
p2361
(dp2362
g4
Nsg5
I3
sg6
g7
(g8
g9
Ntp2363
Rp2364
(dp2365
g13
g7
(g14
g9
Ntp2366
Rp2367
sg17
g18
sg19
(lp2368
F12.136493
aF54.077729
asg21
(dp2369
sbsg23
S'05.01.2012 (11:40:04)'
p2370
sg24
Nsg25
g2360
sbsS'192.168.1.30'
p2371
(iprimitives
AccesPoint
p2372
(dp2373
g4
Nsg5
I3
sg6
g7
(g8
g9
Ntp2374
Rp2375
(dp2376
g13
g7
(g14
g9
Ntp2377
Rp2378
sg17
g18
sg19
(lp2379
g35
ag35
asg21
(dp2380
sbsg23
S'10.10.2011 (15:37:04)'
p2381
sg24
Nsg25
g2371
sbsS'192.168.2.10'
p2382
(iprimitives
AccesPoint
p2383
(dp2384
g4
Nsg5
I3
sg6
g7
(g8
g9
Ntp2385
Rp2386
(dp2387
g13
g7
(g14
g9
Ntp2388
Rp2389
sg17
g18
sg19
(lp2390
F12.123116
aF54.09136
asg21
(dp2391
sbsg23
S'20.05.2012 (16:57:04)'
p2392
sg24
Nsg25
g2382
sbsS'192.168.2.11'
p2393
(iprimitives
AccesPoint
p2394
(dp2395
g4
Nsg5
I3
sg6
g7
(g8
g9
Ntp2396
Rp2397
(dp2398
g13
g7
(g14
g9
Ntp2399
Rp2400
sg17
g18
sg19
(lp2401
F12.1332
aF54.085
asg21
(dp2402
sbsg23
S'20.05.2012 (16:57:04)'
p2403
sg24
Nsg25
g2393
sbsS'192.168.2.16'
p2404
(iprimitives
AccesPoint
p2405
(dp2406
g4
Nsg5
I3
sg6
g7
(g8
g9
Ntp2407
Rp2408
(dp2409
g13
g7
(g14
g9
Ntp2410
Rp2411
sg17
g18
sg19
(lp2412
F12.121503
aF54.087187
asg21
(dp2413
sbsg23
S'20.05.2012 (16:57:04)'
p2414
sg24
Nsg25
g2404
sbsS'192.168.2.17'
p2415
(iprimitives
AccesPoint
p2416
(dp2417
g4
Nsg5
I3
sg6
g7
(g8
g9
Ntp2418
Rp2419
(dp2420
g13
g7
(g14
g9
Ntp2421
Rp2422
sg17
g18
sg19
(lp2423
F12.1334
aF54.085
asg21
(dp2424
sbsg23
S'20.05.2012 (16:57:04)'
p2425
sg24
Nsg25
g2415
sbsS'192.168.1.37'
p2426
(iprimitives
AccesPoint
p2427
(dp2428
g62
I1
sg63
S'OpenWrt(white russian  0.9-ON5)'
p2429
sg4
I0
sg5
I3
sg65
g272
sg6
g7
(g8
g9
Ntp2430
Rp2431
(dp2432
g13
g7
(g14
g9
Ntp2433
Rp2434
sg17
g18
sg19
(lp2435
F12.157601
aF54.027089
asg21
(dp2436
sbsg23
S'20.05.2012 (16:57:04)'
p2437
sg24
I0
sg25
g2426
sbsS'192.168.1.36'
p2438
(iprimitives
AccesPoint
p2439
(dp2440
g4
Nsg5
I3
sg6
g7
(g8
g9
Ntp2441
Rp2442
(dp2443
g13
g7
(g14
g9
Ntp2444
Rp2445
sg17
g18
sg19
(lp2446
F12.11287
aF54.093
asg21
(dp2447
sbsg23
S'19.05.2012 (13:54:04)'
p2448
sg24
Nsg25
g2438
sbsS'192.168.1.39'
p2449
(iprimitives
AccesPoint
p2450
(dp2451
g4
Nsg5
I3
sg6
g7
(g8
g9
Ntp2452
Rp2453
(dp2454
g13
g7
(g14
g9
Ntp2455
Rp2456
sg17
g18
sg19
(lp2457
F12.10439
aF54.08085
asg21
(dp2458
sbsg23
S'20.05.2012 (16:57:04)'
p2459
sg24
Nsg25
g2449
sbsS'192.168.1.38'
p2460
(iprimitives
AccesPoint
p2461
(dp2462
g4
Nsg5
I3
sg6
g7
(g8
g9
Ntp2463
Rp2464
(dp2465
g13
g7
(g14
g9
Ntp2466
Rp2467
sg17
g18
sg19
(lp2468
F12.11282
aF54.08075
asg21
(dp2469
sbsg23
S'05.02.2011 (10:46:04)'
p2470
sg24
Nsg25
g2460
sbsS'192.168.2.18'
p2471
(iprimitives
AccesPoint
p2472
(dp2473
g62
I0
sg63
S'AirOS(XM.v5.2.1 )'
p2474
sg4
I0
sg5
I3
sg65
g135
sg6
g7
(g8
g9
Ntp2475
Rp2476
(dp2477
g13
g7
(g14
g9
Ntp2478
Rp2479
sg17
g18
sg19
(lp2480
F12.136543
aF54.077759
asg21
(dp2481
sbsg23
S'20.05.2012 (16:57:04)'
p2482
sg24
I0
sg25
g2471
sbsS'192.168.2.19'
p2483
(iprimitives
AccesPoint
p2484
(dp2485
g62
I1
sg63
S'OpenWrt(backfire 10.03.1)'
p2486
sg4
I1
sg5
I3
sg65
g1488
sg6
g7
(g8
g9
Ntp2487
Rp2488
(dp2489
g13
g7
(g14
g9
Ntp2490
Rp2491
sg17
g18
sg19
(lp2492
F12.136533
aF54.077729
asg21
(dp2493
sbsg23
S'20.05.2012 (16:57:04)'
p2494
sg24
I0
sg25
g2483
sbsV192.168.12.16
p2495
g997
sS'192.168.1.250'
p2496
(iprimitives
AccesPoint
p2497
(dp2498
g4
Nsg5
Nsg6
g7
(g8
g9
Ntp2499
Rp2500
(dp2501
g13
g7
(g14
g9
Ntp2502
Rp2503
sg17
g18
sg19
(lp2504
g35
ag35
asg21
(dp2505
sbsg23
Nsg24
Nsg25
g2496
sbsS'192.168.1.251'
p2506
(iprimitives
AccesPoint
p2507
(dp2508
g4
Nsg5
I3
sg6
g7
(g8
g9
Ntp2509
Rp2510
(dp2511
g13
g7
(g14
g9
Ntp2512
Rp2513
sg17
g18
sg19
(lp2514
F12.193564
aF54.011599
asg21
(dp2515
sbsg23
S'12.03.2010 (16:43:38)'
p2516
sg24
Nsg25
g2506
sbsS'192.168.1.252'
p2517
(iprimitives
AccesPoint
p2518
(dp2519
g4
Nsg5
Nsg6
g7
(g8
g9
Ntp2520
Rp2521
(dp2522
g13
g7
(g14
g9
Ntp2523
Rp2524
sg17
g18
sg19
(lp2525
F12.193813
aF54.011665
asg21
(dp2526
sbsg23
Nsg24
Nsg25
g2517
sbsS'192.168.1.132'
p2527
(iprimitives
AccesPoint
p2528
(dp2529
g4
Nsg5
I3
sg6
g7
(g8
g9
Ntp2530
Rp2531
(dp2532
g13
g7
(g14
g9
Ntp2533
Rp2534
sg17
g18
sg19
(lp2535
F12.109834
aF54.104898
asg21
(dp2536
sbsg23
S'26.02.2012 (15:59:04)'
p2537
sg24
Nsg25
g2527
sbsS'192.168.1.254'
p2538
(iprimitives
AccesPoint
p2539
(dp2540
g4
Nsg5
Nsg6
g7
(g8
g9
Ntp2541
Rp2542
(dp2543
g13
g7
(g14
g9
Ntp2544
Rp2545
sg17
g18
sg19
(lp2546
F12.216024
aF53.976358
asg21
(dp2547
sbsg23
Nsg24
Nsg25
g2538
sbsS'192.168.1.255'
p2548
(iprimitives
AccesPoint
p2549
(dp2550
g4
Nsg5
I3
sg6
g7
(g8
g9
Ntp2551
Rp2552
(dp2553
g13
g7
(g14
g9
Ntp2554
Rp2555
sg17
g18
sg19
(lp2556
F12.387847
aF53.758125
asg21
(dp2557
sbsg23
S'21.10.2010 (09:42:06)'
p2558
sg24
Nsg25
g2548
sbsS'192.168.2.23'
p2559
(iprimitives
AccesPoint
p2560
(dp2561
g4
Nsg5
Nsg6
g7
(g8
g9
Ntp2562
Rp2563
(dp2564
g13
g7
(g14
g9
Ntp2565
Rp2566
sg17
g18
sg19
(lp2567
F12.10766
aF54.07657
asg21
(dp2568
sbsg23
Nsg24
Nsg25
g2559
sbsS'192.168.2.45'
p2569
(iprimitives
AccesPoint
p2570
(dp2571
g4
Nsg5
I3
sg6
g7
(g8
g9
Ntp2572
Rp2573
(dp2574
g13
g7
(g14
g9
Ntp2575
Rp2576
sg17
g18
sg19
(lp2577
F12.158689
aF54.075657
asg21
(dp2578
sbsg23
S'20.05.2012 (16:57:04)'
p2579
sg24
Nsg25
g2569
sbsS'192.168.2.49'
p2580
(iprimitives
AccesPoint
p2581
(dp2582
g4
Nsg5
Nsg6
g7
(g8
g9
Ntp2583
Rp2584
(dp2585
g13
g7
(g14
g9
Ntp2586
Rp2587
sg17
g18
sg19
(lp2588
g35
ag35
asg21
(dp2589
sbsg23
Nsg24
Nsg25
g2580
sbsS'192.168.2.44'
p2590
(iprimitives
AccesPoint
p2591
(dp2592
g4
Nsg5
Nsg6
g7
(g8
g9
Ntp2593
Rp2594
(dp2595
g13
g7
(g14
g9
Ntp2596
Rp2597
sg17
g18
sg19
(lp2598
F12.295691
aF54.007721
asg21
(dp2599
sbsg23
Nsg24
Nsg25
g2590
sbsS'192.168.1.236'
p2600
(iprimitives
AccesPoint
p2601
(dp2602
g4
Nsg5
I3
sg6
g7
(g8
g9
Ntp2603
Rp2604
(dp2605
g13
g7
(g14
g9
Ntp2606
Rp2607
sg17
g18
sg19
(lp2608
F12.116523
aF54.088677
asg21
(dp2609
sbsg23
S'20.05.2012 (16:57:04)'
p2610
sg24
Nsg25
g2600
sbsS'192.168.1.108'
p2611
(iprimitives
AccesPoint
p2612
(dp2613
g4
Nsg5
I3
sg6
g7
(g8
g9
Ntp2614
Rp2615
(dp2616
g13
g7
(g14
g9
Ntp2617
Rp2618
sg17
g18
sg19
(lp2619
F12.211976
aF54.048507
asg21
(dp2620
sbsg23
S'17.01.2012 (21:06:04)'
p2621
sg24
Nsg25
g2611
sbsS'192.168.1.234'
p2622
(iprimitives
AccesPoint
p2623
(dp2624
g4
Nsg5
I3
sg6
g7
(g8
g9
Ntp2625
Rp2626
(dp2627
g13
g7
(g14
g9
Ntp2628
Rp2629
sg17
g18
sg19
(lp2630
F12.119057
aF54.101998
asg21
(dp2631
sbsg23
S'20.05.2012 (16:57:04)'
p2632
sg24
Nsg25
g2622
sbsS'192.168.1.235'
p2633
(iprimitives
AccesPoint
p2634
(dp2635
g4
Nsg5
I3
sg6
g7
(g8
g9
Ntp2636
Rp2637
(dp2638
g13
g7
(g14
g9
Ntp2639
Rp2640
sg17
g18
sg19
(lp2641
F12.098536
aF54.092801
asg21
(dp2642
sbsg23
S'20.05.2012 (16:57:04)'
p2643
sg24
Nsg25
g2633
sbsS'192.168.1.232'
p2644
(iprimitives
AccesPoint
p2645
(dp2646
g4
Nsg5
I3
sg6
g7
(g8
g9
Ntp2647
Rp2648
(dp2649
g13
g7
(g14
g9
Ntp2650
Rp2651
sg17
g18
sg19
(lp2652
F12.509345
aF53.776477
asg21
(dp2653
sbsg23
S'20.05.2012 (16:57:04)'
p2654
sg24
Nsg25
g2644
sbsS'192.168.1.233'
p2655
(iprimitives
AccesPoint
p2656
(dp2657
g4
Nsg5
I3
sg6
g7
(g8
g9
Ntp2658
Rp2659
(dp2660
g13
g7
(g14
g9
Ntp2661
Rp2662
sg17
g18
sg19
(lp2663
F12.1167
aF54.08875
asg21
(dp2664
sbsg23
S'20.05.2012 (16:57:04)'
p2665
sg24
Nsg25
g2655
sbsS'192.168.1.230'
p2666
(iprimitives
AccesPoint
p2667
(dp2668
g4
Nsg5
I3
sg6
g7
(g8
g9
Ntp2669
Rp2670
(dp2671
g13
g7
(g14
g9
Ntp2672
Rp2673
sg17
g18
sg19
(lp2674
F12.294624
aF54.00793
asg21
(dp2675
sbsg23
S'20.05.2012 (16:57:04)'
p2676
sg24
Nsg25
g2666
sbsS'192.168.1.231'
p2677
(iprimitives
AccesPoint
p2678
(dp2679
g62
I0
sg63
S'OpenWrt(backfire 10.03.1-RC6)'
p2680
sg4
I0
sg5
I3
sg65
g582
sg6
g7
(g8
g9
Ntp2681
Rp2682
(dp2683
g13
g7
(g14
g9
Ntp2684
Rp2685
sg17
g18
sg19
(lp2686
F12.294742
aF54.00796
asg21
(dp2687
sbsg23
S'20.05.2012 (16:57:04)'
p2688
sg24
I0
sg25
g2677
sbsS'192.168.2.38'
p2689
(iprimitives
AccesPoint
p2690
(dp2691
g4
Nsg5
I3
sg6
g7
(g8
g9
Ntp2692
Rp2693
(dp2694
g13
g7
(g14
g9
Ntp2695
Rp2696
sg17
g18
sg19
(lp2697
F12.129282
aF54.083795
asg21
(dp2698
sbsg23
S'20.05.2012 (16:57:04)'
p2699
sg24
Nsg25
g2689
sbsS'192.168.2.35'
p2700
(iprimitives
AccesPoint
p2701
(dp2702
g4
Nsg5
I3
sg6
g7
(g8
g9
Ntp2703
Rp2704
(dp2705
g13
g7
(g14
g9
Ntp2706
Rp2707
sg17
g18
sg19
(lp2708
F12.13313
aF54.0849
asg21
(dp2709
sbsg23
S'20.05.2012 (16:57:04)'
p2710
sg24
Nsg25
g2700
sbsg178
g167
sS'192.168.1.238'
p2711
(iprimitives
AccesPoint
p2712
(dp2713
g62
I1
sg63
S'OpenWrt(white russian  0.9-ON5)'
p2714
sg4
I0
sg5
I3
sg65
g272
sg6
g7
(g8
g9
Ntp2715
Rp2716
(dp2717
g13
g7
(g14
g9
Ntp2718
Rp2719
sg17
g18
sg19
(lp2720
F12.477508
aF53.757668
asg21
(dp2721
sbsg23
S'20.05.2012 (16:57:04)'
p2722
sg24
I0
sg25
g2711
sbsS'192.168.2.39'
p2723
(iprimitives
AccesPoint
p2724
(dp2725
g4
Nsg5
I3
sg6
g7
(g8
g9
Ntp2726
Rp2727
(dp2728
g13
g7
(g14
g9
Ntp2729
Rp2730
sg17
g18
sg19
(lp2731
F12.128606
aF54.082039
asg21
(dp2732
sbsg23
S'20.05.2012 (16:57:04)'
p2733
sg24
Nsg25
g2723
sbsS'192.168.1.131'
p2734
(iprimitives
AccesPoint
p2735
(dp2736
g4
Nsg5
Nsg6
g7
(g8
g9
Ntp2737
Rp2738
(dp2739
g13
g7
(g14
g9
Ntp2740
Rp2741
sg17
g18
sg19
(lp2742
F12.275398
aF53.968097
asg21
(dp2743
sbsg23
Nsg24
Nsg25
g2734
sbsS'192.168.1.130'
p2744
(iprimitives
AccesPoint
p2745
(dp2746
g62
I0
sg63
S'OpenWrt(white russian  0.9-ON5)'
p2747
sg4
I0
sg5
I3
sg65
g1000
sg6
g7
(g8
g9
Ntp2748
Rp2749
(dp2750
g13
g7
(g14
g9
Ntp2751
Rp2752
sg17
g18
sg19
(lp2753
F12.090663
aF54.09619
asg21
(dp2754
sbsg23
S'20.05.2012 (16:56:04)'
p2755
sg24
I1
sg25
g2744
sbsS'192.168.1.133'
p2756
(iprimitives
AccesPoint
p2757
(dp2758
g4
Nsg5
I3
sg6
g7
(g8
g9
Ntp2759
Rp2760
(dp2761
g13
g7
(g14
g9
Ntp2762
Rp2763
sg17
g18
sg19
(lp2764
F12.116227
aF54.088871
asg21
(dp2765
sbsg23
S'19.12.2011 (16:26:04)'
p2766
sg24
Nsg25
g2756
sbsS'192.168.1.83'
p2767
(iprimitives
AccesPoint
p2768
(dp2769
g4
Nsg5
I3
sg6
g7
(g8
g9
Ntp2770
Rp2771
(dp2772
g13
g7
(g14
g9
Ntp2773
Rp2774
sg17
g18
sg19
(lp2775
F12.117212
aF54.091775
asg21
(dp2776
sbsg23
S'21.05.2011 (14:10:04)'
p2777
sg24
Nsg25
g2767
sbsS'192.168.1.135'
p2778
(iprimitives
AccesPoint
p2779
(dp2780
g62
I1
sg63
S'OpenWrt(white russian  0.9-ON5)'
p2781
sg4
I0
sg5
I3
sg65
S'Asus WL500'
p2782
sg6
g7
(g8
g9
Ntp2783
Rp2784
(dp2785
g13
g7
(g14
g9
Ntp2786
Rp2787
sg17
g18
sg19
(lp2788
F12.371995
aF54.274334
asg21
(dp2789
sbsg23
S'20.05.2012 (16:56:04)'
p2790
sg24
I0
sg25
g2778
sbsS'192.168.1.134'
p2791
(iprimitives
AccesPoint
p2792
(dp2793
g4
Nsg5
I3
sg6
g7
(g8
g9
Ntp2794
Rp2795
(dp2796
g13
g7
(g14
g9
Ntp2797
Rp2798
sg17
g18
sg19
(lp2799
g35
ag35
asg21
(dp2800
sbsg23
S'09.05.2012 (11:47:04)'
p2801
sg24
Nsg25
g2791
sbsS'192.168.1.137'
p2802
(iprimitives
AccesPoint
p2803
(dp2804
g62
I0
sg63
S'AirOS(XM.v5.3.3 )'
p2805
sg4
I0
sg5
I3
sg65
g135
sg6
g7
(g8
g9
Ntp2806
Rp2807
(dp2808
g13
g7
(g14
g9
Ntp2809
Rp2810
sg17
g18
sg19
(lp2811
F12.121847
aF54.087426
asg21
(dp2812
sbsg23
S'20.05.2012 (16:56:04)'
p2813
sg24
I0
sg25
g2802
sbsS'192.168.2.48'
p2814
(iprimitives
AccesPoint
p2815
(dp2816
g4
Nsg5
I3
sg6
g7
(g8
g9
Ntp2817
Rp2818
(dp2819
g13
g7
(g14
g9
Ntp2820
Rp2821
sg17
g18
sg19
(lp2822
F12.101312
aF54.092221
asg21
(dp2823
sbsg23
S'19.05.2012 (23:24:04)'
p2824
sg24
Nsg25
g2814
sbsS'192.168.1.139'
p2825
(iprimitives
AccesPoint
p2826
(dp2827
g4
Nsg5
I3
sg6
g7
(g8
g9
Ntp2828
Rp2829
(dp2830
g13
g7
(g14
g9
Ntp2831
Rp2832
sg17
g18
sg19
(lp2833
F12.1131
aF54.09345
asg21
(dp2834
sbsg23
S'29.03.2011 (14:59:04)'
p2835
sg24
Nsg25
g2825
sbsS'192.168.1.138'
p2836
(iprimitives
AccesPoint
p2837
(dp2838
g62
I0
sg63
S'OpenWrt(white russian  RC6-ON3rc4)'
p2839
sg4
I0
sg5
I3
sg65
g272
sg6
g7
(g8
g9
Ntp2840
Rp2841
(dp2842
g13
g7
(g14
g9
Ntp2843
Rp2844
sg17
g18
sg19
(lp2845
F12.11665
aF54.08865
asg21
(dp2846
sbsg23
S'20.05.2012 (16:56:04)'
p2847
sg24
I0
sg25
g2836
sbsS'192.168.2.5'
p2848
(iprimitives
AccesPoint
p2849
(dp2850
g62
I0
sg63
S'AirOS(XM.v5.2.1 )'
p2851
sg4
I0
sg5
I3
sg65
g135
sg6
g7
(g8
g9
Ntp2852
Rp2853
(dp2854
g13
g7
(g14
g9
Ntp2855
Rp2856
sg17
g18
sg19
(lp2857
F12.107875
aF54.071535
asg21
(dp2858
sbsg23
S'20.05.2012 (16:57:04)'
p2859
sg24
I0
sg25
g2848
sbsS'192.168.2.15'
p2860
(iprimitives
AccesPoint
p2861
(dp2862
g4
Nsg5
Nsg6
g7
(g8
g9
Ntp2863
Rp2864
(dp2865
g13
g7
(g14
g9
Ntp2866
Rp2867
sg17
g18
sg19
(lp2868
F12.15857
aF54.02775
asg21
(dp2869
sbsg23
Nsg24
Nsg25
g2860
sbsS'192.168.1.86'
p2870
(iprimitives
AccesPoint
p2871
(dp2872
g62
I1
sg63
S'OpenWrt(white russian  0.9-ON5)'
p2873
sg4
I0
sg5
I3
sg65
g272
sg6
g7
(g8
g9
Ntp2874
Rp2875
(dp2876
g13
g7
(g14
g9
Ntp2877
Rp2878
sg17
g18
sg19
(lp2879
F12.117405
aF54.091712
asg21
(dp2880
sbsg23
S'20.05.2012 (16:57:04)'
p2881
sg24
I0
sg25
g2870
sbsS'192.168.1.87'
p2882
(iprimitives
AccesPoint
p2883
(dp2884
g4
Nsg5
I3
sg6
g7
(g8
g9
Ntp2885
Rp2886
(dp2887
g13
g7
(g14
g9
Ntp2888
Rp2889
sg17
g18
sg19
(lp2890
F12.158153
aF54.027638
asg21
(dp2891
sbsg23
S'20.05.2012 (01:13:04)'
p2892
sg24
Nsg25
g2882
sbsS'192.168.1.44'
p2893
(iprimitives
AccesPoint
p2894
(dp2895
g4
Nsg5
I3
sg6
g7
(g8
g9
Ntp2896
Rp2897
(dp2898
g13
g7
(g14
g9
Ntp2899
Rp2900
sg17
g18
sg19
(lp2901
F12.295858
aF54.007876
asg21
(dp2902
sbsg23
S'07.04.2012 (11:34:04)'
p2903
sg24
Nsg25
g2893
sbsS'192.168.1.88'
p2904
(iprimitives
AccesPoint
p2905
(dp2906
g4
Nsg5
I3
sg6
g7
(g8
g9
Ntp2907
Rp2908
(dp2909
g13
g7
(g14
g9
Ntp2910
Rp2911
sg17
g18
sg19
(lp2912
F12.0989620685
aF54.0908055793
asg21
(dp2913
sbsg23
S'07.03.2012 (11:12:04)'
p2914
sg24
Nsg25
g2904
sbsS'192.168.1.46'
p2915
(iprimitives
AccesPoint
p2916
(dp2917
g62
I0
sg63
S'AirOS(XM.v5.2.1 )'
p2918
sg4
I0
sg5
I3
sg65
g135
sg6
g7
(g8
g9
Ntp2919
Rp2920
(dp2921
g13
g7
(g14
g9
Ntp2922
Rp2923
sg17
g18
sg19
(lp2924
F12.136513
aF54.077709
asg21
(dp2925
sbsg23
S'20.05.2012 (16:57:04)'
p2926
sg24
I0
sg25
g2915
sbsS'192.168.1.47'
p2927
(iprimitives
AccesPoint
p2928
(dp2929
g4
Nsg5
I3
sg6
g7
(g8
g9
Ntp2930
Rp2931
(dp2932
g13
g7
(g14
g9
Ntp2933
Rp2934
sg17
g18
sg19
(lp2935
F12.159
aF54.0753
asg21
(dp2936
sbsg23
S'20.05.2012 (16:57:04)'
p2937
sg24
Nsg25
g2927
sbsS'192.168.1.40'
p2938
(iprimitives
AccesPoint
p2939
(dp2940
g4
Nsg5
I3
sg6
g7
(g8
g9
Ntp2941
Rp2942
(dp2943
g13
g7
(g14
g9
Ntp2944
Rp2945
sg17
g18
sg19
(lp2946
F12.295479
aF54.008681
asg21
(dp2947
sbsg23
S'20.05.2012 (16:57:04)'
p2948
sg24
Nsg25
g2938
sbsS'192.168.1.41'
p2949
(iprimitives
AccesPoint
p2950
(dp2951
g4
Nsg5
I3
sg6
g7
(g8
g9
Ntp2952
Rp2953
(dp2954
g13
g7
(g14
g9
Ntp2955
Rp2956
sg17
g18
sg19
(lp2957
F12.1147
aF54.088
asg21
(dp2958
sbsg23
S'20.05.2012 (16:57:04)'
p2959
sg24
Nsg25
g2949
sbsS'192.168.1.42'
p2960
(iprimitives
AccesPoint
p2961
(dp2962
g4
Nsg5
I3
sg6
g7
(g8
g9
Ntp2963
Rp2964
(dp2965
g13
g7
(g14
g9
Ntp2966
Rp2967
sg17
g18
sg19
(lp2968
F12.117862
aF54.088703
asg21
(dp2969
sbsg23
S'19.05.2012 (14:21:04)'
p2970
sg24
Nsg25
g2960
sbsS'192.168.1.89'
p2971
(iprimitives
AccesPoint
p2972
(dp2973
g4
Nsg5
I3
sg6
g7
(g8
g9
Ntp2974
Rp2975
(dp2976
g13
g7
(g14
g9
Ntp2977
Rp2978
sg17
g18
sg19
(lp2979
F12.1065
aF54.0925
asg21
(dp2980
sbsg23
S'20.05.2012 (16:57:04)'
p2981
sg24
Nsg25
g2971
sbsS'192.168.1.48'
p2982
(iprimitives
AccesPoint
p2983
(dp2984
g4
Nsg5
I3
sg6
g7
(g8
g9
Ntp2985
Rp2986
(dp2987
g13
g7
(g14
g9
Ntp2988
Rp2989
sg17
g18
sg19
(lp2990
F12.109734
aF54.104898
asg21
(dp2991
sbsg23
S'06.05.2012 (08:33:04)'
p2992
sg24
Nsg25
g2982
sbsS'192.168.1.49'
p2993
(iprimitives
AccesPoint
p2994
(dp2995
g62
I1
sg63
S'OpenWrt(backfire 10.03.1)'
p2996
sg4
I0
sg5
I3
sg65
g1488
sg6
g7
(g8
g9
Ntp2997
Rp2998
(dp2999
g13
g7
(g14
g9
Ntp3000
Rp3001
sg17
g18
sg19
(lp3002
g35
ag35
asg21
(dp3003
sbsg23
S'14.11.2011 (07:40:04)'
p3004
sg24
I0
sg25
g2993
sbsS'192.168.1.81'
p3005
(iprimitives
AccesPoint
p3006
(dp3007
g4
Nsg5
I3
sg6
g7
(g8
g9
Ntp3008
Rp3009
(dp3010
g13
g7
(g14
g9
Ntp3011
Rp3012
sg17
g18
sg19
(lp3013
F12.11149
aF54.09244
asg21
(dp3014
sbsg23
S'01.09.2011 (05:09:04)'
p3015
sg24
Nsg25
g3005
sbsS'192.168.1.203'
p3016
(iprimitives
AccesPoint
p3017
(dp3018
g4
Nsg5
I3
sg6
g7
(g8
g9
Ntp3019
Rp3020
(dp3021
g13
g7
(g14
g9
Ntp3022
Rp3023
sg17
g18
sg19
(lp3024
g35
ag35
asg21
(dp3025
sbsg23
S'03.09.2010 (13:28:04)'
p3026
sg24
Nsg25
g3016
sbsS'192.168.1.202'
p3027
(iprimitives
AccesPoint
p3028
(dp3029
g62
I1
sg63
S'OpenWrt(backfire 10.03.1-RC6)'
p3030
sg4
I1
sg5
I3
sg65
g170
sg6
g7
(g8
g9
Ntp3031
Rp3032
(dp3033
g13
g7
(g14
g9
Ntp3034
Rp3035
sg17
g18
sg19
(lp3036
F12.123295
aF54.091227
asg21
(dp3037
sbsg23
S'20.05.2012 (16:57:04)'
p3038
sg24
I0
sg25
g3027
sbsS'192.168.1.201'
p3039
(iprimitives
AccesPoint
p3040
(dp3041
g62
I1
sg63
S'OpenWrt(backfire 10.03.1-RC6)'
p3042
sg4
I1
sg5
I3
sg65
g170
sg6
g7
(g8
g9
Ntp3043
Rp3044
(dp3045
g13
g7
(g14
g9
Ntp3046
Rp3047
sg17
g18
sg19
(lp3048
F12.123245
aF54.09122
asg21
(dp3049
sbsg23
S'20.05.2012 (16:57:04)'
p3050
sg24
I0
sg25
g3039
sbsS'192.168.1.200'
p3051
(iprimitives
AccesPoint
p3052
(dp3053
g4
Nsg5
I3
sg6
g7
(g8
g9
Ntp3054
Rp3055
(dp3056
g13
g7
(g14
g9
Ntp3057
Rp3058
sg17
g18
sg19
(lp3059
F12.150007
aF54.115496
asg21
(dp3060
sbsg23
S'19.05.2012 (04:12:04)'
p3061
sg24
Nsg25
g3051
sbsS'192.168.1.207'
p3062
(iprimitives
AccesPoint
p3063
(dp3064
g4
Nsg5
I3
sg6
g7
(g8
g9
Ntp3065
Rp3066
(dp3067
g13
g7
(g14
g9
Ntp3068
Rp3069
sg17
g18
sg19
(lp3070
F12.170894
aF54.02823
asg21
(dp3071
sbsg23
S'19.11.2011 (10:22:04)'
p3072
sg24
Nsg25
g3062
sbsS'192.168.1.206'
p3073
(iprimitives
AccesPoint
p3074
(dp3075
g4
Nsg5
I3
sg6
g7
(g8
g9
Ntp3076
Rp3077
(dp3078
g13
g7
(g14
g9
Ntp3079
Rp3080
sg17
g18
sg19
(lp3081
g35
ag35
asg21
(dp3082
sbsg23
S'13.01.2012 (10:40:04)'
p3083
sg24
Nsg25
g3073
sbsS'192.168.1.205'
p3084
(iprimitives
AccesPoint
p3085
(dp3086
g62
I0
sg63
S'OpenWrt(backfire 10.03.1)'
p3087
sg4
I0
sg5
I3
sg65
g1488
sg6
g7
(g8
g9
Ntp3088
Rp3089
(dp3090
g13
g7
(g14
g9
Ntp3091
Rp3092
sg17
g18
sg19
(lp3093
F11.41611
aF53.63082
asg21
(dp3094
sbsg23
S'20.05.2012 (16:57:04)'
p3095
sg24
I1
sg25
g3084
sbsS'192.168.1.204'
p3096
(iprimitives
AccesPoint
p3097
(dp3098
g4
Nsg5
I3
sg6
g7
(g8
g9
Ntp3099
Rp3100
(dp3101
g13
g7
(g14
g9
Ntp3102
Rp3103
sg17
g18
sg19
(lp3104
F12.211905
aF54.049009
asg21
(dp3105
sbsg23
S'31.03.2012 (07:40:04)'
p3106
sg24
Nsg25
g3096
sbsS'192.168.1.209'
p3107
(iprimitives
AccesPoint
p3108
(dp3109
g4
Nsg5
I3
sg6
g7
(g8
g9
Ntp3110
Rp3111
(dp3112
g13
g7
(g14
g9
Ntp3113
Rp3114
sg17
g18
sg19
(lp3115
F12.155128
aF54.023781
asg21
(dp3116
sbsg23
S'02.03.2012 (07:16:04)'
p3117
sg24
Nsg25
g3107
sbsS'192.168.1.208'
p3118
(iprimitives
AccesPoint
p3119
(dp3120
g4
Nsg5
I3
sg6
g7
(g8
g9
Ntp3121
Rp3122
(dp3123
g13
g7
(g14
g9
Ntp3124
Rp3125
sg17
g18
sg19
(lp3126
F12.156909
aF54.02639
asg21
(dp3127
sbsg23
S'26.02.2012 (08:24:04)'
p3128
sg24
Nsg25
g3118
sbsS'192.168.1.228'
p3129
(iprimitives
AccesPoint
p3130
(dp3131
g4
Nsg5
Nsg6
g7
(g8
g9
Ntp3132
Rp3133
(dp3134
g13
g7
(g14
g9
Ntp3135
Rp3136
sg17
g18
sg19
(lp3137
F12.260804
aF54.017482
asg21
(dp3138
sbsg23
Nsg24
Nsg25
g3129
sbsS'192.168.1.7'
p3139
(iprimitives
AccesPoint
p3140
(dp3141
g4
Nsg5
I3
sg6
g7
(g8
g9
Ntp3142
Rp3143
(dp3144
g13
g7
(g14
g9
Ntp3145
Rp3146
sg17
g18
sg19
(lp3147
F12.116804
aF54.090384
asg21
(dp3148
sbsg23
S'01.09.2010 (14:13:04)'
p3149
sg24
Nsg25
g3139
sbsS'192.168.1.6'
p3150
(iprimitives
AccesPoint
p3151
(dp3152
g4
Nsg5
I3
sg6
g7
(g8
g9
Ntp3153
Rp3154
(dp3155
g13
g7
(g14
g9
Ntp3156
Rp3157
sg17
g18
sg19
(lp3158
g35
ag35
asg21
(dp3159
sbsg23
S'18.09.2011 (15:54:04)'
p3160
sg24
Nsg25
g3150
sbsS'192.168.1.5'
p3161
(iprimitives
AccesPoint
p3162
(dp3163
g4
Nsg5
I3
sg6
g7
(g8
g9
Ntp3164
Rp3165
(dp3166
g13
g7
(g14
g9
Ntp3167
Rp3168
sg17
g18
sg19
(lp3169
g35
ag35
asg21
(dp3170
sbsg23
S'28.09.2011 (15:49:04)'
p3171
sg24
Nsg25
g3161
sbsS'192.168.1.4'
p3172
(iprimitives
AccesPoint
p3173
(dp3174
g4
Nsg5
I3
sg6
g7
(g8
g9
Ntp3175
Rp3176
(dp3177
g13
g7
(g14
g9
Ntp3178
Rp3179
sg17
g18
sg19
(lp3180
g35
ag35
asg21
(dp3181
sbsg23
S'09.12.2011 (12:00:04)'
p3182
sg24
Nsg25
g3172
sbsS'192.168.1.3'
p3183
(iprimitives
AccesPoint
p3184
(dp3185
g4
Nsg5
I3
sg6
g7
(g8
g9
Ntp3186
Rp3187
(dp3188
g13
g7
(g14
g9
Ntp3189
Rp3190
sg17
g18
sg19
(lp3191
F12.09902644
aF54.09096918
asg21
(dp3192
sbsg23
S'11.05.2011 (13:16:04)'
p3193
sg24
Nsg25
g3183
sbsS'192.168.1.127'
p3194
(iprimitives
AccesPoint
p3195
(dp3196
g4
Nsg5
I3
sg6
g7
(g8
g9
Ntp3197
Rp3198
(dp3199
g13
g7
(g14
g9
Ntp3200
Rp3201
sg17
g18
sg19
(lp3202
F12.126793
aF54.095688
asg21
(dp3203
sbsg23
S'20.05.2012 (16:56:04)'
p3204
sg24
Nsg25
g3194
sbsS'192.168.1.124'
p3205
(iprimitives
AccesPoint
p3206
(dp3207
g62
I1
sg63
S'OpenWrt(backfire 10.03.1-RC6)'
p3208
sg4
I1
sg5
I3
sg65
g170
sg6
g7
(g8
g9
Ntp3209
Rp3210
(dp3211
g13
g7
(g14
g9
Ntp3212
Rp3213
sg17
g18
sg19
(lp3214
F12.11665
aF54.08855
asg21
(dp3215
sbsg23
S'20.05.2012 (16:56:04)'
p3216
sg24
I0
sg25
g3205
sbsS'192.168.1.125'
p3217
(iprimitives
AccesPoint
p3218
(dp3219
g4
Nsg5
I3
sg6
g7
(g8
g9
Ntp3220
Rp3221
(dp3222
g13
g7
(g14
g9
Ntp3223
Rp3224
sg17
g18
sg19
(lp3225
F12.211787
aF54.048949
asg21
(dp3226
sbsg23
S'14.01.2012 (13:33:04)'
p3227
sg24
Nsg25
g3217
sbsS'192.168.1.128'
p3228
(iprimitives
AccesPoint
p3229
(dp3230
g4
Nsg5
I3
sg6
g7
(g8
g9
Ntp3231
Rp3232
(dp3233
g13
g7
(g14
g9
Ntp3234
Rp3235
sg17
g18
sg19
(lp3236
F12.114927
aF54.0881
asg21
(dp3237
sbsg23
S'20.05.2012 (16:56:04)'
p3238
sg24
Nsg25
g3228
sbsS'192.168.1.129'
p3239
(iprimitives
AccesPoint
p3240
(dp3241
g4
Nsg5
I3
sg6
g7
(g8
g9
Ntp3242
Rp3243
(dp3244
g13
g7
(g14
g9
Ntp3245
Rp3246
sg17
g18
sg19
(lp3247
F12.112663
aF54.092869
asg21
(dp3248
sbsg23
S'09.12.2011 (12:00:04)'
p3249
sg24
Nsg25
g3239
sbsS'192.168.1.9'
p3250
(iprimitives
AccesPoint
p3251
(dp3252
g4
Nsg5
Nsg6
g7
(g8
g9
Ntp3253
Rp3254
(dp3255
g13
g7
(g14
g9
Ntp3256
Rp3257
sg17
g18
sg19
(lp3258
F12.072407
aF54.092808
asg21
(dp3259
sbsg23
Nsg24
Nsg25
g3250
sbsS'192.168.1.8'
p3260
(iprimitives
AccesPoint
p3261
(dp3262
g4
Nsg5
Nsg6
g7
(g8
g9
Ntp3263
Rp3264
(dp3265
g13
g7
(g14
g9
Ntp3266
Rp3267
sg17
g18
sg19
(lp3268
F12.09902644
aF54.09096918
asg21
(dp3269
sbsg23
Nsg24
Nsg25
g3260
sbsS'192.168.1.136'
p3270
(iprimitives
AccesPoint
p3271
(dp3272
g4
Nsg5
Nsg6
g7
(g8
g9
Ntp3273
Rp3274
(dp3275
g13
g7
(g14
g9
Ntp3276
Rp3277
sg17
g18
sg19
(lp3278
F12.117373
aF54.08854
asg21
(dp3279
sbsg23
Nsg24
Nsg25
g3270
sbsS'192.168.1.57'
p3280
(iprimitives
AccesPoint
p3281
(dp3282
g4
Nsg5
I3
sg6
g7
(g8
g9
Ntp3283
Rp3284
(dp3285
g13
g7
(g14
g9
Ntp3286
Rp3287
sg17
g18
sg19
(lp3288
F12.117866
aF54.091793
asg21
(dp3289
sbsg23
S'20.05.2012 (16:57:04)'
p3290
sg24
Nsg25
g3280
sbsS'192.168.1.56'
p3291
(iprimitives
AccesPoint
p3292
(dp3293
g4
Nsg5
I3
sg6
g7
(g8
g9
Ntp3294
Rp3295
(dp3296
g13
g7
(g14
g9
Ntp3297
Rp3298
sg17
g18
sg19
(lp3299
F12.112
aF54.08846
asg21
(dp3300
sbsg23
S'01.04.2012 (18:43:04)'
p3301
sg24
Nsg25
g3291
sbsS'192.168.1.55'
p3302
(iprimitives
AccesPoint
p3303
(dp3304
g4
Nsg5
I3
sg6
g7
(g8
g9
Ntp3305
Rp3306
(dp3307
g13
g7
(g14
g9
Ntp3308
Rp3309
sg17
g18
sg19
(lp3310
F12.11019
aF54.0908
asg21
(dp3311
sbsg23
S'20.05.2012 (11:59:04)'
p3312
sg24
Nsg25
g3302
sbsS'192.168.1.54'
p3313
(iprimitives
AccesPoint
p3314
(dp3315
g4
Nsg5
Nsg6
g7
(g8
g9
Ntp3316
Rp3317
(dp3318
g13
g7
(g14
g9
Ntp3319
Rp3320
sg17
g18
sg19
(lp3321
F12.13598
aF54.08267
asg21
(dp3322
sbsg23
Nsg24
Nsg25
g3313
sbsS'192.168.1.53'
p3323
(iprimitives
AccesPoint
p3324
(dp3325
g4
Nsg5
I3
sg6
g7
(g8
g9
Ntp3326
Rp3327
(dp3328
g13
g7
(g14
g9
Ntp3329
Rp3330
sg17
g18
sg19
(lp3331
F12.1237
aF54.08804
asg21
(dp3332
sbsg23
S'27.03.2011 (16:59:04)'
p3333
sg24
Nsg25
g3323
sbsS'192.168.1.52'
p3334
(iprimitives
AccesPoint
p3335
(dp3336
g62
I0
sg63
S'AirOS(XM.v5.2.1 )'
p3337
sg4
I0
sg5
I3
sg65
g135
sg6
g7
(g8
g9
Ntp3338
Rp3339
(dp3340
g13
g7
(g14
g9
Ntp3341
Rp3342
sg17
g18
sg19
(lp3343
F12.120565
aF54.07244
asg21
(dp3344
sbsg23
S'20.05.2012 (16:57:04)'
p3345
sg24
I0
sg25
g3334
sbsS'192.168.1.51'
p3346
(iprimitives
AccesPoint
p3347
(dp3348
g62
I1
sg63
S'OpenWrt(white russian  0.9-ON5)'
p3349
sg4
I0
sg5
I3
sg65
g272
sg6
g7
(g8
g9
Ntp3350
Rp3351
(dp3352
g13
g7
(g14
g9
Ntp3353
Rp3354
sg17
g18
sg19
(lp3355
F12.157751
aF54.027553
asg21
(dp3356
sbsg23
S'20.05.2012 (16:57:04)'
p3357
sg24
I0
sg25
g3346
sbsS'192.168.1.50'
p3358
(iprimitives
AccesPoint
p3359
(dp3360
g4
Nsg5
I3
sg6
g7
(g8
g9
Ntp3361
Rp3362
(dp3363
g13
g7
(g14
g9
Ntp3364
Rp3365
sg17
g18
sg19
(lp3366
F12.325222
aF53.781149
asg21
(dp3367
sbsg23
S'23.05.2011 (22:37:04)'
p3368
sg24
Nsg25
g3358
sbsS'192.168.1.59'
p3369
(iprimitives
AccesPoint
p3370
(dp3371
g4
Nsg5
I3
sg6
g7
(g8
g9
Ntp3372
Rp3373
(dp3374
g13
g7
(g14
g9
Ntp3375
Rp3376
sg17
g18
sg19
(lp3377
F11.413942
aF53.629559
asg21
(dp3378
sbsg23
S'20.05.2012 (16:57:04)'
p3379
sg24
Nsg25
g3369
sbsS'192.168.1.58'
p3380
(iprimitives
AccesPoint
p3381
(dp3382
g62
I1
sg63
S'OpenWrt(white russian  0.9-ON5)'
p3383
sg4
I0
sg5
I3
sg65
g1000
sg6
g7
(g8
g9
Ntp3384
Rp3385
(dp3386
g13
g7
(g14
g9
Ntp3387
Rp3388
sg17
g18
sg19
(lp3389
F12.158689
aF54.0753
asg21
(dp3390
sbsg23
S'20.05.2012 (16:57:04)'
p3391
sg24
I0
sg25
g3380
sbs.