(dp0
S'192.168.2.14'
p1
(iprimitives
AccesPoint
p2
(dp3
S'wifidog'
p4
NsS'state'
p5
NsS'position'
p6
ccopy_reg
_reconstructor
p7
(cgeojson.geometry
Point
p8
c__builtin__
object
p9
Ntp10
Rp11
(dp12
S'crs'
p13
g7
(cgeojson.crs
Default
p14
g9
Ntp15
Rp16
sS'type'
p17
S'Point'
p18
sS'coordinates'
p19
(lp20
F12.15857
aF54.02775
asS'extra'
p21
(dp22
sbsS'lastonline'
p23
NsS'ugw'
p24
NsS'id'
p25
g1
sbsS'192.168.1.119'
p26
(iprimitives
AccesPoint
p27
(dp28
g4
Nsg5
I4
sg6
g7
(g8
g9
Ntp29
Rp30
(dp31
g13
g7
(g14
g9
Ntp32
Rp33
sg17
g18
sg19
(lp34
S''
p35
ag35
asg21
(dp36
sbsg23
S'17.02.2010 (05:10:08)'
p37
sg24
Nsg25
g26
sbsS'192.168.1.118'
p38
(iprimitives
AccesPoint
p39
(dp40
g4
Nsg5
I1
sg6
g7
(g8
g9
Ntp41
Rp42
(dp43
g13
g7
(g14
g9
Ntp44
Rp45
sg17
g18
sg19
(lp46
F12.114927
aF54.087829
asg21
(dp47
sbsg23
S'17.06.2012 (13:58:04)'
p48
sg24
Nsg25
g38
sbsS'192.168.1.117'
p49
(iprimitives
AccesPoint
p50
(dp51
g4
Nsg5
Nsg6
g7
(g8
g9
Ntp52
Rp53
(dp54
g13
g7
(g14
g9
Ntp55
Rp56
sg17
g18
sg19
(lp57
F12.110621
aF54.090421
asg21
(dp58
sbsg23
Nsg24
Nsg25
g49
sbsS'192.168.1.116'
p59
(iprimitives
AccesPoint
p60
(dp61
S'vpn'
p62
I0
sS'os'
p63
S'AirOS(XM.v5.3.3 )'
p64
sg4
I0
sg5
I1
sS'board'
p65
S'Ubiquiti NanoBridge M5'
p66
sg6
g7
(g8
g9
Ntp67
Rp68
(dp69
g13
g7
(g14
g9
Ntp70
Rp71
sg17
g18
sg19
(lp72
F11.421235
aF53.700792
asg21
(dp73
sbsg23
S'17.06.2012 (13:57:04)'
p74
sg24
I0
sg25
g59
sbsS'192.168.1.115'
p75
(iprimitives
AccesPoint
p76
(dp77
g4
Nsg5
I3
sg6
g7
(g8
g9
Ntp78
Rp79
(dp80
g13
g7
(g14
g9
Ntp81
Rp82
sg17
g18
sg19
(lp83
F12.102045
aF54.117033
asg21
(dp84
sbsg23
S'25.06.2011 (20:02:04)'
p85
sg24
Nsg25
g75
sbsS'192.168.1.114'
p86
(iprimitives
AccesPoint
p87
(dp88
g4
Nsg5
I3
sg6
g7
(g8
g9
Ntp89
Rp90
(dp91
g13
g7
(g14
g9
Ntp92
Rp93
sg17
g18
sg19
(lp94
F12.156051
aF54.027887
asg21
(dp95
sbsg23
S'09.04.2012 (17:38:04)'
p96
sg24
Nsg25
g86
sbsS'192.168.1.113'
p97
(iprimitives
AccesPoint
p98
(dp99
g62
I0
sg63
S'AirOS(XM.v5.3.3 )'
p100
sg4
I0
sg5
I1
sg65
g66
sg6
g7
(g8
g9
Ntp101
Rp102
(dp103
g13
g7
(g14
g9
Ntp104
Rp105
sg17
g18
sg19
(lp106
F11.413947
aF53.629677
asg21
(dp107
sbsg23
S'17.06.2012 (13:58:04)'
p108
sg24
I0
sg25
g97
sbsS'192.168.1.112'
p109
(iprimitives
AccesPoint
p110
(dp111
g4
Nsg5
I1
sg6
g7
(g8
g9
Ntp112
Rp113
(dp114
g13
g7
(g14
g9
Ntp115
Rp116
sg17
g18
sg19
(lp117
F12.155771
aF54.025192
asg21
(dp118
sbsg23
S'17.06.2012 (13:59:04)'
p119
sg24
Nsg25
g109
sbsS'192.168.1.111'
p120
(iprimitives
AccesPoint
p121
(dp122
g4
Nsg5
I1
sg6
g7
(g8
g9
Ntp123
Rp124
(dp125
g13
g7
(g14
g9
Ntp126
Rp127
sg17
g18
sg19
(lp128
F12.189857
aF54.005511
asg21
(dp129
sbsg23
S'17.06.2012 (13:58:04)'
p130
sg24
Nsg25
g120
sbsS'192.168.1.110'
p131
(iprimitives
AccesPoint
p132
(dp133
g62
I0
sg63
S'AirOS(XM.v5.2.1 )'
p134
sg4
I0
sg5
I1
sg65
S'Ubiquiti NanoStration M5'
p135
sg6
g7
(g8
g9
Ntp136
Rp137
(dp138
g13
g7
(g14
g9
Ntp139
Rp140
sg17
g18
sg19
(lp141
F12.1285
aF54.082
asg21
(dp142
sbsg23
S'17.06.2012 (13:58:04)'
p143
sg24
I0
sg25
g131
sbsS'192.168.1.84'
p144
(iprimitives
AccesPoint
p145
(dp146
g4
Nsg5
I3
sg6
g7
(g8
g9
Ntp147
Rp148
(dp149
g13
g7
(g14
g9
Ntp150
Rp151
sg17
g18
sg19
(lp152
F12.213771
aF54.048064
asg21
(dp153
sbsg23
S'10.08.2011 (14:26:04)'
p154
sg24
Nsg25
g144
sbsS'192.168.1.16'
p155
(iprimitives
AccesPoint
p156
(dp157
g4
Nsg5
I4
sg6
g7
(g8
g9
Ntp158
Rp159
(dp160
g13
g7
(g14
g9
Ntp161
Rp162
sg17
g18
sg19
(lp163
g35
ag35
asg21
(dp164
sbsg23
S'06.09.2011 (10:19:04)'
p165
sg24
Nsg25
g155
sbsS'192.168.1.103'
p166
(iprimitives
AccesPoint
p167
(dp168
g62
I1
sg63
S'OpenWrt(backfire 10.03.1-RC6)'
p169
sg4
I1
sg5
I1
sg65
S'Linksys WRT54G'
p170
sg6
g7
(g8
g9
Ntp171
Rp172
(dp173
g13
g7
(g14
g9
Ntp174
Rp175
sg17
g18
sg19
(lp176
F12.11675
aF54.08865
asg21
(dp177
sbsg23
S'17.06.2012 (13:57:04)'
p178
sg24
I0
sg25
g166
sbsS'192.168.1.31'
p179
(iprimitives
AccesPoint
p180
(dp181
g4
Nsg5
I3
sg6
g7
(g8
g9
Ntp182
Rp183
(dp184
g13
g7
(g14
g9
Ntp185
Rp186
sg17
g18
sg19
(lp187
F12.1438
aF54.081878
asg21
(dp188
sbsg23
S'25.09.2011 (23:12:04)'
p189
sg24
Nsg25
g179
sbsS'192.168.1.45'
p190
(iprimitives
AccesPoint
p191
(dp192
g4
Nsg5
I3
sg6
g7
(g8
g9
Ntp193
Rp194
(dp195
g13
g7
(g14
g9
Ntp196
Rp197
sg17
g18
sg19
(lp198
F12.11287
aF54.0929
asg21
(dp199
sbsg23
S'27.03.2011 (03:25:04)'
p200
sg24
Nsg25
g190
sbsS'192.168.1.62'
p201
(iprimitives
AccesPoint
p202
(dp203
g62
I1
sg63
S'OpenWrt(white russian  0.9-ON5)'
p204
sg4
I0
sg5
I1
sg65
g170
sg6
g7
(g8
g9
Ntp205
Rp206
(dp207
g13
g7
(g14
g9
Ntp208
Rp209
sg17
g18
sg19
(lp210
F12.1066
aF54.0926
asg21
(dp211
sbsg23
S'17.06.2012 (13:58:04)'
p212
sg24
I0
sg25
g201
sbsS'192.168.1.63'
p213
(iprimitives
AccesPoint
p214
(dp215
g4
Nsg5
I3
sg6
g7
(g8
g9
Ntp216
Rp217
(dp218
g13
g7
(g14
g9
Ntp219
Rp220
sg17
g18
sg19
(lp221
F12.111717
aF54.092107
asg21
(dp222
sbsg23
S'22.08.2010 (18:30:06)'
p223
sg24
Nsg25
g213
sbsS'192.168.1.60'
p224
(iprimitives
AccesPoint
p225
(dp226
g4
Nsg5
I4
sg6
g7
(g8
g9
Ntp227
Rp228
(dp229
g13
g7
(g14
g9
Ntp230
Rp231
sg17
g18
sg19
(lp232
g35
ag35
asg21
(dp233
sbsg23
Nsg24
Nsg25
g224
sbsS'192.168.1.61'
p234
(iprimitives
AccesPoint
p235
(dp236
g4
Nsg5
I4
sg6
g7
(g8
g9
Ntp237
Rp238
(dp239
g13
g7
(g14
g9
Ntp240
Rp241
sg17
g18
sg19
(lp242
g35
ag35
asg21
(dp243
sbsg23
S'30.03.2010 (17:04:04)'
p244
sg24
Nsg25
g234
sbsS'192.168.1.66'
p245
(iprimitives
AccesPoint
p246
(dp247
g4
Nsg5
I1
sg6
g7
(g8
g9
Ntp248
Rp249
(dp250
g13
g7
(g14
g9
Ntp251
Rp252
sg17
g18
sg19
(lp253
F12.1099
aF54.08626
asg21
(dp254
sbsg23
S'17.06.2012 (13:57:04)'
p255
sg24
Nsg25
g245
sbsS'192.168.1.67'
p256
(iprimitives
AccesPoint
p257
(dp258
g62
I1
sg63
S'OpenWrt(white russian  0.9-ON5)'
p259
sg4
I0
sg5
I1
sg65
S'Linksys WRT54GL'
p260
sg6
g7
(g8
g9
Ntp261
Rp262
(dp263
g13
g7
(g14
g9
Ntp264
Rp265
sg17
g18
sg19
(lp266
F12.156672
aF54.02494
asg21
(dp267
sbsg23
S'17.06.2012 (13:58:04)'
p268
sg24
I0
sg25
g256
sbsS'192.168.1.64'
p269
(iprimitives
AccesPoint
p270
(dp271
g4
Nsg5
Nsg6
g7
(g8
g9
Ntp272
Rp273
(dp274
g13
g7
(g14
g9
Ntp275
Rp276
sg17
g18
sg19
(lp277
F12.260965
aF54.017522
asg21
(dp278
sbsg23
Nsg24
Nsg25
g269
sbsS'192.168.1.65'
p279
(iprimitives
AccesPoint
p280
(dp281
g4
Nsg5
Nsg6
g7
(g8
g9
Ntp282
Rp283
(dp284
g13
g7
(g14
g9
Ntp285
Rp286
sg17
g18
sg19
(lp287
F12.336059
aF54.020905
asg21
(dp288
sbsg23
Nsg24
Nsg25
g279
sbsS'192.168.1.193'
p289
(iprimitives
AccesPoint
p290
(dp291
g4
Nsg5
I3
sg6
g7
(g8
g9
Ntp292
Rp293
(dp294
g13
g7
(g14
g9
Ntp295
Rp296
sg17
g18
sg19
(lp297
F12.210335
aF54.04833
asg21
(dp298
sbsg23
S'31.03.2012 (07:40:04)'
p299
sg24
Nsg25
g289
sbsS'192.168.1.68'
p300
(iprimitives
AccesPoint
p301
(dp302
g4
Nsg5
I4
sg6
g7
(g8
g9
Ntp303
Rp304
(dp305
g13
g7
(g14
g9
Ntp306
Rp307
sg17
g18
sg19
(lp308
g35
ag35
asg21
(dp309
sbsg23
Nsg24
Nsg25
g300
sbsS'192.168.1.69'
p310
(iprimitives
AccesPoint
p311
(dp312
g4
Nsg5
I3
sg6
g7
(g8
g9
Ntp313
Rp314
(dp315
g13
g7
(g14
g9
Ntp316
Rp317
sg17
g18
sg19
(lp318
F12.211154
aF54.048495
asg21
(dp319
sbsg23
S'23.10.2011 (16:10:04)'
p320
sg24
Nsg25
g310
sbsS'192.168.1.21'
p321
(iprimitives
AccesPoint
p322
(dp323
g4
Nsg5
I4
sg6
g7
(g8
g9
Ntp324
Rp325
(dp326
g13
g7
(g14
g9
Ntp327
Rp328
sg17
g18
sg19
(lp329
g35
ag35
asg21
(dp330
sbsg23
S'17.12.2011 (11:25:04)'
p331
sg24
Nsg25
g321
sbsS'192.168.2.33'
p332
(iprimitives
AccesPoint
p333
(dp334
g4
Nsg5
I1
sg6
g7
(g8
g9
Ntp335
Rp336
(dp337
g13
g7
(g14
g9
Ntp338
Rp339
sg17
g18
sg19
(lp340
F12.1334
aF54.0848
asg21
(dp341
sbsg23
S'17.06.2012 (13:59:04)'
p342
sg24
Nsg25
g332
sbsS'192.168.1.80'
p343
(iprimitives
AccesPoint
p344
(dp345
g62
I1
sg63
S'OpenWrt(white russian  0.9-ON5)'
p346
sg4
I0
sg5
I1
sg65
g260
sg6
g7
(g8
g9
Ntp347
Rp348
(dp349
g13
g7
(g14
g9
Ntp350
Rp351
sg17
g18
sg19
(lp352
F12.155063
aF54.027033
asg21
(dp353
sbsg23
S'17.06.2012 (13:58:04)'
p354
sg24
I0
sg25
g343
sbsS'192.168.1.109'
p355
(iprimitives
AccesPoint
p356
(dp357
g4
Nsg5
I3
sg6
g7
(g8
g9
Ntp358
Rp359
(dp360
g13
g7
(g14
g9
Ntp361
Rp362
sg17
g18
sg19
(lp363
F12.212908
aF54.047184
asg21
(dp364
sbsg23
S'12.01.2012 (10:27:04)'
p365
sg24
Nsg25
g355
sbsS'192.168.1.82'
p366
(iprimitives
AccesPoint
p367
(dp368
g4
Nsg5
I3
sg6
g7
(g8
g9
Ntp369
Rp370
(dp371
g13
g7
(g14
g9
Ntp372
Rp373
sg17
g18
sg19
(lp374
F12.121611
aF54.087011
asg21
(dp375
sbsg23
S'04.06.2012 (19:42:04)'
p376
sg24
Nsg25
g366
sbsS'192.168.2.3'
p377
(iprimitives
AccesPoint
p378
(dp379
g62
I0
sg63
S'AirOS(XM.v5.2.1 )'
p380
sg4
I0
sg5
I1
sg65
g135
sg6
g7
(g8
g9
Ntp381
Rp382
(dp383
g13
g7
(g14
g9
Ntp384
Rp385
sg17
g18
sg19
(lp386
F12.120323
aF54.072364
asg21
(dp387
sbsg23
S'17.06.2012 (13:58:04)'
p388
sg24
I0
sg25
g377
sbsS'192.168.2.4'
p389
(iprimitives
AccesPoint
p390
(dp391
g4
Nsg5
I1
sg6
g7
(g8
g9
Ntp392
Rp393
(dp394
g13
g7
(g14
g9
Ntp395
Rp396
sg17
g18
sg19
(lp397
F12.120377
aF54.072339
asg21
(dp398
sbsg23
S'17.06.2012 (13:58:04)'
p399
sg24
Nsg25
g389
sbsS'192.168.1.85'
p400
(iprimitives
AccesPoint
p401
(dp402
g4
Nsg5
I3
sg6
g7
(g8
g9
Ntp403
Rp404
(dp405
g13
g7
(g14
g9
Ntp406
Rp407
sg17
g18
sg19
(lp408
F12.111373
aF54.092363
asg21
(dp409
sbsg23
S'17.06.2012 (08:09:04)'
p410
sg24
Nsg25
g400
sbsS'192.168.2.6'
p411
(iprimitives
AccesPoint
p412
(dp413
g62
I0
sg63
S'AirOS(XM.v5.2.1 )'
p414
sg4
I0
sg5
I1
sg65
g135
sg6
g7
(g8
g9
Ntp415
Rp416
(dp417
g13
g7
(g14
g9
Ntp418
Rp419
sg17
g18
sg19
(lp420
F12.107988
aF54.071556
asg21
(dp421
sbsg23
S'17.06.2012 (13:59:04)'
p422
sg24
I0
sg25
g411
sbsS'192.168.2.7'
p423
(iprimitives
AccesPoint
p424
(dp425
g4
Nsg5
I1
sg6
g7
(g8
g9
Ntp426
Rp427
(dp428
g13
g7
(g14
g9
Ntp429
Rp430
sg17
g18
sg19
(lp431
F12.106773
aF54.076736
asg21
(dp432
sbsg23
S'17.06.2012 (13:59:04)'
p433
sg24
Nsg25
g423
sbsS'192.168.2.8'
p434
(iprimitives
AccesPoint
p435
(dp436
g4
Nsg5
I1
sg6
g7
(g8
g9
Ntp437
Rp438
(dp439
g13
g7
(g14
g9
Ntp440
Rp441
sg17
g18
sg19
(lp442
F12.106563
aF54.076661
asg21
(dp443
sbsg23
S'17.06.2012 (13:59:04)'
p444
sg24
Nsg25
g434
sbsS'192.168.2.9'
p445
(iprimitives
AccesPoint
p446
(dp447
g4
Nsg5
I4
sg6
g7
(g8
g9
Ntp448
Rp449
(dp450
g13
g7
(g14
g9
Ntp451
Rp452
sg17
g18
sg19
(lp453
g35
ag35
asg21
(dp454
sbsg23
S'23.06.2011 (16:44:04)'
p455
sg24
Nsg25
g445
sbsS'192.168.1.102'
p456
(iprimitives
AccesPoint
p457
(dp458
g4
Nsg5
I3
sg6
g7
(g8
g9
Ntp459
Rp460
(dp461
g13
g7
(g14
g9
Ntp462
Rp463
sg17
g18
sg19
(lp464
F12.114437
aF54.091218
asg21
(dp465
sbsg23
S'20.05.2011 (11:35:04)'
p466
sg24
Nsg25
g456
sbsS'192.168.1.43'
p467
(iprimitives
AccesPoint
p468
(dp469
g4
Nsg5
I3
sg6
g7
(g8
g9
Ntp470
Rp471
(dp472
g13
g7
(g14
g9
Ntp473
Rp474
sg17
g18
sg19
(lp475
F12.112545
aF54.093184
asg21
(dp476
sbsg23
S'07.03.2012 (05:38:04)'
p477
sg24
Nsg25
g467
sbsS'192.168.1.104'
p478
(iprimitives
AccesPoint
p479
(dp480
g62
I1
sg63
S'OpenWrt(backfire 10.03.1-RC6)'
p481
sg4
I1
sg5
I1
sg65
g170
sg6
g7
(g8
g9
Ntp482
Rp483
(dp484
g13
g7
(g14
g9
Ntp485
Rp486
sg17
g18
sg19
(lp487
F12.11675
aF54.08855
asg21
(dp488
sbsg23
S'17.06.2012 (13:57:04)'
p489
sg24
I0
sg25
g478
sbsS'192.168.1.105'
p490
(iprimitives
AccesPoint
p491
(dp492
g4
Nsg5
I3
sg6
g7
(g8
g9
Ntp493
Rp494
(dp495
g13
g7
(g14
g9
Ntp496
Rp497
sg17
g18
sg19
(lp498
F12.119877
aF47.856283
asg21
(dp499
sbsg23
S'05.02.2010 (13:39:02)'
p500
sg24
Nsg25
g490
sbsS'192.168.1.106'
p501
(iprimitives
AccesPoint
p502
(dp503
g62
I1
sg63
S'OpenWrt(backfire 10.03.1-RC6)'
p504
sg4
I1
sg5
I1
sg65
g170
sg6
g7
(g8
g9
Ntp505
Rp506
(dp507
g13
g7
(g14
g9
Ntp508
Rp509
sg17
g18
sg19
(lp510
F12.127222
aF54.095726
asg21
(dp511
sbsg23
S'17.06.2012 (13:58:04)'
p512
sg24
I0
sg25
g501
sbsS'192.168.1.107'
p513
(iprimitives
AccesPoint
p514
(dp515
g4
Nsg5
I3
sg6
g7
(g8
g9
Ntp516
Rp517
(dp518
g13
g7
(g14
g9
Ntp519
Rp520
sg17
g18
sg19
(lp521
F12.025468
aF54.108878
asg21
(dp522
sbsg23
S'07.05.2012 (19:46:04)'
p523
sg24
Nsg25
g513
sbsS'192.168.1.143'
p524
(iprimitives
AccesPoint
p525
(dp526
g4
Nsg5
I1
sg6
g7
(g8
g9
Ntp527
Rp528
(dp529
g13
g7
(g14
g9
Ntp530
Rp531
sg17
g18
sg19
(lp532
F12.267029
aF53.983651
asg21
(dp533
sbsg23
S'17.06.2012 (13:59:04)'
p534
sg24
Nsg25
g524
sbsS'192.168.1.32'
p535
(iprimitives
AccesPoint
p536
(dp537
g4
Nsg5
I1
sg6
g7
(g8
g9
Ntp538
Rp539
(dp540
g13
g7
(g14
g9
Ntp541
Rp542
sg17
g18
sg19
(lp543
F12.111901
aF54.083559
asg21
(dp544
sbsg23
S'17.06.2012 (13:59:04)'
p545
sg24
Nsg25
g535
sbsS'192.168.2.1'
p546
(iprimitives
AccesPoint
p547
(dp548
g4
Nsg5
I4
sg6
g7
(g8
g9
Ntp549
Rp550
(dp551
g13
g7
(g14
g9
Ntp552
Rp553
sg17
g18
sg19
(lp554
g35
ag35
asg21
(dp555
sbsg23
Nsg24
Nsg25
g546
sbsS'192.168.1.35'
p556
(iprimitives
AccesPoint
p557
(dp558
g4
Nsg5
I3
sg6
g7
(g8
g9
Ntp559
Rp560
(dp561
g13
g7
(g14
g9
Ntp562
Rp563
sg17
g18
sg19
(lp564
F12.115163
aF54.089107
asg21
(dp565
sbsg23
S'05.01.2012 (08:28:04)'
p566
sg24
Nsg25
g556
sbsS'192.168.1.100'
p567
(iprimitives
AccesPoint
p568
(dp569
g62
I1
sg63
S'OpenWrt(backfire 10.03.1-RC6)'
p570
sg4
I0
sg5
I1
sg65
S'Ubiquiti Nanostation M'
p571
sg6
g7
(g8
g9
Ntp572
Rp573
(dp574
g13
g7
(g14
g9
Ntp575
Rp576
sg17
g18
sg19
(lp577
F12.294991
aF54.005691
asg21
(dp578
sbsg23
S'17.06.2012 (13:58:04)'
p579
sg24
I0
sg25
g567
sbsS'192.168.1.33'
p580
(iprimitives
AccesPoint
p581
(dp582
g4
Nsg5
I1
sg6
g7
(g8
g9
Ntp583
Rp584
(dp585
g13
g7
(g14
g9
Ntp586
Rp587
sg17
g18
sg19
(lp588
F12.111971
aF54.083622
asg21
(dp589
sbsg23
S'17.06.2012 (13:52:04)'
p590
sg24
Nsg25
g580
sbsS'192.168.1.34'
p591
(iprimitives
AccesPoint
p592
(dp593
g4
Nsg5
I3
sg6
g7
(g8
g9
Ntp594
Rp595
(dp596
g13
g7
(g14
g9
Ntp597
Rp598
sg17
g18
sg19
(lp599
F12.112899
aF54.091642
asg21
(dp600
sbsg23
S'29.05.2010 (17:57:04)'
p601
sg24
Nsg25
g591
sbsS'192.168.1.79'
p602
(iprimitives
AccesPoint
p603
(dp604
g62
I0
sg63
S'OpenWrt(backfire 10.03.1)'
p605
sg4
I0
sg5
I1
sg65
S'Ubiquiti Bullet M'
p606
sg6
g7
(g8
g9
Ntp607
Rp608
(dp609
g13
g7
(g14
g9
Ntp610
Rp611
sg17
g18
sg19
(lp612
F12.1333
aF54.0849
asg21
(dp613
sbsg23
S'17.06.2012 (13:58:04)'
p614
sg24
I0
sg25
g602
sbsS'192.168.1.78'
p615
(iprimitives
AccesPoint
p616
(dp617
g4
Nsg5
I4
sg6
Nsg23
S'18.01.2011 (13:44:04)'
p618
sg24
Nsg25
g615
sbsS'192.168.1.75'
p619
(iprimitives
AccesPoint
p620
(dp621
g4
Nsg5
I3
sg6
g7
(g8
g9
Ntp622
Rp623
(dp624
g13
g7
(g14
g9
Ntp625
Rp626
sg17
g18
sg19
(lp627
F12.11039
aF54.0906
asg21
(dp628
sbsg23
S'17.06.2012 (06:16:04)'
p629
sg24
Nsg25
g619
sbsS'192.168.1.74'
p630
(iprimitives
AccesPoint
p631
(dp632
g4
Nsg5
I4
sg6
g7
(g8
g9
Ntp633
Rp634
(dp635
g13
g7
(g14
g9
Ntp636
Rp637
sg17
g18
sg19
(lp638
g35
ag35
asg21
(dp639
sbsg23
S'10.08.2011 (18:41:04)'
p640
sg24
Nsg25
g630
sbsS'192.168.1.77'
p641
(iprimitives
AccesPoint
p642
(dp643
g4
Nsg5
I1
sg6
g7
(g8
g9
Ntp644
Rp645
(dp646
g13
g7
(g14
g9
Ntp647
Rp648
sg17
g18
sg19
(lp649
F12.266901
aF53.983241
asg21
(dp650
sbsg23
S'17.06.2012 (13:57:04)'
p651
sg24
Nsg25
g641
sbsS'192.168.1.76'
p652
(iprimitives
AccesPoint
p653
(dp654
g4
Nsg5
I3
sg6
g7
(g8
g9
Ntp655
Rp656
(dp657
g13
g7
(g14
g9
Ntp658
Rp659
sg17
g18
sg19
(lp660
F12.11079
aF54.09058
asg21
(dp661
sbsg23
S'06.04.2011 (02:18:04)'
p662
sg24
Nsg25
g652
sbsS'192.168.1.71'
p663
(iprimitives
AccesPoint
p664
(dp665
g4
Nsg5
I4
sg6
g7
(g8
g9
Ntp666
Rp667
(dp668
g13
g7
(g14
g9
Ntp669
Rp670
sg17
g18
sg19
(lp671
g35
ag35
asg21
(dp672
sbsg23
S'08.05.2012 (10:35:04)'
p673
sg24
Nsg25
g663
sbsS'192.168.1.70'
p674
(iprimitives
AccesPoint
p675
(dp676
g4
Nsg5
I1
sg6
g7
(g8
g9
Ntp677
Rp678
(dp679
g13
g7
(g14
g9
Ntp680
Rp681
sg17
g18
sg19
(lp682
F12.131053
aF54.140876
asg21
(dp683
sbsg23
S'17.06.2012 (13:59:04)'
p684
sg24
Nsg25
g674
sbsS'192.168.1.73'
p685
(iprimitives
AccesPoint
p686
(dp687
g4
Nsg5
I3
sg6
g7
(g8
g9
Ntp688
Rp689
(dp690
g13
g7
(g14
g9
Ntp691
Rp692
sg17
g18
sg19
(lp693
F12.111648
aF54.09185
asg21
(dp694
sbsg23
S'17.06.2012 (09:04:04)'
p695
sg24
Nsg25
g685
sbsS'192.168.1.72'
p696
(iprimitives
AccesPoint
p697
(dp698
g4
Nsg5
Nsg6
g7
(g8
g9
Ntp699
Rp700
(dp701
g13
g7
(g14
g9
Ntp702
Rp703
sg17
g18
sg19
(lp704
F12.101912
aF54.116987
asg21
(dp705
sbsg23
Nsg24
Nsg25
g696
sbsS'192.168.1.197'
p706
(iprimitives
AccesPoint
p707
(dp708
g4
Nsg5
I1
sg6
g7
(g8
g9
Ntp709
Rp710
(dp711
g13
g7
(g14
g9
Ntp712
Rp713
sg17
g18
sg19
(lp714
F12.189953
aF54.005524
asg21
(dp715
sbsg23
S'17.06.2012 (13:57:04)'
p716
sg24
Nsg25
g706
sbsS'192.168.1.196'
p717
(iprimitives
AccesPoint
p718
(dp719
g4
Nsg5
I3
sg6
g7
(g8
g9
Ntp720
Rp721
(dp722
g13
g7
(g14
g9
Ntp723
Rp724
sg17
g18
sg19
(lp725
F12.145455
aF54.090818
asg21
(dp726
sbsg23
S'21.09.2010 (08:12:04)'
p727
sg24
Nsg25
g717
sbsS'192.168.1.195'
p728
(iprimitives
AccesPoint
p729
(dp730
g62
I1
sg63
S'OpenWrt(white russian  0.9-ON6)'
p731
sg4
I0
sg5
I1
sg65
g260
sg6
g7
(g8
g9
Ntp732
Rp733
(dp734
g13
g7
(g14
g9
Ntp735
Rp736
sg17
g18
sg19
(lp737
F12.119126
aF54.075052
asg21
(dp738
sbsg23
S'17.06.2012 (13:58:04)'
p739
sg24
I0
sg25
g728
sbsS'192.168.1.194'
p740
(iprimitives
AccesPoint
p741
(dp742
g4
Nsg5
I1
sg6
g7
(g8
g9
Ntp743
Rp744
(dp745
g13
g7
(g14
g9
Ntp746
Rp747
sg17
g18
sg19
(lp748
F12.109594
aF54.090749
asg21
(dp749
sbsg23
S'17.06.2012 (13:49:04)'
p750
sg24
Nsg25
g740
sbsS'192.168.1.218'
p751
(iprimitives
AccesPoint
p752
(dp753
g62
I1
sg63
S'OpenWrt(white russian  0.9-ON5)'
p754
sg4
I0
sg5
I1
sg65
g260
sg6
g7
(g8
g9
Ntp755
Rp756
(dp757
g13
g7
(g14
g9
Ntp758
Rp759
sg17
g18
sg19
(lp760
F12.156587
aF54.025923
asg21
(dp761
sbsg23
S'17.06.2012 (13:58:04)'
p762
sg24
I0
sg25
g751
sbsS'192.168.1.192'
p763
(iprimitives
AccesPoint
p764
(dp765
g4
Nsg5
I1
sg6
g7
(g8
g9
Ntp766
Rp767
(dp768
g13
g7
(g14
g9
Ntp769
Rp770
sg17
g18
sg19
(lp771
F12.120475
aF54.072473
asg21
(dp772
sbsg23
S'17.06.2012 (13:58:04)'
p773
sg24
Nsg25
g763
sbsS'192.168.1.191'
p774
(iprimitives
AccesPoint
p775
(dp776
g4
Nsg5
I3
sg6
g7
(g8
g9
Ntp777
Rp778
(dp779
g13
g7
(g14
g9
Ntp780
Rp781
sg17
g18
sg19
(lp782
F12.112389
aF54.093061
asg21
(dp783
sbsg23
S'01.04.2011 (03:52:04)'
p784
sg24
Nsg25
g774
sbsS'192.168.1.190'
p785
(iprimitives
AccesPoint
p786
(dp787
g4
Nsg5
I3
sg6
g7
(g8
g9
Ntp788
Rp789
(dp790
g13
g7
(g14
g9
Ntp791
Rp792
sg17
g18
sg19
(lp793
F12.212269
aF54.047138
asg21
(dp794
sbsg23
S'19.11.2011 (01:46:04)'
p795
sg24
Nsg25
g785
sbsS'192.168.1.214'
p796
(iprimitives
AccesPoint
p797
(dp798
g62
I1
sg63
S'OpenWrt(white russian  0.9-ON5)'
p799
sg4
I0
sg5
I1
sg65
g260
sg6
g7
(g8
g9
Ntp800
Rp801
(dp802
g13
g7
(g14
g9
Ntp803
Rp804
sg17
g18
sg19
(lp805
F12.155889
aF54.025394
asg21
(dp806
sbsg23
S'17.06.2012 (13:59:04)'
p807
sg24
I0
sg25
g796
sbsS'192.168.1.215'
p808
(iprimitives
AccesPoint
p809
(dp810
g62
I1
sg63
S'OpenWrt(white russian  0.9-ON5)'
p811
sg4
I0
sg5
I1
sg65
g260
sg6
g7
(g8
g9
Ntp812
Rp813
(dp814
g13
g7
(g14
g9
Ntp815
Rp816
sg17
g18
sg19
(lp817
F12.154484
aF54.025192
asg21
(dp818
sbsg23
S'17.06.2012 (13:57:04)'
p819
sg24
I0
sg25
g808
sbsS'192.168.1.216'
p820
(iprimitives
AccesPoint
p821
(dp822
g4
Nsg5
I3
sg6
g7
(g8
g9
Ntp823
Rp824
(dp825
g13
g7
(g14
g9
Ntp826
Rp827
sg17
g18
sg19
(lp828
F12.156329
aF54.025583
asg21
(dp829
sbsg23
S'03.09.2011 (11:20:04)'
p830
sg24
Nsg25
g820
sbsS'192.168.1.217'
p831
(iprimitives
AccesPoint
p832
(dp833
g62
I1
sg63
S'OpenWrt(white russian  0.9-ON5)'
p834
sg4
I0
sg5
I1
sg65
g260
sg6
g7
(g8
g9
Ntp835
Rp836
(dp837
g13
g7
(g14
g9
Ntp838
Rp839
sg17
g18
sg19
(lp840
F12.477551
aF53.756704
asg21
(dp841
sbsg23
S'17.06.2012 (13:57:04)'
p842
sg24
I0
sg25
g831
sbsS'192.168.1.210'
p843
(iprimitives
AccesPoint
p844
(dp845
g4
Nsg5
I4
sg6
g7
(g8
g9
Ntp846
Rp847
(dp848
g13
g7
(g14
g9
Ntp849
Rp850
sg17
g18
sg19
(lp851
g35
ag35
asg21
(dp852
sbsg23
Nsg24
Nsg25
g843
sbsS'192.168.1.211'
p853
(iprimitives
AccesPoint
p854
(dp855
g4
Nsg5
I4
sg6
g7
(g8
g9
Ntp856
Rp857
(dp858
g13
g7
(g14
g9
Ntp859
Rp860
sg17
g18
sg19
(lp861
g35
ag35
asg21
(dp862
sbsg23
Nsg24
Nsg25
g853
sbsS'192.168.1.212'
p863
(iprimitives
AccesPoint
p864
(dp865
g62
I1
sg63
S'OpenWrt(white russian  0.9-ON5)'
p866
sg4
I0
sg5
I1
sg65
g260
sg6
g7
(g8
g9
Ntp867
Rp868
(dp869
g13
g7
(g14
g9
Ntp870
Rp871
sg17
g18
sg19
(lp872
F12.105091
aF54.092238
asg21
(dp873
sbsg23
S'17.06.2012 (13:58:04)'
p874
sg24
I1
sg25
g863
sbsS'192.168.1.198'
p875
(iprimitives
AccesPoint
p876
(dp877
g62
I1
sg63
S'OpenWrt(white russian  0.9-ON5)'
p878
sg4
I0
sg5
I1
sg65
g260
sg6
g7
(g8
g9
Ntp879
Rp880
(dp881
g13
g7
(g14
g9
Ntp882
Rp883
sg17
g18
sg19
(lp884
F12.158496
aF54.027789
asg21
(dp885
sbsg23
S'17.06.2012 (13:58:04)'
p886
sg24
I0
sg25
g875
sbsS'192.168.1.93'
p887
(iprimitives
AccesPoint
p888
(dp889
g4
Nsg5
I4
sg6
g7
(g8
g9
Ntp890
Rp891
(dp892
g13
g7
(g14
g9
Ntp893
Rp894
sg17
g18
sg19
(lp895
g35
ag35
asg21
(dp896
sbsg23
S'02.08.2011 (16:07:04)'
p897
sg24
Nsg25
g887
sbsS'192.168.1.92'
p898
(iprimitives
AccesPoint
p899
(dp900
g4
Nsg5
I3
sg6
g7
(g8
g9
Ntp901
Rp902
(dp903
g13
g7
(g14
g9
Ntp904
Rp905
sg17
g18
sg19
(lp906
F12.109509
aF54.105027
asg21
(dp907
sbsg23
S'06.05.2012 (08:43:04)'
p908
sg24
Nsg25
g898
sbsS'192.168.1.91'
p909
(iprimitives
AccesPoint
p910
(dp911
g62
I1
sg63
S'OpenWrt(white russian  0.9-ON5)'
p912
sg4
I0
sg5
I1
sg65
g260
sg6
g7
(g8
g9
Ntp913
Rp914
(dp915
g13
g7
(g14
g9
Ntp916
Rp917
sg17
g18
sg19
(lp918
F12.153625
aF54.025722
asg21
(dp919
sbsg23
S'17.06.2012 (13:58:04)'
p920
sg24
I0
sg25
g909
sbsS'192.168.1.90'
p921
(iprimitives
AccesPoint
p922
(dp923
g62
I0
sg63
S'OpenWrt(white russian  0.9-ON5)'
p924
sg4
I0
sg5
I1
sg65
g260
sg6
g7
(g8
g9
Ntp925
Rp926
(dp927
g13
g7
(g14
g9
Ntp928
Rp929
sg17
g18
sg19
(lp930
F12.370595
aF54.273441
asg21
(dp931
sbsg23
S'17.06.2012 (13:58:04)'
p932
sg24
I1
sg25
g921
sbsS'192.168.1.97'
p933
(iprimitives
AccesPoint
p934
(dp935
g62
I0
sg63
S'AirOS(XM.v5.2.1 )'
p936
sg4
I0
sg5
I1
sg65
g135
sg6
g7
(g8
g9
Ntp937
Rp938
(dp939
g13
g7
(g14
g9
Ntp940
Rp941
sg17
g18
sg19
(lp942
F11.415916
aF53.630815
asg21
(dp943
sbsg23
S'17.06.2012 (13:57:04)'
p944
sg24
I0
sg25
g933
sbsS'192.168.1.96'
p945
(iprimitives
AccesPoint
p946
(dp947
g4
Nsg5
I3
sg6
g7
(g8
g9
Ntp948
Rp949
(dp950
g13
g7
(g14
g9
Ntp951
Rp952
sg17
g18
sg19
(lp953
F12.21376
aF54.04827
asg21
(dp954
sbsg23
S'05.09.2011 (06:25:04)'
p955
sg24
Nsg25
g945
sbsS'192.168.1.95'
p956
(iprimitives
AccesPoint
p957
(dp958
g4
Nsg5
I1
sg6
g7
(g8
g9
Ntp959
Rp960
(dp961
g13
g7
(g14
g9
Ntp962
Rp963
sg17
g18
sg19
(lp964
F12.123874
aF54.093115
asg21
(dp965
sbsg23
S'17.06.2012 (13:57:04)'
p966
sg24
Nsg25
g956
sbsS'192.168.1.94'
p967
(iprimitives
AccesPoint
p968
(dp969
g4
Nsg5
I4
sg6
g7
(g8
g9
Ntp970
Rp971
(dp972
g13
g7
(g14
g9
Ntp973
Rp974
sg17
g18
sg19
(lp975
g35
ag35
asg21
(dp976
sbsg23
S'22.03.2012 (21:14:04)'
p977
sg24
Nsg25
g967
sbsS'192.168.1.99'
p978
(iprimitives
AccesPoint
p979
(dp980
g4
Nsg5
I4
sg6
g7
(g8
g9
Ntp981
Rp982
(dp983
g13
g7
(g14
g9
Ntp984
Rp985
sg17
g18
sg19
(lp986
g35
ag35
asg21
(dp987
sbsg23
S'26.06.2011 (13:38:04)'
p988
sg24
Nsg25
g978
sbsS'192.168.1.98'
p989
(iprimitives
AccesPoint
p990
(dp991
g62
I1
sg63
S'OpenWrt(white russian  0.9-ON5)'
p992
sg4
I0
sg5
I1
sg65
g260
sg6
g7
(g8
g9
Ntp993
Rp994
(dp995
g13
g7
(g14
g9
Ntp996
Rp997
sg17
g18
sg19
(lp998
F12.156973
aF54.0261
asg21
(dp999
sbsg23
S'17.06.2012 (13:57:04)'
p1000
sg24
I0
sg25
g989
sbsS'192.168.2.41'
p1001
(iprimitives
AccesPoint
p1002
(dp1003
g4
Nsg5
I1
sg6
g7
(g8
g9
Ntp1004
Rp1005
(dp1006
g13
g7
(g14
g9
Ntp1007
Rp1008
sg17
g18
sg19
(lp1009
F12.11647
aF54.088603
asg21
(dp1010
sbsg23
S'17.06.2012 (13:58:04)'
p1011
sg24
Nsg25
g1001
sbsS'192.168.2.40'
p1012
(iprimitives
AccesPoint
p1013
(dp1014
g4
Nsg5
I1
sg6
g7
(g8
g9
Ntp1015
Rp1016
(dp1017
g13
g7
(g14
g9
Ntp1018
Rp1019
sg17
g18
sg19
(lp1020
F12.115018
aF54.088
asg21
(dp1021
sbsg23
S'17.06.2012 (13:59:04)'
p1022
sg24
Nsg25
g1012
sbsS'192.168.2.43'
p1023
(iprimitives
AccesPoint
p1024
(dp1025
g4
Nsg5
I1
sg6
g7
(g8
g9
Ntp1026
Rp1027
(dp1028
g13
g7
(g14
g9
Ntp1029
Rp1030
sg17
g18
sg19
(lp1031
F12.159805
aF54.076387
asg21
(dp1032
sbsg23
S'17.06.2012 (13:58:04)'
p1033
sg24
Nsg25
g1023
sbsS'192.168.2.42'
p1034
(iprimitives
AccesPoint
p1035
(dp1036
g4
Nsg5
I1
sg6
g7
(g8
g9
Ntp1037
Rp1038
(dp1039
g13
g7
(g14
g9
Ntp1040
Rp1041
sg17
g18
sg19
(lp1042
F12.116877
aF54.088523
asg21
(dp1043
sbsg23
S'17.06.2012 (13:58:04)'
p1044
sg24
Nsg25
g1034
sbsS'192.168.1.179'
p1045
(iprimitives
AccesPoint
p1046
(dp1047
g4
Nsg5
I1
sg6
g7
(g8
g9
Ntp1048
Rp1049
(dp1050
g13
g7
(g14
g9
Ntp1051
Rp1052
sg17
g18
sg19
(lp1053
F12.123327
aF54.091429
asg21
(dp1054
sbsg23
S'17.06.2012 (13:58:04)'
p1055
sg24
Nsg25
g1045
sbsS'192.168.1.178'
p1056
(iprimitives
AccesPoint
p1057
(dp1058
g4
Nsg5
I3
sg6
g7
(g8
g9
Ntp1059
Rp1060
(dp1061
g13
g7
(g14
g9
Ntp1062
Rp1063
sg17
g18
sg19
(lp1064
F12.212098
aF54.047503
asg21
(dp1065
sbsg23
S'24.12.2011 (21:23:04)'
p1066
sg24
Nsg25
g1056
sbsS'192.168.2.47'
p1067
(iprimitives
AccesPoint
p1068
(dp1069
g4
Nsg5
Nsg6
g7
(g8
g9
Ntp1070
Rp1071
(dp1072
g13
g7
(g14
g9
Ntp1073
Rp1074
sg17
g18
sg19
(lp1075
F12.14219
aF54.0669
asg21
(dp1076
sbsg23
Nsg24
Nsg25
g1067
sbsS'192.168.2.46'
p1077
(iprimitives
AccesPoint
p1078
(dp1079
g4
Nsg5
I1
sg6
g7
(g8
g9
Ntp1080
Rp1081
(dp1082
g13
g7
(g14
g9
Ntp1083
Rp1084
sg17
g18
sg19
(lp1085
F12.158861
aF54.074675
asg21
(dp1086
sbsg23
S'17.06.2012 (13:59:04)'
p1087
sg24
Nsg25
g1077
sbsS'192.168.1.175'
p1088
(iprimitives
AccesPoint
p1089
(dp1090
g4
Nsg5
I3
sg6
g7
(g8
g9
Ntp1091
Rp1092
(dp1093
g13
g7
(g14
g9
Ntp1094
Rp1095
sg17
g18
sg19
(lp1096
F12.110624
aF54.090913
asg21
(dp1097
sbsg23
S'17.06.2012 (06:16:04)'
p1098
sg24
Nsg25
g1088
sbsS'192.168.1.174'
p1099
(iprimitives
AccesPoint
p1100
(dp1101
g62
I0
sg63
S'OpenWrt(white russian  0.9-ON5)'
p1102
sg4
I0
sg5
I1
sg65
g170
sg6
g7
(g8
g9
Ntp1103
Rp1104
(dp1105
g13
g7
(g14
g9
Ntp1106
Rp1107
sg17
g18
sg19
(lp1108
F12.12293
aF54.091366
asg21
(dp1109
sbsg23
S'17.06.2012 (13:57:04)'
p1110
sg24
I0
sg25
g1099
sbsS'192.168.1.177'
p1111
(iprimitives
AccesPoint
p1112
(dp1113
g4
Nsg5
I1
sg6
g7
(g8
g9
Ntp1114
Rp1115
(dp1116
g13
g7
(g14
g9
Ntp1117
Rp1118
sg17
g18
sg19
(lp1119
F12.098536
aF54.092901
asg21
(dp1120
sbsg23
S'17.06.2012 (13:58:04)'
p1121
sg24
Nsg25
g1111
sbsS'192.168.1.176'
p1122
(iprimitives
AccesPoint
p1123
(dp1124
g4
Nsg5
I3
sg6
g7
(g8
g9
Ntp1125
Rp1126
(dp1127
g13
g7
(g14
g9
Ntp1128
Rp1129
sg17
g18
sg19
(lp1130
F12.11704
aF54.09401
asg21
(dp1131
sbsg23
S'08.06.2011 (09:23:04)'
p1132
sg24
Nsg25
g1122
sbsS'192.168.1.171'
p1133
(iprimitives
AccesPoint
p1134
(dp1135
g62
I0
sg63
S'OpenWrt(white russian  0.9-ON5)'
p1136
sg4
I0
sg5
I1
sg65
g260
sg6
g7
(g8
g9
Ntp1137
Rp1138
(dp1139
g13
g7
(g14
g9
Ntp1140
Rp1141
sg17
g18
sg19
(lp1142
F12.12038
aF54.07247
asg21
(dp1143
sbsg23
S'17.06.2012 (13:57:04)'
p1144
sg24
I0
sg25
g1133
sbsS'192.168.1.170'
p1145
(iprimitives
AccesPoint
p1146
(dp1147
g62
I0
sg63
S'OpenWrt(white russian  0.9-ON5)'
p1148
sg4
I0
sg5
I1
sg65
g170
sg6
g7
(g8
g9
Ntp1149
Rp1150
(dp1151
g13
g7
(g14
g9
Ntp1152
Rp1153
sg17
g18
sg19
(lp1154
F12.098308
aF54.092775
asg21
(dp1155
sbsg23
S'17.06.2012 (13:57:04)'
p1156
sg24
I0
sg25
g1145
sbsS'192.168.1.173'
p1157
(iprimitives
AccesPoint
p1158
(dp1159
g4
Nsg5
I1
sg6
g7
(g8
g9
Ntp1160
Rp1161
(dp1162
g13
g7
(g14
g9
Ntp1163
Rp1164
sg17
g18
sg19
(lp1165
F12.10439
aF54.08125
asg21
(dp1166
sbsg23
S'17.06.2012 (13:59:04)'
p1167
sg24
Nsg25
g1157
sbsS'192.168.1.172'
p1168
(iprimitives
AccesPoint
p1169
(dp1170
g62
I1
sg63
S'OpenWrt(backfire 10.03.1-RC6)'
p1171
sg4
I0
sg5
I1
sg65
g170
sg6
g7
(g8
g9
Ntp1172
Rp1173
(dp1174
g13
g7
(g14
g9
Ntp1175
Rp1176
sg17
g18
sg19
(lp1177
F12.116523
aF54.088523
asg21
(dp1178
sbsg23
S'17.06.2012 (13:59:04)'
p1179
sg24
I0
sg25
g1168
sbsS'192.168.2.13'
p1180
(iprimitives
AccesPoint
p1181
(dp1182
g4
Nsg5
Nsg6
g7
(g8
g9
Ntp1183
Rp1184
(dp1185
g13
g7
(g14
g9
Ntp1186
Rp1187
sg17
g18
sg19
(lp1188
F12.15857
aF54.02775
asg21
(dp1189
sbsg23
Nsg24
Nsg25
g1180
sbsS'192.168.1.180'
p1190
(iprimitives
AccesPoint
p1191
(dp1192
g4
Nsg5
I3
sg6
g7
(g8
g9
Ntp1193
Rp1194
(dp1195
g13
g7
(g14
g9
Ntp1196
Rp1197
sg17
g18
sg19
(lp1198
F12.21106
aF54.048478
asg21
(dp1199
sbsg23
S'08.09.2011 (20:07:04)'
p1200
sg24
Nsg25
g1190
sbsS'192.168.1.181'
p1201
(iprimitives
AccesPoint
p1202
(dp1203
g4
Nsg5
I3
sg6
g7
(g8
g9
Ntp1204
Rp1205
(dp1206
g13
g7
(g14
g9
Ntp1207
Rp1208
sg17
g18
sg19
(lp1209
F12.112389
aF54.093061
asg21
(dp1210
sbsg23
S'31.03.2012 (03:20:04)'
p1211
sg24
Nsg25
g1201
sbsS'192.168.1.182'
p1212
(iprimitives
AccesPoint
p1213
(dp1214
g4
Nsg5
I3
sg6
g7
(g8
g9
Ntp1215
Rp1216
(dp1217
g13
g7
(g14
g9
Ntp1218
Rp1219
sg17
g18
sg19
(lp1220
F12.10766
aF54.07675
asg21
(dp1221
sbsg23
S'09.12.2011 (12:00:04)'
p1222
sg24
Nsg25
g1212
sbsS'192.168.1.183'
p1223
(iprimitives
AccesPoint
p1224
(dp1225
g62
I0
sg63
S'OpenWrt(backfire 10.03.1-RC6)'
p1226
sg4
I0
sg5
I1
sg65
S'Avila'
p1227
sg6
g7
(g8
g9
Ntp1228
Rp1229
(dp1230
g13
g7
(g14
g9
Ntp1231
Rp1232
sg17
g18
sg19
(lp1233
F12.123091
aF54.090913
asg21
(dp1234
sbsg23
S'17.06.2012 (13:58:04)'
p1235
sg24
I0
sg25
g1223
sbsS'192.168.1.184'
p1236
(iprimitives
AccesPoint
p1237
(dp1238
g62
I0
sg63
S'OpenWrt(backfire 10.03.1-RC6)'
p1239
sg4
I0
sg5
I4
sg65
S'WRAP 2E-E'
p1240
sg6
g7
(g8
g9
Ntp1241
Rp1242
(dp1243
g13
g7
(g14
g9
Ntp1244
Rp1245
sg17
g18
sg19
(lp1246
g35
ag35
asg21
(dp1247
sbsg23
S'08.05.2012 (21:49:04)'
p1248
sg24
I0
sg25
g1236
sbsS'192.168.1.185'
p1249
(iprimitives
AccesPoint
p1250
(dp1251
g62
I0
sg63
S'OpenWrt(backfire 10.03.1-RC6)'
p1252
sg4
I0
sg5
I1
sg65
g1240
sg6
g7
(g8
g9
Ntp1253
Rp1254
(dp1255
g13
g7
(g14
g9
Ntp1256
Rp1257
sg17
g18
sg19
(lp1258
F12.116877
aF54.088677
asg21
(dp1259
sbsg23
S'17.06.2012 (13:58:04)'
p1260
sg24
I0
sg25
g1249
sbsS'192.168.1.186'
p1261
(iprimitives
AccesPoint
p1262
(dp1263
g4
Nsg5
I4
sg6
g7
(g8
g9
Ntp1264
Rp1265
(dp1266
g13
g7
(g14
g9
Ntp1267
Rp1268
sg17
g18
sg19
(lp1269
g35
ag35
asg21
(dp1270
sbsg23
S'08.05.2012 (20:46:04)'
p1271
sg24
Nsg25
g1261
sbsS'192.168.1.187'
p1272
(iprimitives
AccesPoint
p1273
(dp1274
g4
Nsg5
I1
sg6
g7
(g8
g9
Ntp1275
Rp1276
(dp1277
g13
g7
(g14
g9
Ntp1278
Rp1279
sg17
g18
sg19
(lp1280
F12.120597
aF54.072364
asg21
(dp1281
sbsg23
S'17.06.2012 (13:58:04)'
p1282
sg24
Nsg25
g1272
sbsS'192.168.1.188'
p1283
(iprimitives
AccesPoint
p1284
(dp1285
g4
Nsg5
I3
sg6
g7
(g8
g9
Ntp1286
Rp1287
(dp1288
g13
g7
(g14
g9
Ntp1289
Rp1290
sg17
g18
sg19
(lp1291
F12.112389
aF54.093061
asg21
(dp1292
sbsg23
S'08.05.2012 (10:36:04)'
p1293
sg24
Nsg25
g1283
sbsS'192.168.1.189'
p1294
(iprimitives
AccesPoint
p1295
(dp1296
g4
Nsg5
I3
sg6
g7
(g8
g9
Ntp1297
Rp1298
(dp1299
g13
g7
(g14
g9
Ntp1300
Rp1301
sg17
g18
sg19
(lp1302
F12.295482
aF54.005653
asg21
(dp1303
sbsg23
S'26.11.2011 (11:15:04)'
p1304
sg24
Nsg25
g1294
sbsS'192.168.1.219'
p1305
(iprimitives
AccesPoint
p1306
(dp1307
g4
Nsg5
I4
sg6
g7
(g8
g9
Ntp1308
Rp1309
(dp1310
g13
g7
(g14
g9
Ntp1311
Rp1312
sg17
g18
sg19
(lp1313
g35
ag35
asg21
(dp1314
sbsg23
S'23.05.2011 (22:37:04)'
p1315
sg24
Nsg25
g1305
sbsS'192.168.2.28'
p1316
(iprimitives
AccesPoint
p1317
(dp1318
g4
Nsg5
Nsg6
g7
(g8
g9
Ntp1319
Rp1320
(dp1321
g13
g7
(g14
g9
Ntp1322
Rp1323
sg17
g18
sg19
(lp1324
F12.10766
aF54.07657
asg21
(dp1325
sbsg23
Nsg24
Nsg25
g1316
sbsS'192.168.2.26'
p1326
(iprimitives
AccesPoint
p1327
(dp1328
g4
Nsg5
Nsg6
g7
(g8
g9
Ntp1329
Rp1330
(dp1331
g13
g7
(g14
g9
Ntp1332
Rp1333
sg17
g18
sg19
(lp1334
F12.10766
aF54.07657
asg21
(dp1335
sbsg23
Nsg24
Nsg25
g1326
sbsS'192.168.2.21'
p1336
(iprimitives
AccesPoint
p1337
(dp1338
g4
Nsg5
Nsg6
g7
(g8
g9
Ntp1339
Rp1340
(dp1341
g13
g7
(g14
g9
Ntp1342
Rp1343
sg17
g18
sg19
(lp1344
F12.11588
aF54.07454
asg21
(dp1345
sbsg23
Nsg24
Nsg25
g1336
sbsS'192.168.2.25'
p1346
(iprimitives
AccesPoint
p1347
(dp1348
g4
Nsg5
Nsg6
g7
(g8
g9
Ntp1349
Rp1350
(dp1351
g13
g7
(g14
g9
Ntp1352
Rp1353
sg17
g18
sg19
(lp1354
F12.10766
aF54.07657
asg21
(dp1355
sbsg23
Nsg24
Nsg25
g1346
sbsS'192.168.2.24'
p1356
(iprimitives
AccesPoint
p1357
(dp1358
g4
Nsg5
Nsg6
g7
(g8
g9
Ntp1359
Rp1360
(dp1361
g13
g7
(g14
g9
Ntp1362
Rp1363
sg17
g18
sg19
(lp1364
F12.10766
aF54.07657
asg21
(dp1365
sbsg23
Nsg24
Nsg25
g1356
sbsS'192.168.2.27'
p1366
(iprimitives
AccesPoint
p1367
(dp1368
g4
Nsg5
Nsg6
g7
(g8
g9
Ntp1369
Rp1370
(dp1371
g13
g7
(g14
g9
Ntp1372
Rp1373
sg17
g18
sg19
(lp1374
F12.10766
aF54.07657
asg21
(dp1375
sbsg23
Nsg24
Nsg25
g1366
sbsS'192.168.1.168'
p1376
(iprimitives
AccesPoint
p1377
(dp1378
g4
Nsg5
I3
sg6
g7
(g8
g9
Ntp1379
Rp1380
(dp1381
g13
g7
(g14
g9
Ntp1382
Rp1383
sg17
g18
sg19
(lp1384
F12.119626
aF54.088027
asg21
(dp1385
sbsg23
S'26.11.2011 (13:26:04)'
p1386
sg24
Nsg25
g1376
sbsS'192.168.1.169'
p1387
(iprimitives
AccesPoint
p1388
(dp1389
g4
Nsg5
I3
sg6
g7
(g8
g9
Ntp1390
Rp1391
(dp1392
g13
g7
(g14
g9
Ntp1393
Rp1394
sg17
g18
sg19
(lp1395
F12.051036
aF54.139198
asg21
(dp1396
sbsg23
S'09.03.2012 (17:53:04)'
p1397
sg24
Nsg25
g1387
sbsS'192.168.1.166'
p1398
(iprimitives
AccesPoint
p1399
(dp1400
g4
Nsg5
I1
sg6
g7
(g8
g9
Ntp1401
Rp1402
(dp1403
g13
g7
(g14
g9
Ntp1404
Rp1405
sg17
g18
sg19
(lp1406
F12.26557
aF53.985181
asg21
(dp1407
sbsg23
S'17.06.2012 (13:59:04)'
p1408
sg24
Nsg25
g1398
sbsS'192.168.1.167'
p1409
(iprimitives
AccesPoint
p1410
(dp1411
g62
I0
sg63
S'OpenWrt(white russian  0.9-ON5)'
p1412
sg4
I0
sg5
I1
sg65
S'Linksys WRT54GS'
p1413
sg6
g7
(g8
g9
Ntp1414
Rp1415
(dp1416
g13
g7
(g14
g9
Ntp1417
Rp1418
sg17
g18
sg19
(lp1419
F12.098436
aF54.092901
asg21
(dp1420
sbsg23
S'17.06.2012 (13:57:04)'
p1421
sg24
I0
sg25
g1409
sbsS'192.168.1.164'
p1422
(iprimitives
AccesPoint
p1423
(dp1424
g4
Nsg5
Nsg6
g7
(g8
g9
Ntp1425
Rp1426
(dp1427
g13
g7
(g14
g9
Ntp1428
Rp1429
sg17
g18
sg19
(lp1430
F12.14839
aF54.090107
asg21
(dp1431
sbsg23
Nsg24
Nsg25
g1422
sbsS'192.168.1.165'
p1432
(iprimitives
AccesPoint
p1433
(dp1434
g62
I0
sg63
S'OpenWrt(white russian  0.9-ON5)'
p1435
sg4
I0
sg5
I1
sg65
g260
sg6
g7
(g8
g9
Ntp1436
Rp1437
(dp1438
g13
g7
(g14
g9
Ntp1439
Rp1440
sg17
g18
sg19
(lp1441
F12.098308
aF54.092875
asg21
(dp1442
sbsg23
S'17.06.2012 (13:58:04)'
p1443
sg24
I0
sg25
g1432
sbsS'192.168.1.162'
p1444
(iprimitives
AccesPoint
p1445
(dp1446
g62
I0
sg63
S'AirOS(XM.v5.3.3 )'
p1447
sg4
I0
sg5
I1
sg65
g135
sg6
g7
(g8
g9
Ntp1448
Rp1449
(dp1450
g13
g7
(g14
g9
Ntp1451
Rp1452
sg17
g18
sg19
(lp1453
F12.116603
aF54.08847
asg21
(dp1454
sbsg23
S'17.06.2012 (13:58:04)'
p1455
sg24
I0
sg25
g1444
sbsS'192.168.1.163'
p1456
(iprimitives
AccesPoint
p1457
(dp1458
g4
Nsg5
I3
sg6
g7
(g8
g9
Ntp1459
Rp1460
(dp1461
g13
g7
(g14
g9
Ntp1462
Rp1463
sg17
g18
sg19
(lp1464
F12.210534
aF54.047865
asg21
(dp1465
sbsg23
S'31.03.2012 (07:41:04)'
p1466
sg24
Nsg25
g1456
sbsS'192.168.1.160'
p1467
(iprimitives
AccesPoint
p1468
(dp1469
g4
Nsg5
I3
sg6
g7
(g8
g9
Ntp1470
Rp1471
(dp1472
g13
g7
(g14
g9
Ntp1473
Rp1474
sg17
g18
sg19
(lp1475
F12.112389
aF54.093061
asg21
(dp1476
sbsg23
S'17.07.2011 (10:41:04)'
p1477
sg24
Nsg25
g1467
sbsS'192.168.1.23'
p1478
(iprimitives
AccesPoint
p1479
(dp1480
g62
I1
sg63
S'OpenWrt(backfire 10.03.1)'
p1481
sg4
I1
sg5
I1
sg65
S'TP-LINK TL-WR1043ND'
p1482
sg6
g7
(g8
g9
Ntp1483
Rp1484
(dp1485
g13
g7
(g14
g9
Ntp1486
Rp1487
sg17
g18
sg19
(lp1488
F12.122941
aF54.091479
asg21
(dp1489
sbsg23
S'17.06.2012 (13:58:04)'
p1490
sg24
I0
sg25
g1478
sbsS'192.168.2.34'
p1491
(iprimitives
AccesPoint
p1492
(dp1493
g4
Nsg5
I4
sg6
g7
(g8
g9
Ntp1494
Rp1495
(dp1496
g13
g7
(g14
g9
Ntp1497
Rp1498
sg17
g18
sg19
(lp1499
g35
ag35
asg21
(dp1500
sbsg23
Nsg24
Nsg25
g1491
sbsS'192.168.1.122'
p1501
(iprimitives
AccesPoint
p1502
(dp1503
g4
Nsg5
I1
sg6
g7
(g8
g9
Ntp1504
Rp1505
(dp1506
g13
g7
(g14
g9
Ntp1507
Rp1508
sg17
g18
sg19
(lp1509
F12.1153
aF54.0875
asg21
(dp1510
sbsg23
S'17.06.2012 (13:58:04)'
p1511
sg24
Nsg25
g1501
sbsS'192.168.1.19'
p1512
(iprimitives
AccesPoint
p1513
(dp1514
g4
Nsg5
I4
sg6
g7
(g8
g9
Ntp1515
Rp1516
(dp1517
g13
g7
(g14
g9
Ntp1518
Rp1519
sg17
g18
sg19
(lp1520
g35
ag35
asg21
(dp1521
sbsg23
S'24.05.2012 (16:37:04)'
p1522
sg24
Nsg25
g1512
sbsS'192.168.2.37'
p1523
(iprimitives
AccesPoint
p1524
(dp1525
g4
Nsg5
I1
sg6
g7
(g8
g9
Ntp1526
Rp1527
(dp1528
g13
g7
(g14
g9
Ntp1529
Rp1530
sg17
g18
sg19
(lp1531
F12.129319
aF54.083801
asg21
(dp1532
sbsg23
S'17.06.2012 (13:59:04)'
p1533
sg24
Nsg25
g1523
sbsS'192.168.2.30'
p1534
(iprimitives
AccesPoint
p1535
(dp1536
g4
Nsg5
Nsg6
g7
(g8
g9
Ntp1537
Rp1538
(dp1539
g13
g7
(g14
g9
Ntp1540
Rp1541
sg17
g18
sg19
(lp1542
F12.10766
aF54.07657
asg21
(dp1543
sbsg23
Nsg24
Nsg25
g1534
sbsS'192.168.2.31'
p1544
(iprimitives
AccesPoint
p1545
(dp1546
g4
Nsg5
I1
sg6
g7
(g8
g9
Ntp1547
Rp1548
(dp1549
g13
g7
(g14
g9
Ntp1550
Rp1551
sg17
g18
sg19
(lp1552
F12.120597
aF54.072297
asg21
(dp1553
sbsg23
S'17.06.2012 (13:58:04)'
p1554
sg24
Nsg25
g1544
sbsS'192.168.2.32'
p1555
(iprimitives
AccesPoint
p1556
(dp1557
g4
Nsg5
I3
sg6
g7
(g8
g9
Ntp1558
Rp1559
(dp1560
g13
g7
(g14
g9
Ntp1561
Rp1562
sg17
g18
sg19
(lp1563
F12.210875
aF54.048445
asg21
(dp1564
sbsg23
S'31.03.2012 (07:45:04)'
p1565
sg24
Nsg25
g1555
sbsS'192.168.1.123'
p1566
(iprimitives
AccesPoint
p1567
(dp1568
g4
Nsg5
I1
sg6
g7
(g8
g9
Ntp1569
Rp1570
(dp1571
g13
g7
(g14
g9
Ntp1572
Rp1573
sg17
g18
sg19
(lp1574
F12.16791
aF54.09918
asg21
(dp1575
sbsg23
S'17.06.2012 (13:59:04)'
p1576
sg24
Nsg25
g1566
sbsS'192.168.1.13'
p1577
(iprimitives
AccesPoint
p1578
(dp1579
g4
Nsg5
Nsg6
g7
(g8
g9
Ntp1580
Rp1581
(dp1582
g13
g7
(g14
g9
Ntp1583
Rp1584
sg17
g18
sg19
(lp1585
F12.0987474918
aF54.0908873816
asg21
(dp1586
sbsg23
Nsg24
Nsg25
g1577
sbsS'192.168.1.12'
p1587
(iprimitives
AccesPoint
p1588
(dp1589
g4
Nsg5
I3
sg6
g7
(g8
g9
Ntp1590
Rp1591
(dp1592
g13
g7
(g14
g9
Ntp1593
Rp1594
sg17
g18
sg19
(lp1595
F12.11141
aF54.09238
asg21
(dp1596
sbsg23
S'17.06.2012 (05:02:04)'
p1597
sg24
Nsg25
g1587
sbsS'192.168.1.11'
p1598
(iprimitives
AccesPoint
p1599
(dp1600
g4
Nsg5
I3
sg6
g7
(g8
g9
Ntp1601
Rp1602
(dp1603
g13
g7
(g14
g9
Ntp1604
Rp1605
sg17
g18
sg19
(lp1606
F12.09902644
aF54.09096918
asg21
(dp1607
sbsg23
S'19.11.2011 (01:29:04)'
p1608
sg24
Nsg25
g1598
sbsS'192.168.1.10'
p1609
(iprimitives
AccesPoint
p1610
(dp1611
g62
I0
sg63
S'OpenWrt(backfire 10.03.1-RC6)'
p1612
sg4
I0
sg5
I1
sg65
g1227
sg6
g7
(g8
g9
Ntp1613
Rp1614
(dp1615
g13
g7
(g14
g9
Ntp1616
Rp1617
sg17
g18
sg19
(lp1618
F12.107926
aF54.071496
asg21
(dp1619
sbsg23
S'17.06.2012 (13:58:04)'
p1620
sg24
I0
sg25
g1609
sbsS'192.168.1.17'
p1621
(iprimitives
AccesPoint
p1622
(dp1623
g4
Nsg5
I3
sg6
g7
(g8
g9
Ntp1624
Rp1625
(dp1626
g13
g7
(g14
g9
Ntp1627
Rp1628
sg17
g18
sg19
(lp1629
F12.11704
aF54.09371
asg21
(dp1630
sbsg23
S'08.06.2011 (09:23:04)'
p1631
sg24
Nsg25
g1621
sbsS'192.168.1.120'
p1632
(iprimitives
AccesPoint
p1633
(dp1634
g4
Nsg5
I1
sg6
g7
(g8
g9
Ntp1635
Rp1636
(dp1637
g13
g7
(g14
g9
Ntp1638
Rp1639
sg17
g18
sg19
(lp1640
F12.1289
aF54.0818
asg21
(dp1641
sbsg23
S'17.06.2012 (13:58:04)'
p1642
sg24
Nsg25
g1632
sbsS'192.168.1.15'
p1643
(iprimitives
AccesPoint
p1644
(dp1645
g4
Nsg5
I1
sg6
g7
(g8
g9
Ntp1646
Rp1647
(dp1648
g13
g7
(g14
g9
Ntp1649
Rp1650
sg17
g18
sg19
(lp1651
F12.11033
aF54.08653
asg21
(dp1652
sbsg23
S'17.06.2012 (13:59:04)'
p1653
sg24
Nsg25
g1643
sbsS'192.168.1.14'
p1654
(iprimitives
AccesPoint
p1655
(dp1656
g4
Nsg5
I3
sg6
g7
(g8
g9
Ntp1657
Rp1658
(dp1659
g13
g7
(g14
g9
Ntp1660
Rp1661
sg17
g18
sg19
(lp1662
F12.11056
aF54.08644
asg21
(dp1663
sbsg23
S'21.11.2011 (03:10:04)'
p1664
sg24
Nsg25
g1654
sbsS'192.168.1.121'
p1665
(iprimitives
AccesPoint
p1666
(dp1667
g4
Nsg5
I3
sg6
g7
(g8
g9
Ntp1668
Rp1669
(dp1670
g13
g7
(g14
g9
Ntp1671
Rp1672
sg17
g18
sg19
(lp1673
F12.266112
aF53.983061
asg21
(dp1674
sbsg23
S'14.04.2012 (12:09:04)'
p1675
sg24
Nsg25
g1665
sbsS'192.168.1.199'
p1676
(iprimitives
AccesPoint
p1677
(dp1678
g62
I1
sg63
S'OpenWrt(white russian  0.9-ON5)'
p1679
sg4
I0
sg5
I1
sg65
g260
sg6
g7
(g8
g9
Ntp1680
Rp1681
(dp1682
g13
g7
(g14
g9
Ntp1683
Rp1684
sg17
g18
sg19
(lp1685
F12.15789
aF54.02789
asg21
(dp1686
sbsg23
S'17.06.2012 (13:59:04)'
p1687
sg24
I0
sg25
g1676
sbsS'192.168.1.101'
p1688
(iprimitives
AccesPoint
p1689
(dp1690
g62
I0
sg63
S'AirOS(XM.v5.2.1 )'
p1691
sg4
I0
sg5
I1
sg65
g135
sg6
g7
(g8
g9
Ntp1692
Rp1693
(dp1694
g13
g7
(g14
g9
Ntp1695
Rp1696
sg17
g18
sg19
(lp1697
F12.107945
aF54.07157
asg21
(dp1698
sbsg23
S'17.06.2012 (13:58:04)'
p1699
sg24
I0
sg25
g1688
sbsS'192.168.1.126'
p1700
(iprimitives
AccesPoint
p1701
(dp1702
g4
Nsg5
I1
sg6
g7
(g8
g9
Ntp1703
Rp1704
(dp1705
g13
g7
(g14
g9
Ntp1706
Rp1707
sg17
g18
sg19
(lp1708
F12.12048
aF54.072297
asg21
(dp1709
sbsg23
S'17.06.2012 (13:57:04)'
p1710
sg24
Nsg25
g1700
sbsS'192.168.1.213'
p1711
(iprimitives
AccesPoint
p1712
(dp1713
g62
I1
sg63
S'OpenWrt(white russian  0.9-ON5)'
p1714
sg4
I0
sg5
I1
sg65
g260
sg6
g7
(g8
g9
Ntp1715
Rp1716
(dp1717
g13
g7
(g14
g9
Ntp1718
Rp1719
sg17
g18
sg19
(lp1720
F12.15561
aF54.026503
asg21
(dp1721
sbsg23
S'17.06.2012 (13:57:04)'
p1722
sg24
I0
sg25
g1711
sbsS'192.168.1.2'
p1723
(iprimitives
AccesPoint
p1724
(dp1725
g4
Nsg5
Nsg6
g7
(g8
g9
Ntp1726
Rp1727
(dp1728
g13
g7
(g14
g9
Ntp1729
Rp1730
sg17
g18
sg19
(lp1731
F12.111028
aF54.086632
asg21
(dp1732
sbsg23
Nsg24
Nsg25
g1723
sbsS'192.168.1.1'
p1733
(iprimitives
AccesPoint
p1734
(dp1735
g4
Nsg5
I4
sg6
g7
(g8
g9
Ntp1736
Rp1737
(dp1738
g13
g7
(g14
g9
Ntp1739
Rp1740
sg17
g18
sg19
(lp1741
g35
ag35
asg21
(dp1742
sbsg23
Nsg24
Nsg25
g1733
sbsS'192.168.1.237'
p1743
(iprimitives
AccesPoint
p1744
(dp1745
g4
Nsg5
I1
sg6
g7
(g8
g9
Ntp1746
Rp1747
(dp1748
g13
g7
(g14
g9
Ntp1749
Rp1750
sg17
g18
sg19
(lp1751
F12.387847
aF53.758125
asg21
(dp1752
sbsg23
S'17.06.2012 (13:59:04)'
p1753
sg24
Nsg25
g1743
sbsS'192.168.1.159'
p1754
(iprimitives
AccesPoint
p1755
(dp1756
g4
Nsg5
I1
sg6
g7
(g8
g9
Ntp1757
Rp1758
(dp1759
g13
g7
(g14
g9
Ntp1760
Rp1761
sg17
g18
sg19
(lp1762
F12.15774
aF54.027811
asg21
(dp1763
sbsg23
S'17.06.2012 (13:58:04)'
p1764
sg24
Nsg25
g1754
sbsS'192.168.1.158'
p1765
(iprimitives
AccesPoint
p1766
(dp1767
g4
Nsg5
I1
sg6
g7
(g8
g9
Ntp1768
Rp1769
(dp1770
g13
g7
(g14
g9
Ntp1771
Rp1772
sg17
g18
sg19
(lp1773
F12.267936
aF53.982774
asg21
(dp1774
sbsg23
S'17.06.2012 (13:46:04)'
p1775
sg24
Nsg25
g1765
sbsS'192.168.2.29'
p1776
(iprimitives
AccesPoint
p1777
(dp1778
g4
Nsg5
Nsg6
g7
(g8
g9
Ntp1779
Rp1780
(dp1781
g13
g7
(g14
g9
Ntp1782
Rp1783
sg17
g18
sg19
(lp1784
F12.10766
aF54.07657
asg21
(dp1785
sbsg23
Nsg24
Nsg25
g1776
sbsS'192.168.1.153'
p1786
(iprimitives
AccesPoint
p1787
(dp1788
g4
Nsg5
Nsg6
g7
(g8
g9
Ntp1789
Rp1790
(dp1791
g13
g7
(g14
g9
Ntp1792
Rp1793
sg17
g18
sg19
(lp1794
F12.101827
aF54.117018
asg21
(dp1795
sbsg23
Nsg24
Nsg25
g1786
sbsS'192.168.1.152'
p1796
(iprimitives
AccesPoint
p1797
(dp1798
g62
I0
sg63
S'AirOS(XM.v5.3.3 )'
p1799
sg4
I0
sg5
I1
sg65
g135
sg6
g7
(g8
g9
Ntp1800
Rp1801
(dp1802
g13
g7
(g14
g9
Ntp1803
Rp1804
sg17
g18
sg19
(lp1805
F12.107706
aF54.07791
asg21
(dp1806
sbsg23
S'17.06.2012 (13:58:04)'
p1807
sg24
I0
sg25
g1796
sbsS'192.168.1.151'
p1808
(iprimitives
AccesPoint
p1809
(dp1810
g62
I1
sg63
S'AirOS(XM.v5.3.3 )'
p1811
sg4
I0
sg5
I1
sg65
g135
sg6
g7
(g8
g9
Ntp1812
Rp1813
(dp1814
g13
g7
(g14
g9
Ntp1815
Rp1816
sg17
g18
sg19
(lp1817
F12.107942
aF54.07932
asg21
(dp1818
sbsg23
S'17.06.2012 (13:58:04)'
p1819
sg24
I0
sg25
g1808
sbsS'192.168.1.150'
p1820
(iprimitives
AccesPoint
p1821
(dp1822
g4
Nsg5
I4
sg6
g7
(g8
g9
Ntp1823
Rp1824
(dp1825
g13
g7
(g14
g9
Ntp1826
Rp1827
sg17
g18
sg19
(lp1828
g35
ag35
asg21
(dp1829
sbsg23
S'10.06.2011 (18:42:04)'
p1830
sg24
Nsg25
g1820
sbsS'192.168.1.157'
p1831
(iprimitives
AccesPoint
p1832
(dp1833
g62
I0
sg63
S'AirOS(XM.v5.3.3 )'
p1834
sg4
I0
sg5
I1
sg65
g135
sg6
g7
(g8
g9
Ntp1835
Rp1836
(dp1837
g13
g7
(g14
g9
Ntp1838
Rp1839
sg17
g18
sg19
(lp1840
F12.107749
aF54.077193
asg21
(dp1841
sbsg23
S'17.06.2012 (13:59:04)'
p1842
sg24
I0
sg25
g1831
sbsS'192.168.1.156'
p1843
(iprimitives
AccesPoint
p1844
(dp1845
g4
Nsg5
I3
sg6
g7
(g8
g9
Ntp1846
Rp1847
(dp1848
g13
g7
(g14
g9
Ntp1849
Rp1850
sg17
g18
sg19
(lp1851
F12.111064
aF54.089346
asg21
(dp1852
sbsg23
S'10.06.2012 (21:00:04)'
p1853
sg24
Nsg25
g1843
sbsS'192.168.1.155'
p1854
(iprimitives
AccesPoint
p1855
(dp1856
g4
Nsg5
I1
sg6
g7
(g8
g9
Ntp1857
Rp1858
(dp1859
g13
g7
(g14
g9
Ntp1860
Rp1861
sg17
g18
sg19
(lp1862
F12.245674
aF53.96924
asg21
(dp1863
sbsg23
S'17.06.2012 (13:57:04)'
p1864
sg24
Nsg25
g1854
sbsS'192.168.1.154'
p1865
(iprimitives
AccesPoint
p1866
(dp1867
g4
Nsg5
I3
sg6
g7
(g8
g9
Ntp1868
Rp1869
(dp1870
g13
g7
(g14
g9
Ntp1871
Rp1872
sg17
g18
sg19
(lp1873
F12.15914
aF54.027612
asg21
(dp1874
sbsg23
S'20.03.2012 (10:37:04)'
p1875
sg24
Nsg25
g1865
sbsS'192.168.1.26'
p1876
(iprimitives
AccesPoint
p1877
(dp1878
g62
I1
sg63
S'OpenWrt(white russian  0.9-ON5)'
p1879
sg4
I0
sg5
I1
sg65
g260
sg6
g7
(g8
g9
Ntp1880
Rp1881
(dp1882
g13
g7
(g14
g9
Ntp1883
Rp1884
sg17
g18
sg19
(lp1885
F12.154484
aF54.024638
asg21
(dp1886
sbsg23
S'17.06.2012 (13:58:04)'
p1887
sg24
I0
sg25
g1876
sbsS'192.168.1.27'
p1888
(iprimitives
AccesPoint
p1889
(dp1890
g62
I1
sg63
S'OpenWrt(white russian  0.9-ON5)'
p1891
sg4
I0
sg5
I1
sg65
g1413
sg6
g7
(g8
g9
Ntp1892
Rp1893
(dp1894
g13
g7
(g14
g9
Ntp1895
Rp1896
sg17
g18
sg19
(lp1897
F12.112518
aF54.093131
asg21
(dp1898
sbsg23
S'17.06.2012 (13:59:04)'
p1899
sg24
I1
sg25
g1888
sbsS'192.168.1.24'
p1900
(iprimitives
AccesPoint
p1901
(dp1902
g4
Nsg5
I3
sg6
g7
(g8
g9
Ntp1903
Rp1904
(dp1905
g13
g7
(g14
g9
Ntp1906
Rp1907
sg17
g18
sg19
(lp1908
F12.1141
aF54.09095
asg21
(dp1909
sbsg23
S'17.10.2011 (08:58:04)'
p1910
sg24
Nsg25
g1900
sbsS'192.168.1.25'
p1911
(iprimitives
AccesPoint
p1912
(dp1913
g4
Nsg5
I1
sg6
g7
(g8
g9
Ntp1914
Rp1915
(dp1916
g13
g7
(g14
g9
Ntp1917
Rp1918
sg17
g18
sg19
(lp1919
F12.1102
aF54.08626
asg21
(dp1920
sbsg23
S'17.06.2012 (13:58:04)'
p1921
sg24
Nsg25
g1911
sbsS'192.168.1.22'
p1922
(iprimitives
AccesPoint
p1923
(dp1924
g62
I1
sg63
S'OpenWrt(white russian  0.9-ON5)'
p1925
sg4
I0
sg5
I1
sg65
g260
sg6
g7
(g8
g9
Ntp1926
Rp1927
(dp1928
g13
g7
(g14
g9
Ntp1929
Rp1930
sg17
g18
sg19
(lp1931
F12.265683
aF53.98519
asg21
(dp1932
sbsg23
S'17.06.2012 (13:58:04)'
p1933
sg24
I0
sg25
g1922
sbsS'192.168.2.22'
p1934
(iprimitives
AccesPoint
p1935
(dp1936
g4
Nsg5
I3
sg6
g7
(g8
g9
Ntp1937
Rp1938
(dp1939
g13
g7
(g14
g9
Ntp1940
Rp1941
sg17
g18
sg19
(lp1942
F12.10692
aF54.07669
asg21
(dp1943
sbsg23
S'03.08.2011 (08:31:04)'
p1944
sg24
Nsg25
g1934
sbsS'192.168.1.20'
p1945
(iprimitives
AccesPoint
p1946
(dp1947
g62
I1
sg63
S'OpenWrt(white russian  0.9-ON5)'
p1948
sg4
I0
sg5
I1
sg65
g170
sg6
g7
(g8
g9
Ntp1949
Rp1950
(dp1951
g13
g7
(g14
g9
Ntp1952
Rp1953
sg17
g18
sg19
(lp1954
F12.157359
aF54.026503
asg21
(dp1955
sbsg23
S'17.06.2012 (13:59:04)'
p1956
sg24
I0
sg25
g1945
sbsS'192.168.2.20'
p1957
(iprimitives
AccesPoint
p1958
(dp1959
g4
Nsg5
I1
sg6
g7
(g8
g9
Ntp1960
Rp1961
(dp1962
g13
g7
(g14
g9
Ntp1963
Rp1964
sg17
g18
sg19
(lp1965
F12.130365
aF54.140876
asg21
(dp1966
sbsg23
S'17.06.2012 (13:59:04)'
p1967
sg24
Nsg25
g1957
sbsS'192.168.1.253'
p1968
(iprimitives
AccesPoint
p1969
(dp1970
g4
Nsg5
Nsg6
g7
(g8
g9
Ntp1971
Rp1972
(dp1973
g13
g7
(g14
g9
Ntp1974
Rp1975
sg17
g18
sg19
(lp1976
F12.193322
aF54.01398
asg21
(dp1977
sbsg23
Nsg24
Nsg25
g1968
sbsS'192.168.1.28'
p1978
(iprimitives
AccesPoint
p1979
(dp1980
g4
Nsg5
I3
sg6
g7
(g8
g9
Ntp1981
Rp1982
(dp1983
g13
g7
(g14
g9
Ntp1984
Rp1985
sg17
g18
sg19
(lp1986
F12.118167
aF54.08837
asg21
(dp1987
sbsg23
S'02.04.2012 (06:24:04)'
p1988
sg24
Nsg25
g1978
sbsS'192.168.1.29'
p1989
(iprimitives
AccesPoint
p1990
(dp1991
g4
Nsg5
I3
sg6
g7
(g8
g9
Ntp1992
Rp1993
(dp1994
g13
g7
(g14
g9
Ntp1995
Rp1996
sg17
g18
sg19
(lp1997
F12.117534
aF54.088395
asg21
(dp1998
sbsg23
S'12.02.2012 (09:47:04)'
p1999
sg24
Nsg25
g1989
sbsS'192.168.1.247'
p2000
(iprimitives
AccesPoint
p2001
(dp2002
g4
Nsg5
I3
sg6
g7
(g8
g9
Ntp2003
Rp2004
(dp2005
g13
g7
(g14
g9
Ntp2006
Rp2007
sg17
g18
sg19
(lp2008
F12.267571
aF53.983982
asg21
(dp2009
sbsg23
S'25.02.2011 (17:04:04)'
p2010
sg24
Nsg25
g2000
sbsS'192.168.1.246'
p2011
(iprimitives
AccesPoint
p2012
(dp2013
g4
Nsg5
I3
sg6
g7
(g8
g9
Ntp2014
Rp2015
(dp2016
g13
g7
(g14
g9
Ntp2017
Rp2018
sg17
g18
sg19
(lp2019
F12.26947
aF53.980743
asg21
(dp2020
sbsg23
S'26.08.2011 (11:22:04)'
p2021
sg24
Nsg25
g2011
sbsS'192.168.1.245'
p2022
(iprimitives
AccesPoint
p2023
(dp2024
g4
Nsg5
I1
sg6
g7
(g8
g9
Ntp2025
Rp2026
(dp2027
g13
g7
(g14
g9
Ntp2028
Rp2029
sg17
g18
sg19
(lp2030
F12.266927
aF53.98367
asg21
(dp2031
sbsg23
S'17.06.2012 (13:59:04)'
p2032
sg24
Nsg25
g2022
sbsS'192.168.1.244'
p2033
(iprimitives
AccesPoint
p2034
(dp2035
g4
Nsg5
Nsg6
g7
(g8
g9
Ntp2036
Rp2037
(dp2038
g13
g7
(g14
g9
Ntp2039
Rp2040
sg17
g18
sg19
(lp2041
F12.21415
aF53.980334
asg21
(dp2042
sbsg23
Nsg24
Nsg25
g2033
sbsS'192.168.1.243'
p2043
(iprimitives
AccesPoint
p2044
(dp2045
g62
I1
sg63
S'OpenWrt(white russian  0.9-ON5)'
p2046
sg4
I0
sg5
I1
sg65
g260
sg6
g7
(g8
g9
Ntp2047
Rp2048
(dp2049
g13
g7
(g14
g9
Ntp2050
Rp2051
sg17
g18
sg19
(lp2052
F12.477518
aF53.756951
asg21
(dp2053
sbsg23
S'17.06.2012 (13:58:04)'
p2054
sg24
I0
sg25
g2043
sbsS'192.168.1.242'
p2055
(iprimitives
AccesPoint
p2056
(dp2057
g4
Nsg5
I1
sg6
g7
(g8
g9
Ntp2058
Rp2059
(dp2060
g13
g7
(g14
g9
Ntp2061
Rp2062
sg17
g18
sg19
(lp2063
F12.476413
aF53.756139
asg21
(dp2064
sbsg23
S'17.06.2012 (13:58:04)'
p2065
sg24
Nsg25
g2055
sbsS'192.168.1.241'
p2066
(iprimitives
AccesPoint
p2067
(dp2068
g62
I1
sg63
S'OpenWrt(white russian  0.9-ON5)'
p2069
sg4
I0
sg5
I1
sg65
g260
sg6
g7
(g8
g9
Ntp2070
Rp2071
(dp2072
g13
g7
(g14
g9
Ntp2073
Rp2074
sg17
g18
sg19
(lp2075
F12.474643
aF53.756406
asg21
(dp2076
sbsg23
S'17.06.2012 (13:58:04)'
p2077
sg24
I0
sg25
g2066
sbsS'192.168.1.240'
p2078
(iprimitives
AccesPoint
p2079
(dp2080
g4
Nsg5
I3
sg6
g7
(g8
g9
Ntp2081
Rp2082
(dp2083
g13
g7
(g14
g9
Ntp2084
Rp2085
sg17
g18
sg19
(lp2086
F12.477068
aF53.75593
asg21
(dp2087
sbsg23
S'23.04.2012 (09:49:02)'
p2088
sg24
Nsg25
g2078
sbsS'192.168.1.161'
p2089
(iprimitives
AccesPoint
p2090
(dp2091
g4
Nsg5
I3
sg6
g7
(g8
g9
Ntp2092
Rp2093
(dp2094
g13
g7
(g14
g9
Ntp2095
Rp2096
sg17
g18
sg19
(lp2097
F12.123574
aF54.093115
asg21
(dp2098
sbsg23
S'03.10.2011 (11:34:04)'
p2099
sg24
Nsg25
g2089
sbsS'192.168.1.249'
p2100
(iprimitives
AccesPoint
p2101
(dp2102
g62
I1
sg63
S'OpenWrt(backfire 10.03.1)'
p2103
sg4
I0
sg5
I1
sg65
g1482
sg6
g7
(g8
g9
Ntp2104
Rp2105
(dp2106
g13
g7
(g14
g9
Ntp2107
Rp2108
sg17
g18
sg19
(lp2109
F12.159848
aF54.076614
asg21
(dp2110
sbsg23
S'17.06.2012 (13:58:04)'
p2111
sg24
I0
sg25
g2100
sbsS'192.168.1.248'
p2112
(iprimitives
AccesPoint
p2113
(dp2114
g4
Nsg5
I1
sg6
g7
(g8
g9
Ntp2115
Rp2116
(dp2117
g13
g7
(g14
g9
Ntp2118
Rp2119
sg17
g18
sg19
(lp2120
F12.118521
aF54.102187
asg21
(dp2121
sbsg23
S'17.06.2012 (13:58:04)'
p2122
sg24
Nsg25
g2112
sbsS'192.168.1.225'
p2123
(iprimitives
AccesPoint
p2124
(dp2125
g62
I0
sg63
S'OpenWrt(backfire 10.03.1-RC6)'
p2126
sg4
I0
sg5
I1
sg65
g571
sg6
g7
(g8
g9
Ntp2127
Rp2128
(dp2129
g13
g7
(g14
g9
Ntp2130
Rp2131
sg17
g18
sg19
(lp2132
F12.294755
aF54.00786
asg21
(dp2133
sbsg23
S'17.06.2012 (13:59:04)'
p2134
sg24
I0
sg25
g2123
sbsS'192.168.1.224'
p2135
(iprimitives
AccesPoint
p2136
(dp2137
g4
Nsg5
I1
sg6
g7
(g8
g9
Ntp2138
Rp2139
(dp2140
g13
g7
(g14
g9
Ntp2141
Rp2142
sg17
g18
sg19
(lp2143
F12.1145
aF54.0889
asg21
(dp2144
sbsg23
S'17.06.2012 (13:58:04)'
p2145
sg24
Nsg25
g2135
sbsS'192.168.1.227'
p2146
(iprimitives
AccesPoint
p2147
(dp2148
g4
Nsg5
I1
sg6
g7
(g8
g9
Ntp2149
Rp2150
(dp2151
g13
g7
(g14
g9
Ntp2152
Rp2153
sg17
g18
sg19
(lp2154
F12.190058
aF54.005707
asg21
(dp2155
sbsg23
S'17.06.2012 (13:57:04)'
p2156
sg24
Nsg25
g2146
sbsS'192.168.1.226'
p2157
(iprimitives
AccesPoint
p2158
(dp2159
g62
I1
sg63
S'OpenWrt(white russian  0.9-ON5)'
p2160
sg4
I0
sg5
I1
sg65
g260
sg6
g7
(g8
g9
Ntp2161
Rp2162
(dp2163
g13
g7
(g14
g9
Ntp2164
Rp2165
sg17
g18
sg19
(lp2166
F12.155728
aF54.025016
asg21
(dp2167
sbsg23
S'17.06.2012 (13:58:04)'
p2168
sg24
I0
sg25
g2157
sbsS'192.168.1.221'
p2169
(iprimitives
AccesPoint
p2170
(dp2171
g4
Nsg5
I3
sg6
g7
(g8
g9
Ntp2172
Rp2173
(dp2174
g13
g7
(g14
g9
Ntp2175
Rp2176
sg17
g18
sg19
(lp2177
F12.083981
aF54.101537
asg21
(dp2178
sbsg23
S'10.06.2010 (23:27:02)'
p2179
sg24
Nsg25
g2169
sbsS'192.168.1.220'
p2180
(iprimitives
AccesPoint
p2181
(dp2182
g4
Nsg5
Nsg6
g7
(g8
g9
Ntp2183
Rp2184
(dp2185
g13
g7
(g14
g9
Ntp2186
Rp2187
sg17
g18
sg19
(lp2188
F12.130365
aF54.141247
asg21
(dp2189
sbsg23
Nsg24
Nsg25
g2180
sbsS'192.168.1.223'
p2190
(iprimitives
AccesPoint
p2191
(dp2192
g62
I1
sg63
S'OpenWrt(white russian  0.9-ON5)'
p2193
sg4
I0
sg5
I1
sg65
g260
sg6
g7
(g8
g9
Ntp2194
Rp2195
(dp2196
g13
g7
(g14
g9
Ntp2197
Rp2198
sg17
g18
sg19
(lp2199
F12.153756
aF54.025936
asg21
(dp2200
sbsg23
S'17.06.2012 (13:30:04)'
p2201
sg24
I0
sg25
g2190
sbsS'192.168.1.222'
p2202
(iprimitives
AccesPoint
p2203
(dp2204
g4
Nsg5
I3
sg6
g7
(g8
g9
Ntp2205
Rp2206
(dp2207
g13
g7
(g14
g9
Ntp2208
Rp2209
sg17
g18
sg19
(lp2210
F12.1147
aF54.0891
asg21
(dp2211
sbsg23
S'08.06.2012 (03:01:04)'
p2212
sg24
Nsg25
g2202
sbsS'192.168.1.229'
p2213
(iprimitives
AccesPoint
p2214
(dp2215
g4
Nsg5
I3
sg6
g7
(g8
g9
Ntp2216
Rp2217
(dp2218
g13
g7
(g14
g9
Ntp2219
Rp2220
sg17
g18
sg19
(lp2221
F12.260908
aF54.017397
asg21
(dp2222
sbsg23
S'22.06.2011 (17:33:04)'
p2223
sg24
Nsg25
g2213
sbsS'192.168.2.36'
p2224
(iprimitives
AccesPoint
p2225
(dp2226
g4
Nsg5
I1
sg6
g7
(g8
g9
Ntp2227
Rp2228
(dp2229
g13
g7
(g14
g9
Ntp2230
Rp2231
sg17
g18
sg19
(lp2232
F12.1332
aF54.0848
asg21
(dp2233
sbsg23
S'17.06.2012 (13:58:04)'
p2234
sg24
Nsg25
g2224
sbsS'192.168.1.144'
p2235
(iprimitives
AccesPoint
p2236
(dp2237
g4
Nsg5
I3
sg6
g7
(g8
g9
Ntp2238
Rp2239
(dp2240
g13
g7
(g14
g9
Ntp2241
Rp2242
sg17
g18
sg19
(lp2243
F12.11675
aF54.08847
asg21
(dp2244
sbsg23
S'15.06.2012 (12:56:04)'
p2245
sg24
Nsg25
g2235
sbsS'192.168.1.145'
p2246
(iprimitives
AccesPoint
p2247
(dp2248
g62
I1
sg63
S'OpenWrt(white russian  0.9-ON5)'
p2249
sg4
I0
sg5
I1
sg65
S'Buffalo WHR-G54s'
p2250
sg6
g7
(g8
g9
Ntp2251
Rp2252
(dp2253
g13
g7
(g14
g9
Ntp2254
Rp2255
sg17
g18
sg19
(lp2256
F12.09084
aF54.096163
asg21
(dp2257
sbsg23
S'17.06.2012 (13:59:04)'
p2258
sg24
I0
sg25
g2246
sbsS'192.168.1.146'
p2259
(iprimitives
AccesPoint
p2260
(dp2261
g4
Nsg5
I3
sg6
g7
(g8
g9
Ntp2262
Rp2263
(dp2264
g13
g7
(g14
g9
Ntp2265
Rp2266
sg17
g18
sg19
(lp2267
F12.113022
aF54.093332
asg21
(dp2268
sbsg23
S'20.12.2011 (19:49:04)'
p2269
sg24
Nsg25
g2259
sbsS'192.168.1.147'
p2270
(iprimitives
AccesPoint
p2271
(dp2272
g4
Nsg5
I1
sg6
g7
(g8
g9
Ntp2273
Rp2274
(dp2275
g13
g7
(g14
g9
Ntp2276
Rp2277
sg17
g18
sg19
(lp2278
F12.09822
aF54.093044
asg21
(dp2279
sbsg23
S'17.06.2012 (13:58:04)'
p2280
sg24
Nsg25
g2270
sbsS'192.168.1.140'
p2281
(iprimitives
AccesPoint
p2282
(dp2283
g4
Nsg5
I3
sg6
g7
(g8
g9
Ntp2284
Rp2285
(dp2286
g13
g7
(g14
g9
Ntp2287
Rp2288
sg17
g18
sg19
(lp2289
F12.270248
aF53.981831
asg21
(dp2290
sbsg23
S'24.12.2011 (13:32:04)'
p2291
sg24
Nsg25
g2281
sbsS'192.168.1.141'
p2292
(iprimitives
AccesPoint
p2293
(dp2294
g4
Nsg5
I3
sg6
g7
(g8
g9
Ntp2295
Rp2296
(dp2297
g13
g7
(g14
g9
Ntp2298
Rp2299
sg17
g18
sg19
(lp2300
F12.120672
aF54.08904
asg21
(dp2301
sbsg23
S'10.04.2012 (22:20:04)'
p2302
sg24
Nsg25
g2292
sbsS'192.168.1.142'
p2303
(iprimitives
AccesPoint
p2304
(dp2305
g4
Nsg5
I3
sg6
g7
(g8
g9
Ntp2306
Rp2307
(dp2308
g13
g7
(g14
g9
Ntp2309
Rp2310
sg17
g18
sg19
(lp2311
F12.114653
aF54.086429
asg21
(dp2312
sbsg23
S'15.06.2012 (12:56:04)'
p2313
sg24
Nsg25
g2303
sbsS'192.168.1.18'
p2314
(iprimitives
AccesPoint
p2315
(dp2316
g4
Nsg5
I3
sg6
g7
(g8
g9
Ntp2317
Rp2318
(dp2319
g13
g7
(g14
g9
Ntp2320
Rp2321
sg17
g18
sg19
(lp2322
F12.114959
aF54.100344
asg21
(dp2323
sbsg23
S'15.08.2010 (09:15:06)'
p2324
sg24
Nsg25
g2314
sbsS'192.168.1.239'
p2325
(iprimitives
AccesPoint
p2326
(dp2327
g62
I1
sg63
S'OpenWrt(backfire 10.03.1)'
p2328
sg4
I0
sg5
I1
sg65
g1482
sg6
g7
(g8
g9
Ntp2329
Rp2330
(dp2331
g13
g7
(g14
g9
Ntp2332
Rp2333
sg17
g18
sg19
(lp2334
F11.421
aF53.7008
asg21
(dp2335
sbsg23
S'17.06.2012 (13:57:04)'
p2336
sg24
I0
sg25
g2325
sbsS'192.168.1.148'
p2337
(iprimitives
AccesPoint
p2338
(dp2339
g4
Nsg5
I4
sg6
g7
(g8
g9
Ntp2340
Rp2341
(dp2342
g13
g7
(g14
g9
Ntp2343
Rp2344
sg17
g18
sg19
(lp2345
g35
ag35
asg21
(dp2346
sbsg23
S'20.09.2011 (13:37:04)'
p2347
sg24
Nsg25
g2337
sbsS'192.168.1.149'
p2348
(iprimitives
AccesPoint
p2349
(dp2350
g4
Nsg5
I3
sg6
g7
(g8
g9
Ntp2351
Rp2352
(dp2353
g13
g7
(g14
g9
Ntp2354
Rp2355
sg17
g18
sg19
(lp2356
F12.269309
aF53.983266
asg21
(dp2357
sbsg23
S'31.08.2011 (14:32:04)'
p2358
sg24
Nsg25
g2348
sbsS'192.168.2.12'
p2359
(iprimitives
AccesPoint
p2360
(dp2361
g4
Nsg5
I3
sg6
g7
(g8
g9
Ntp2362
Rp2363
(dp2364
g13
g7
(g14
g9
Ntp2365
Rp2366
sg17
g18
sg19
(lp2367
F12.136493
aF54.077729
asg21
(dp2368
sbsg23
S'05.01.2012 (11:40:04)'
p2369
sg24
Nsg25
g2359
sbsS'192.168.1.30'
p2370
(iprimitives
AccesPoint
p2371
(dp2372
g4
Nsg5
I4
sg6
g7
(g8
g9
Ntp2373
Rp2374
(dp2375
g13
g7
(g14
g9
Ntp2376
Rp2377
sg17
g18
sg19
(lp2378
g35
ag35
asg21
(dp2379
sbsg23
S'10.10.2011 (15:37:04)'
p2380
sg24
Nsg25
g2370
sbsS'192.168.2.10'
p2381
(iprimitives
AccesPoint
p2382
(dp2383
g4
Nsg5
I1
sg6
g7
(g8
g9
Ntp2384
Rp2385
(dp2386
g13
g7
(g14
g9
Ntp2387
Rp2388
sg17
g18
sg19
(lp2389
F12.123116
aF54.09136
asg21
(dp2390
sbsg23
S'17.06.2012 (13:58:04)'
p2391
sg24
Nsg25
g2381
sbsS'192.168.2.11'
p2392
(iprimitives
AccesPoint
p2393
(dp2394
g4
Nsg5
I1
sg6
g7
(g8
g9
Ntp2395
Rp2396
(dp2397
g13
g7
(g14
g9
Ntp2398
Rp2399
sg17
g18
sg19
(lp2400
F12.1332
aF54.085
asg21
(dp2401
sbsg23
S'17.06.2012 (13:58:04)'
p2402
sg24
Nsg25
g2392
sbsS'192.168.2.16'
p2403
(iprimitives
AccesPoint
p2404
(dp2405
g62
I0
sg63
S'OpenWrt(white russian  0.9-ON5)'
p2406
sg4
I0
sg5
I3
sg65
g2250
sg6
g7
(g8
g9
Ntp2407
Rp2408
(dp2409
g13
g7
(g14
g9
Ntp2410
Rp2411
sg17
g18
sg19
(lp2412
F12.121503
aF54.087187
asg21
(dp2413
sbsg23
S'04.06.2012 (20:16:04)'
p2414
sg24
I0
sg25
g2403
sbsS'192.168.2.17'
p2415
(iprimitives
AccesPoint
p2416
(dp2417
g4
Nsg5
I1
sg6
g7
(g8
g9
Ntp2418
Rp2419
(dp2420
g13
g7
(g14
g9
Ntp2421
Rp2422
sg17
g18
sg19
(lp2423
F12.1334
aF54.085
asg21
(dp2424
sbsg23
S'17.06.2012 (13:57:04)'
p2425
sg24
Nsg25
g2415
sbsS'192.168.1.37'
p2426
(iprimitives
AccesPoint
p2427
(dp2428
g62
I1
sg63
S'OpenWrt(white russian  0.9-ON5)'
p2429
sg4
I0
sg5
I1
sg65
g260
sg6
g7
(g8
g9
Ntp2430
Rp2431
(dp2432
g13
g7
(g14
g9
Ntp2433
Rp2434
sg17
g18
sg19
(lp2435
F12.157601
aF54.027089
asg21
(dp2436
sbsg23
S'17.06.2012 (13:58:04)'
p2437
sg24
I0
sg25
g2426
sbsS'192.168.1.36'
p2438
(iprimitives
AccesPoint
p2439
(dp2440
g4
Nsg5
I3
sg6
g7
(g8
g9
Ntp2441
Rp2442
(dp2443
g13
g7
(g14
g9
Ntp2444
Rp2445
sg17
g18
sg19
(lp2446
F12.11287
aF54.093
asg21
(dp2447
sbsg23
S'19.05.2012 (13:54:04)'
p2448
sg24
Nsg25
g2438
sbsS'192.168.1.39'
p2449
(iprimitives
AccesPoint
p2450
(dp2451
g4
Nsg5
I1
sg6
g7
(g8
g9
Ntp2452
Rp2453
(dp2454
g13
g7
(g14
g9
Ntp2455
Rp2456
sg17
g18
sg19
(lp2457
F12.10439
aF54.08085
asg21
(dp2458
sbsg23
S'17.06.2012 (13:58:04)'
p2459
sg24
Nsg25
g2449
sbsS'192.168.1.38'
p2460
(iprimitives
AccesPoint
p2461
(dp2462
g4
Nsg5
I3
sg6
g7
(g8
g9
Ntp2463
Rp2464
(dp2465
g13
g7
(g14
g9
Ntp2466
Rp2467
sg17
g18
sg19
(lp2468
F12.11282
aF54.08075
asg21
(dp2469
sbsg23
S'05.02.2011 (10:46:04)'
p2470
sg24
Nsg25
g2460
sbsS'192.168.2.18'
p2471
(iprimitives
AccesPoint
p2472
(dp2473
g62
I0
sg63
S'AirOS(XM.v5.2.1 )'
p2474
sg4
I0
sg5
I1
sg65
g135
sg6
g7
(g8
g9
Ntp2475
Rp2476
(dp2477
g13
g7
(g14
g9
Ntp2478
Rp2479
sg17
g18
sg19
(lp2480
F12.136543
aF54.077759
asg21
(dp2481
sbsg23
S'17.06.2012 (13:58:04)'
p2482
sg24
I0
sg25
g2471
sbsS'192.168.2.19'
p2483
(iprimitives
AccesPoint
p2484
(dp2485
g62
I1
sg63
S'OpenWrt(backfire 10.03.1)'
p2486
sg4
I1
sg5
I1
sg65
g1482
sg6
g7
(g8
g9
Ntp2487
Rp2488
(dp2489
g13
g7
(g14
g9
Ntp2490
Rp2491
sg17
g18
sg19
(lp2492
F12.136533
aF54.077729
asg21
(dp2493
sbsg23
S'17.06.2012 (13:59:04)'
p2494
sg24
I0
sg25
g2483
sbsS'192.168.1.250'
p2495
(iprimitives
AccesPoint
p2496
(dp2497
g4
Nsg5
I4
sg6
g7
(g8
g9
Ntp2498
Rp2499
(dp2500
g13
g7
(g14
g9
Ntp2501
Rp2502
sg17
g18
sg19
(lp2503
g35
ag35
asg21
(dp2504
sbsg23
Nsg24
Nsg25
g2495
sbsS'192.168.1.251'
p2505
(iprimitives
AccesPoint
p2506
(dp2507
g4
Nsg5
I3
sg6
g7
(g8
g9
Ntp2508
Rp2509
(dp2510
g13
g7
(g14
g9
Ntp2511
Rp2512
sg17
g18
sg19
(lp2513
F12.193564
aF54.011599
asg21
(dp2514
sbsg23
S'12.03.2010 (16:43:38)'
p2515
sg24
Nsg25
g2505
sbsS'192.168.1.252'
p2516
(iprimitives
AccesPoint
p2517
(dp2518
g4
Nsg5
Nsg6
g7
(g8
g9
Ntp2519
Rp2520
(dp2521
g13
g7
(g14
g9
Ntp2522
Rp2523
sg17
g18
sg19
(lp2524
F12.193813
aF54.011665
asg21
(dp2525
sbsg23
Nsg24
Nsg25
g2516
sbsS'192.168.1.132'
p2526
(iprimitives
AccesPoint
p2527
(dp2528
g4
Nsg5
I3
sg6
g7
(g8
g9
Ntp2529
Rp2530
(dp2531
g13
g7
(g14
g9
Ntp2532
Rp2533
sg17
g18
sg19
(lp2534
F12.109834
aF54.104898
asg21
(dp2535
sbsg23
S'11.06.2012 (21:21:04)'
p2536
sg24
Nsg25
g2526
sbsS'192.168.1.254'
p2537
(iprimitives
AccesPoint
p2538
(dp2539
g4
Nsg5
Nsg6
g7
(g8
g9
Ntp2540
Rp2541
(dp2542
g13
g7
(g14
g9
Ntp2543
Rp2544
sg17
g18
sg19
(lp2545
F12.216024
aF53.976358
asg21
(dp2546
sbsg23
Nsg24
Nsg25
g2537
sbsS'192.168.1.255'
p2547
(iprimitives
AccesPoint
p2548
(dp2549
g4
Nsg5
I3
sg6
g7
(g8
g9
Ntp2550
Rp2551
(dp2552
g13
g7
(g14
g9
Ntp2553
Rp2554
sg17
g18
sg19
(lp2555
F12.387847
aF53.758125
asg21
(dp2556
sbsg23
S'21.10.2010 (09:42:06)'
p2557
sg24
Nsg25
g2547
sbsS'192.168.2.23'
p2558
(iprimitives
AccesPoint
p2559
(dp2560
g4
Nsg5
Nsg6
g7
(g8
g9
Ntp2561
Rp2562
(dp2563
g13
g7
(g14
g9
Ntp2564
Rp2565
sg17
g18
sg19
(lp2566
F12.10766
aF54.07657
asg21
(dp2567
sbsg23
Nsg24
Nsg25
g2558
sbsS'192.168.2.45'
p2568
(iprimitives
AccesPoint
p2569
(dp2570
g4
Nsg5
I1
sg6
g7
(g8
g9
Ntp2571
Rp2572
(dp2573
g13
g7
(g14
g9
Ntp2574
Rp2575
sg17
g18
sg19
(lp2576
F12.158689
aF54.075657
asg21
(dp2577
sbsg23
S'17.06.2012 (13:57:04)'
p2578
sg24
Nsg25
g2568
sbsS'192.168.2.49'
p2579
(iprimitives
AccesPoint
p2580
(dp2581
g4
Nsg5
I4
sg6
g7
(g8
g9
Ntp2582
Rp2583
(dp2584
g13
g7
(g14
g9
Ntp2585
Rp2586
sg17
g18
sg19
(lp2587
g35
ag35
asg21
(dp2588
sbsg23
Nsg24
Nsg25
g2579
sbsS'192.168.2.44'
p2589
(iprimitives
AccesPoint
p2590
(dp2591
g4
Nsg5
Nsg6
g7
(g8
g9
Ntp2592
Rp2593
(dp2594
g13
g7
(g14
g9
Ntp2595
Rp2596
sg17
g18
sg19
(lp2597
F12.295691
aF54.007721
asg21
(dp2598
sbsg23
Nsg24
Nsg25
g2589
sbsS'192.168.1.236'
p2599
(iprimitives
AccesPoint
p2600
(dp2601
g4
Nsg5
I1
sg6
g7
(g8
g9
Ntp2602
Rp2603
(dp2604
g13
g7
(g14
g9
Ntp2605
Rp2606
sg17
g18
sg19
(lp2607
F12.116523
aF54.088677
asg21
(dp2608
sbsg23
S'17.06.2012 (13:57:04)'
p2609
sg24
Nsg25
g2599
sbsS'192.168.1.108'
p2610
(iprimitives
AccesPoint
p2611
(dp2612
g4
Nsg5
I3
sg6
g7
(g8
g9
Ntp2613
Rp2614
(dp2615
g13
g7
(g14
g9
Ntp2616
Rp2617
sg17
g18
sg19
(lp2618
F12.211976
aF54.048507
asg21
(dp2619
sbsg23
S'17.01.2012 (21:06:04)'
p2620
sg24
Nsg25
g2610
sbsS'192.168.1.234'
p2621
(iprimitives
AccesPoint
p2622
(dp2623
g4
Nsg5
I1
sg6
g7
(g8
g9
Ntp2624
Rp2625
(dp2626
g13
g7
(g14
g9
Ntp2627
Rp2628
sg17
g18
sg19
(lp2629
F12.119057
aF54.101998
asg21
(dp2630
sbsg23
S'17.06.2012 (13:59:04)'
p2631
sg24
Nsg25
g2621
sbsS'192.168.1.235'
p2632
(iprimitives
AccesPoint
p2633
(dp2634
g4
Nsg5
I1
sg6
g7
(g8
g9
Ntp2635
Rp2636
(dp2637
g13
g7
(g14
g9
Ntp2638
Rp2639
sg17
g18
sg19
(lp2640
F12.098536
aF54.092801
asg21
(dp2641
sbsg23
S'17.06.2012 (13:57:04)'
p2642
sg24
Nsg25
g2632
sbsS'192.168.1.232'
p2643
(iprimitives
AccesPoint
p2644
(dp2645
g4
Nsg5
I1
sg6
g7
(g8
g9
Ntp2646
Rp2647
(dp2648
g13
g7
(g14
g9
Ntp2649
Rp2650
sg17
g18
sg19
(lp2651
F12.509345
aF53.776477
asg21
(dp2652
sbsg23
S'17.06.2012 (13:58:04)'
p2653
sg24
Nsg25
g2643
sbsS'192.168.1.233'
p2654
(iprimitives
AccesPoint
p2655
(dp2656
g4
Nsg5
I1
sg6
g7
(g8
g9
Ntp2657
Rp2658
(dp2659
g13
g7
(g14
g9
Ntp2660
Rp2661
sg17
g18
sg19
(lp2662
F12.1167
aF54.08875
asg21
(dp2663
sbsg23
S'17.06.2012 (13:58:04)'
p2664
sg24
Nsg25
g2654
sbsS'192.168.1.230'
p2665
(iprimitives
AccesPoint
p2666
(dp2667
g4
Nsg5
I1
sg6
g7
(g8
g9
Ntp2668
Rp2669
(dp2670
g13
g7
(g14
g9
Ntp2671
Rp2672
sg17
g18
sg19
(lp2673
F12.294624
aF54.00793
asg21
(dp2674
sbsg23
S'17.06.2012 (13:58:04)'
p2675
sg24
Nsg25
g2665
sbsS'192.168.1.231'
p2676
(iprimitives
AccesPoint
p2677
(dp2678
g62
I0
sg63
S'OpenWrt(backfire 10.03.1-RC6)'
p2679
sg4
I0
sg5
I1
sg65
g571
sg6
g7
(g8
g9
Ntp2680
Rp2681
(dp2682
g13
g7
(g14
g9
Ntp2683
Rp2684
sg17
g18
sg19
(lp2685
F12.294742
aF54.00796
asg21
(dp2686
sbsg23
S'17.06.2012 (13:59:04)'
p2687
sg24
I0
sg25
g2676
sbsS'192.168.2.38'
p2688
(iprimitives
AccesPoint
p2689
(dp2690
g4
Nsg5
I1
sg6
g7
(g8
g9
Ntp2691
Rp2692
(dp2693
g13
g7
(g14
g9
Ntp2694
Rp2695
sg17
g18
sg19
(lp2696
F12.129282
aF54.083795
asg21
(dp2697
sbsg23
S'17.06.2012 (13:58:04)'
p2698
sg24
Nsg25
g2688
sbsS'192.168.2.35'
p2699
(iprimitives
AccesPoint
p2700
(dp2701
g4
Nsg5
I1
sg6
g7
(g8
g9
Ntp2702
Rp2703
(dp2704
g13
g7
(g14
g9
Ntp2705
Rp2706
sg17
g18
sg19
(lp2707
F12.13313
aF54.0849
asg21
(dp2708
sbsg23
S'17.06.2012 (13:58:04)'
p2709
sg24
Nsg25
g2699
sbsS'192.168.2.2'
p2710
(iprimitives
AccesPoint
p2711
(dp2712
g62
I1
sg63
S'OpenWrt(white russian  0.9-ON5)'
p2713
sg4
I0
sg5
I4
sg65
g2250
sg6
g7
(g8
g9
Ntp2714
Rp2715
(dp2716
g13
g7
(g14
g9
Ntp2717
Rp2718
sg17
g18
sg19
(lp2719
g35
ag35
asg21
(dp2720
sbsg23
Nsg24
I0
sg25
g2710
sbsS'192.168.1.238'
p2721
(iprimitives
AccesPoint
p2722
(dp2723
g62
I1
sg63
S'OpenWrt(white russian  0.9-ON5)'
p2724
sg4
I0
sg5
I1
sg65
g260
sg6
g7
(g8
g9
Ntp2725
Rp2726
(dp2727
g13
g7
(g14
g9
Ntp2728
Rp2729
sg17
g18
sg19
(lp2730
F12.477508
aF53.757668
asg21
(dp2731
sbsg23
S'17.06.2012 (13:58:04)'
p2732
sg24
I0
sg25
g2721
sbsS'192.168.2.39'
p2733
(iprimitives
AccesPoint
p2734
(dp2735
g4
Nsg5
I1
sg6
g7
(g8
g9
Ntp2736
Rp2737
(dp2738
g13
g7
(g14
g9
Ntp2739
Rp2740
sg17
g18
sg19
(lp2741
F12.128606
aF54.082039
asg21
(dp2742
sbsg23
S'17.06.2012 (13:59:04)'
p2743
sg24
Nsg25
g2733
sbsS'192.168.1.131'
p2744
(iprimitives
AccesPoint
p2745
(dp2746
g4
Nsg5
I3
sg6
g7
(g8
g9
Ntp2747
Rp2748
(dp2749
g13
g7
(g14
g9
Ntp2750
Rp2751
sg17
g18
sg19
(lp2752
F12.275398
aF53.968097
asg21
(dp2753
sbsg23
S'11.06.2012 (16:50:04)'
p2754
sg24
Nsg25
g2744
sbsS'192.168.1.130'
p2755
(iprimitives
AccesPoint
p2756
(dp2757
g62
I0
sg63
S'OpenWrt(white russian  0.9-ON5)'
p2758
sg4
I0
sg5
I1
sg65
g2250
sg6
g7
(g8
g9
Ntp2759
Rp2760
(dp2761
g13
g7
(g14
g9
Ntp2762
Rp2763
sg17
g18
sg19
(lp2764
F12.090663
aF54.09619
asg21
(dp2765
sbsg23
S'17.06.2012 (13:59:04)'
p2766
sg24
I1
sg25
g2755
sbsS'192.168.1.133'
p2767
(iprimitives
AccesPoint
p2768
(dp2769
g4
Nsg5
I3
sg6
g7
(g8
g9
Ntp2770
Rp2771
(dp2772
g13
g7
(g14
g9
Ntp2773
Rp2774
sg17
g18
sg19
(lp2775
F12.116227
aF54.088871
asg21
(dp2776
sbsg23
S'19.12.2011 (16:26:04)'
p2777
sg24
Nsg25
g2767
sbsS'192.168.1.83'
p2778
(iprimitives
AccesPoint
p2779
(dp2780
g4
Nsg5
I3
sg6
g7
(g8
g9
Ntp2781
Rp2782
(dp2783
g13
g7
(g14
g9
Ntp2784
Rp2785
sg17
g18
sg19
(lp2786
F12.117212
aF54.091775
asg21
(dp2787
sbsg23
S'21.05.2011 (14:10:04)'
p2788
sg24
Nsg25
g2778
sbsS'192.168.1.135'
p2789
(iprimitives
AccesPoint
p2790
(dp2791
g62
I1
sg63
S'OpenWrt(white russian  0.9-ON5)'
p2792
sg4
I0
sg5
I1
sg65
S'Asus WL500'
p2793
sg6
g7
(g8
g9
Ntp2794
Rp2795
(dp2796
g13
g7
(g14
g9
Ntp2797
Rp2798
sg17
g18
sg19
(lp2799
F12.371995
aF54.274334
asg21
(dp2800
sbsg23
S'17.06.2012 (13:58:04)'
p2801
sg24
I0
sg25
g2789
sbsS'192.168.1.134'
p2802
(iprimitives
AccesPoint
p2803
(dp2804
g62
I1
sg63
S'OpenWrt(white russian  0.9-ON5)'
p2805
sg4
I0
sg5
I4
sg65
g170
sg6
g7
(g8
g9
Ntp2806
Rp2807
(dp2808
g13
g7
(g14
g9
Ntp2809
Rp2810
sg17
g18
sg19
(lp2811
g35
ag35
asg21
(dp2812
sbsg23
S'15.06.2012 (11:13:04)'
p2813
sg24
I0
sg25
g2802
sbsS'192.168.1.137'
p2814
(iprimitives
AccesPoint
p2815
(dp2816
g4
Nsg5
I3
sg6
g7
(g8
g9
Ntp2817
Rp2818
(dp2819
g13
g7
(g14
g9
Ntp2820
Rp2821
sg17
g18
sg19
(lp2822
F12.121847
aF54.087426
asg21
(dp2823
sbsg23
S'04.06.2012 (16:17:04)'
p2824
sg24
Nsg25
g2814
sbsS'192.168.2.48'
p2825
(iprimitives
AccesPoint
p2826
(dp2827
g62
I1
sg63
S'OpenWrt(backfire 10.03.1)'
p2828
sg4
I0
sg5
I1
sg65
g606
sg6
g7
(g8
g9
Ntp2829
Rp2830
(dp2831
g13
g7
(g14
g9
Ntp2832
Rp2833
sg17
g18
sg19
(lp2834
F12.101312
aF54.092221
asg21
(dp2835
sbsg23
S'17.06.2012 (13:59:04)'
p2836
sg24
I0
sg25
g2825
sbsS'192.168.1.139'
p2837
(iprimitives
AccesPoint
p2838
(dp2839
g4
Nsg5
I3
sg6
g7
(g8
g9
Ntp2840
Rp2841
(dp2842
g13
g7
(g14
g9
Ntp2843
Rp2844
sg17
g18
sg19
(lp2845
F12.1131
aF54.09345
asg21
(dp2846
sbsg23
S'29.03.2011 (14:59:04)'
p2847
sg24
Nsg25
g2837
sbsS'192.168.1.138'
p2848
(iprimitives
AccesPoint
p2849
(dp2850
g62
I0
sg63
S'OpenWrt(white russian  RC6-ON3rc4)'
p2851
sg4
I0
sg5
I1
sg65
g260
sg6
g7
(g8
g9
Ntp2852
Rp2853
(dp2854
g13
g7
(g14
g9
Ntp2855
Rp2856
sg17
g18
sg19
(lp2857
F12.11665
aF54.08865
asg21
(dp2858
sbsg23
S'17.06.2012 (13:59:04)'
p2859
sg24
I0
sg25
g2848
sbsS'192.168.2.5'
p2860
(iprimitives
AccesPoint
p2861
(dp2862
g62
I0
sg63
S'AirOS(XM.v5.2.1 )'
p2863
sg4
I0
sg5
I1
sg65
g135
sg6
g7
(g8
g9
Ntp2864
Rp2865
(dp2866
g13
g7
(g14
g9
Ntp2867
Rp2868
sg17
g18
sg19
(lp2869
F12.107875
aF54.071535
asg21
(dp2870
sbsg23
S'17.06.2012 (13:57:04)'
p2871
sg24
I0
sg25
g2860
sbsS'192.168.2.15'
p2872
(iprimitives
AccesPoint
p2873
(dp2874
g4
Nsg5
Nsg6
g7
(g8
g9
Ntp2875
Rp2876
(dp2877
g13
g7
(g14
g9
Ntp2878
Rp2879
sg17
g18
sg19
(lp2880
F12.15857
aF54.02775
asg21
(dp2881
sbsg23
Nsg24
Nsg25
g2872
sbsS'192.168.1.86'
p2882
(iprimitives
AccesPoint
p2883
(dp2884
g62
I1
sg63
S'OpenWrt(white russian  0.9-ON5)'
p2885
sg4
I0
sg5
I1
sg65
g260
sg6
g7
(g8
g9
Ntp2886
Rp2887
(dp2888
g13
g7
(g14
g9
Ntp2889
Rp2890
sg17
g18
sg19
(lp2891
F12.117405
aF54.091712
asg21
(dp2892
sbsg23
S'17.06.2012 (13:57:04)'
p2893
sg24
I0
sg25
g2882
sbsS'192.168.1.87'
p2894
(iprimitives
AccesPoint
p2895
(dp2896
g4
Nsg5
I3
sg6
g7
(g8
g9
Ntp2897
Rp2898
(dp2899
g13
g7
(g14
g9
Ntp2900
Rp2901
sg17
g18
sg19
(lp2902
F12.158153
aF54.027638
asg21
(dp2903
sbsg23
S'16.06.2012 (21:56:04)'
p2904
sg24
Nsg25
g2894
sbsS'192.168.1.44'
p2905
(iprimitives
AccesPoint
p2906
(dp2907
g4
Nsg5
I3
sg6
g7
(g8
g9
Ntp2908
Rp2909
(dp2910
g13
g7
(g14
g9
Ntp2911
Rp2912
sg17
g18
sg19
(lp2913
F12.295858
aF54.007876
asg21
(dp2914
sbsg23
S'07.04.2012 (11:34:04)'
p2915
sg24
Nsg25
g2905
sbsS'192.168.1.88'
p2916
(iprimitives
AccesPoint
p2917
(dp2918
g4
Nsg5
I3
sg6
g7
(g8
g9
Ntp2919
Rp2920
(dp2921
g13
g7
(g14
g9
Ntp2922
Rp2923
sg17
g18
sg19
(lp2924
F12.0989620685
aF54.0908055793
asg21
(dp2925
sbsg23
S'07.03.2012 (11:12:04)'
p2926
sg24
Nsg25
g2916
sbsS'192.168.1.46'
p2927
(iprimitives
AccesPoint
p2928
(dp2929
g62
I0
sg63
S'AirOS(XM.v5.2.1 )'
p2930
sg4
I0
sg5
I1
sg65
g135
sg6
g7
(g8
g9
Ntp2931
Rp2932
(dp2933
g13
g7
(g14
g9
Ntp2934
Rp2935
sg17
g18
sg19
(lp2936
F12.136513
aF54.077709
asg21
(dp2937
sbsg23
S'17.06.2012 (13:58:04)'
p2938
sg24
I0
sg25
g2927
sbsS'192.168.1.47'
p2939
(iprimitives
AccesPoint
p2940
(dp2941
g4
Nsg5
I1
sg6
g7
(g8
g9
Ntp2942
Rp2943
(dp2944
g13
g7
(g14
g9
Ntp2945
Rp2946
sg17
g18
sg19
(lp2947
F12.159
aF54.0753
asg21
(dp2948
sbsg23
S'17.06.2012 (13:58:04)'
p2949
sg24
Nsg25
g2939
sbsS'192.168.1.40'
p2950
(iprimitives
AccesPoint
p2951
(dp2952
g4
Nsg5
I1
sg6
g7
(g8
g9
Ntp2953
Rp2954
(dp2955
g13
g7
(g14
g9
Ntp2956
Rp2957
sg17
g18
sg19
(lp2958
F12.295479
aF54.008681
asg21
(dp2959
sbsg23
S'17.06.2012 (13:59:04)'
p2960
sg24
Nsg25
g2950
sbsS'192.168.1.41'
p2961
(iprimitives
AccesPoint
p2962
(dp2963
g4
Nsg5
I1
sg6
g7
(g8
g9
Ntp2964
Rp2965
(dp2966
g13
g7
(g14
g9
Ntp2967
Rp2968
sg17
g18
sg19
(lp2969
F12.1147
aF54.088
asg21
(dp2970
sbsg23
S'17.06.2012 (13:59:04)'
p2971
sg24
Nsg25
g2961
sbsS'192.168.1.42'
p2972
(iprimitives
AccesPoint
p2973
(dp2974
g4
Nsg5
I3
sg6
g7
(g8
g9
Ntp2975
Rp2976
(dp2977
g13
g7
(g14
g9
Ntp2978
Rp2979
sg17
g18
sg19
(lp2980
F12.117862
aF54.088703
asg21
(dp2981
sbsg23
S'19.05.2012 (14:21:04)'
p2982
sg24
Nsg25
g2972
sbsS'192.168.1.89'
p2983
(iprimitives
AccesPoint
p2984
(dp2985
g4
Nsg5
I1
sg6
g7
(g8
g9
Ntp2986
Rp2987
(dp2988
g13
g7
(g14
g9
Ntp2989
Rp2990
sg17
g18
sg19
(lp2991
F12.1065
aF54.0925
asg21
(dp2992
sbsg23
S'17.06.2012 (13:57:04)'
p2993
sg24
Nsg25
g2983
sbsS'192.168.1.48'
p2994
(iprimitives
AccesPoint
p2995
(dp2996
g4
Nsg5
I3
sg6
g7
(g8
g9
Ntp2997
Rp2998
(dp2999
g13
g7
(g14
g9
Ntp3000
Rp3001
sg17
g18
sg19
(lp3002
F12.109734
aF54.104898
asg21
(dp3003
sbsg23
S'06.05.2012 (08:33:04)'
p3004
sg24
Nsg25
g2994
sbsS'192.168.1.49'
p3005
(iprimitives
AccesPoint
p3006
(dp3007
g62
I1
sg63
S'OpenWrt(backfire 10.03.1)'
p3008
sg4
I0
sg5
I4
sg65
g1482
sg6
g7
(g8
g9
Ntp3009
Rp3010
(dp3011
g13
g7
(g14
g9
Ntp3012
Rp3013
sg17
g18
sg19
(lp3014
g35
ag35
asg21
(dp3015
sbsg23
S'14.11.2011 (07:40:04)'
p3016
sg24
I0
sg25
g3005
sbsS'192.168.1.81'
p3017
(iprimitives
AccesPoint
p3018
(dp3019
g4
Nsg5
I3
sg6
g7
(g8
g9
Ntp3020
Rp3021
(dp3022
g13
g7
(g14
g9
Ntp3023
Rp3024
sg17
g18
sg19
(lp3025
F12.11149
aF54.09244
asg21
(dp3026
sbsg23
S'01.09.2011 (05:09:04)'
p3027
sg24
Nsg25
g3017
sbsS'192.168.1.203'
p3028
(iprimitives
AccesPoint
p3029
(dp3030
g4
Nsg5
I4
sg6
g7
(g8
g9
Ntp3031
Rp3032
(dp3033
g13
g7
(g14
g9
Ntp3034
Rp3035
sg17
g18
sg19
(lp3036
g35
ag35
asg21
(dp3037
sbsg23
S'03.09.2010 (13:28:04)'
p3038
sg24
Nsg25
g3028
sbsS'192.168.1.202'
p3039
(iprimitives
AccesPoint
p3040
(dp3041
g62
I1
sg63
S'OpenWrt(backfire 10.03.1-RC6)'
p3042
sg4
I1
sg5
I1
sg65
g170
sg6
g7
(g8
g9
Ntp3043
Rp3044
(dp3045
g13
g7
(g14
g9
Ntp3046
Rp3047
sg17
g18
sg19
(lp3048
F12.123295
aF54.091227
asg21
(dp3049
sbsg23
S'17.06.2012 (13:58:04)'
p3050
sg24
I0
sg25
g3039
sbsS'192.168.1.201'
p3051
(iprimitives
AccesPoint
p3052
(dp3053
g62
I1
sg63
S'OpenWrt(backfire 10.03.1-RC6)'
p3054
sg4
I1
sg5
I1
sg65
g170
sg6
g7
(g8
g9
Ntp3055
Rp3056
(dp3057
g13
g7
(g14
g9
Ntp3058
Rp3059
sg17
g18
sg19
(lp3060
F12.123245
aF54.09122
asg21
(dp3061
sbsg23
S'17.06.2012 (13:58:04)'
p3062
sg24
I0
sg25
g3051
sbsS'192.168.1.200'
p3063
(iprimitives
AccesPoint
p3064
(dp3065
g4
Nsg5
I3
sg6
g7
(g8
g9
Ntp3066
Rp3067
(dp3068
g13
g7
(g14
g9
Ntp3069
Rp3070
sg17
g18
sg19
(lp3071
F12.150007
aF54.115496
asg21
(dp3072
sbsg23
S'16.06.2012 (15:15:04)'
p3073
sg24
Nsg25
g3063
sbsS'192.168.1.207'
p3074
(iprimitives
AccesPoint
p3075
(dp3076
g4
Nsg5
I3
sg6
g7
(g8
g9
Ntp3077
Rp3078
(dp3079
g13
g7
(g14
g9
Ntp3080
Rp3081
sg17
g18
sg19
(lp3082
F12.170894
aF54.02823
asg21
(dp3083
sbsg23
S'19.11.2011 (10:22:04)'
p3084
sg24
Nsg25
g3074
sbsS'192.168.1.206'
p3085
(iprimitives
AccesPoint
p3086
(dp3087
g4
Nsg5
I4
sg6
g7
(g8
g9
Ntp3088
Rp3089
(dp3090
g13
g7
(g14
g9
Ntp3091
Rp3092
sg17
g18
sg19
(lp3093
g35
ag35
asg21
(dp3094
sbsg23
S'13.01.2012 (10:40:04)'
p3095
sg24
Nsg25
g3085
sbsS'192.168.1.205'
p3096
(iprimitives
AccesPoint
p3097
(dp3098
g62
I0
sg63
S'OpenWrt(backfire 10.03.1)'
p3099
sg4
I0
sg5
I1
sg65
g1482
sg6
g7
(g8
g9
Ntp3100
Rp3101
(dp3102
g13
g7
(g14
g9
Ntp3103
Rp3104
sg17
g18
sg19
(lp3105
F11.41611
aF53.63082
asg21
(dp3106
sbsg23
S'17.06.2012 (13:58:04)'
p3107
sg24
I1
sg25
g3096
sbsS'192.168.1.204'
p3108
(iprimitives
AccesPoint
p3109
(dp3110
g4
Nsg5
I3
sg6
g7
(g8
g9
Ntp3111
Rp3112
(dp3113
g13
g7
(g14
g9
Ntp3114
Rp3115
sg17
g18
sg19
(lp3116
F12.211905
aF54.049009
asg21
(dp3117
sbsg23
S'31.03.2012 (07:40:04)'
p3118
sg24
Nsg25
g3108
sbsS'192.168.1.209'
p3119
(iprimitives
AccesPoint
p3120
(dp3121
g4
Nsg5
I3
sg6
g7
(g8
g9
Ntp3122
Rp3123
(dp3124
g13
g7
(g14
g9
Ntp3125
Rp3126
sg17
g18
sg19
(lp3127
F12.155128
aF54.023781
asg21
(dp3128
sbsg23
S'02.03.2012 (07:16:04)'
p3129
sg24
Nsg25
g3119
sbsS'192.168.1.208'
p3130
(iprimitives
AccesPoint
p3131
(dp3132
g4
Nsg5
I1
sg6
g7
(g8
g9
Ntp3133
Rp3134
(dp3135
g13
g7
(g14
g9
Ntp3136
Rp3137
sg17
g18
sg19
(lp3138
F12.156909
aF54.02639
asg21
(dp3139
sbsg23
S'17.06.2012 (13:59:04)'
p3140
sg24
Nsg25
g3130
sbsS'192.168.1.228'
p3141
(iprimitives
AccesPoint
p3142
(dp3143
g4
Nsg5
Nsg6
g7
(g8
g9
Ntp3144
Rp3145
(dp3146
g13
g7
(g14
g9
Ntp3147
Rp3148
sg17
g18
sg19
(lp3149
F12.260804
aF54.017482
asg21
(dp3150
sbsg23
Nsg24
Nsg25
g3141
sbsS'192.168.1.7'
p3151
(iprimitives
AccesPoint
p3152
(dp3153
g4
Nsg5
I3
sg6
g7
(g8
g9
Ntp3154
Rp3155
(dp3156
g13
g7
(g14
g9
Ntp3157
Rp3158
sg17
g18
sg19
(lp3159
F12.116804
aF54.090384
asg21
(dp3160
sbsg23
S'01.09.2010 (14:13:04)'
p3161
sg24
Nsg25
g3151
sbsS'192.168.1.6'
p3162
(iprimitives
AccesPoint
p3163
(dp3164
g4
Nsg5
I4
sg6
g7
(g8
g9
Ntp3165
Rp3166
(dp3167
g13
g7
(g14
g9
Ntp3168
Rp3169
sg17
g18
sg19
(lp3170
g35
ag35
asg21
(dp3171
sbsg23
S'18.09.2011 (15:54:04)'
p3172
sg24
Nsg25
g3162
sbsS'192.168.1.5'
p3173
(iprimitives
AccesPoint
p3174
(dp3175
g4
Nsg5
I4
sg6
g7
(g8
g9
Ntp3176
Rp3177
(dp3178
g13
g7
(g14
g9
Ntp3179
Rp3180
sg17
g18
sg19
(lp3181
g35
ag35
asg21
(dp3182
sbsg23
S'28.09.2011 (15:49:04)'
p3183
sg24
Nsg25
g3173
sbsS'192.168.1.4'
p3184
(iprimitives
AccesPoint
p3185
(dp3186
g4
Nsg5
I4
sg6
g7
(g8
g9
Ntp3187
Rp3188
(dp3189
g13
g7
(g14
g9
Ntp3190
Rp3191
sg17
g18
sg19
(lp3192
g35
ag35
asg21
(dp3193
sbsg23
S'09.12.2011 (12:00:04)'
p3194
sg24
Nsg25
g3184
sbsS'192.168.1.3'
p3195
(iprimitives
AccesPoint
p3196
(dp3197
g4
Nsg5
I3
sg6
g7
(g8
g9
Ntp3198
Rp3199
(dp3200
g13
g7
(g14
g9
Ntp3201
Rp3202
sg17
g18
sg19
(lp3203
F12.09902644
aF54.09096918
asg21
(dp3204
sbsg23
S'11.05.2011 (13:16:04)'
p3205
sg24
Nsg25
g3195
sbsS'192.168.1.127'
p3206
(iprimitives
AccesPoint
p3207
(dp3208
g4
Nsg5
I1
sg6
g7
(g8
g9
Ntp3209
Rp3210
(dp3211
g13
g7
(g14
g9
Ntp3212
Rp3213
sg17
g18
sg19
(lp3214
F12.126793
aF54.095688
asg21
(dp3215
sbsg23
S'17.06.2012 (13:58:04)'
p3216
sg24
Nsg25
g3206
sbsS'192.168.1.124'
p3217
(iprimitives
AccesPoint
p3218
(dp3219
g62
I1
sg63
S'OpenWrt(backfire 10.03.1-RC6)'
p3220
sg4
I1
sg5
I1
sg65
g170
sg6
g7
(g8
g9
Ntp3221
Rp3222
(dp3223
g13
g7
(g14
g9
Ntp3224
Rp3225
sg17
g18
sg19
(lp3226
F12.11665
aF54.08855
asg21
(dp3227
sbsg23
S'17.06.2012 (13:58:04)'
p3228
sg24
I0
sg25
g3217
sbsS'192.168.1.125'
p3229
(iprimitives
AccesPoint
p3230
(dp3231
g4
Nsg5
I3
sg6
g7
(g8
g9
Ntp3232
Rp3233
(dp3234
g13
g7
(g14
g9
Ntp3235
Rp3236
sg17
g18
sg19
(lp3237
F12.211787
aF54.048949
asg21
(dp3238
sbsg23
S'14.01.2012 (13:33:04)'
p3239
sg24
Nsg25
g3229
sbsS'192.168.1.128'
p3240
(iprimitives
AccesPoint
p3241
(dp3242
g4
Nsg5
I1
sg6
g7
(g8
g9
Ntp3243
Rp3244
(dp3245
g13
g7
(g14
g9
Ntp3246
Rp3247
sg17
g18
sg19
(lp3248
F12.114927
aF54.0881
asg21
(dp3249
sbsg23
S'17.06.2012 (13:58:04)'
p3250
sg24
Nsg25
g3240
sbsS'192.168.1.129'
p3251
(iprimitives
AccesPoint
p3252
(dp3253
g62
I1
sg63
S'OpenWrt(backfire 10.03.1)'
p3254
sg4
I0
sg5
I1
sg65
g606
sg6
g7
(g8
g9
Ntp3255
Rp3256
(dp3257
g13
g7
(g14
g9
Ntp3258
Rp3259
sg17
g18
sg19
(lp3260
F12.112663
aF54.092869
asg21
(dp3261
sbsg23
S'17.06.2012 (13:59:04)'
p3262
sg24
I0
sg25
g3251
sbsS'192.168.1.9'
p3263
(iprimitives
AccesPoint
p3264
(dp3265
g4
Nsg5
Nsg6
g7
(g8
g9
Ntp3266
Rp3267
(dp3268
g13
g7
(g14
g9
Ntp3269
Rp3270
sg17
g18
sg19
(lp3271
F12.072407
aF54.092808
asg21
(dp3272
sbsg23
Nsg24
Nsg25
g3263
sbsS'192.168.1.8'
p3273
(iprimitives
AccesPoint
p3274
(dp3275
g4
Nsg5
Nsg6
g7
(g8
g9
Ntp3276
Rp3277
(dp3278
g13
g7
(g14
g9
Ntp3279
Rp3280
sg17
g18
sg19
(lp3281
F12.09902644
aF54.09096918
asg21
(dp3282
sbsg23
Nsg24
Nsg25
g3273
sbsS'192.168.1.136'
p3283
(iprimitives
AccesPoint
p3284
(dp3285
g4
Nsg5
Nsg6
g7
(g8
g9
Ntp3286
Rp3287
(dp3288
g13
g7
(g14
g9
Ntp3289
Rp3290
sg17
g18
sg19
(lp3291
F12.117373
aF54.08854
asg21
(dp3292
sbsg23
Nsg24
Nsg25
g3283
sbsS'192.168.1.57'
p3293
(iprimitives
AccesPoint
p3294
(dp3295
g4
Nsg5
I1
sg6
g7
(g8
g9
Ntp3296
Rp3297
(dp3298
g13
g7
(g14
g9
Ntp3299
Rp3300
sg17
g18
sg19
(lp3301
F12.117866
aF54.091793
asg21
(dp3302
sbsg23
S'17.06.2012 (13:58:04)'
p3303
sg24
Nsg25
g3293
sbsS'192.168.1.56'
p3304
(iprimitives
AccesPoint
p3305
(dp3306
g4
Nsg5
I3
sg6
g7
(g8
g9
Ntp3307
Rp3308
(dp3309
g13
g7
(g14
g9
Ntp3310
Rp3311
sg17
g18
sg19
(lp3312
F12.112
aF54.08846
asg21
(dp3313
sbsg23
S'01.04.2012 (18:43:04)'
p3314
sg24
Nsg25
g3304
sbsS'192.168.1.55'
p3315
(iprimitives
AccesPoint
p3316
(dp3317
g4
Nsg5
I3
sg6
g7
(g8
g9
Ntp3318
Rp3319
(dp3320
g13
g7
(g14
g9
Ntp3321
Rp3322
sg17
g18
sg19
(lp3323
F12.11019
aF54.0908
asg21
(dp3324
sbsg23
S'17.06.2012 (06:16:04)'
p3325
sg24
Nsg25
g3315
sbsS'192.168.1.54'
p3326
(iprimitives
AccesPoint
p3327
(dp3328
g62
I1
sg63
S'OpenWrt(backfire 10.03.1)'
p3329
sg4
I0
sg5
I1
sg65
g571
sg6
g7
(g8
g9
Ntp3330
Rp3331
(dp3332
g13
g7
(g14
g9
Ntp3333
Rp3334
sg17
g18
sg19
(lp3335
F12.13598
aF54.08267
asg21
(dp3336
sbsg23
S'17.06.2012 (13:59:04)'
p3337
sg24
I0
sg25
g3326
sbsS'192.168.1.53'
p3338
(iprimitives
AccesPoint
p3339
(dp3340
g4
Nsg5
I3
sg6
g7
(g8
g9
Ntp3341
Rp3342
(dp3343
g13
g7
(g14
g9
Ntp3344
Rp3345
sg17
g18
sg19
(lp3346
F12.1237
aF54.08804
asg21
(dp3347
sbsg23
S'27.03.2011 (16:59:04)'
p3348
sg24
Nsg25
g3338
sbsS'192.168.1.52'
p3349
(iprimitives
AccesPoint
p3350
(dp3351
g62
I0
sg63
S'AirOS(XM.v5.2.1 )'
p3352
sg4
I0
sg5
I1
sg65
g135
sg6
g7
(g8
g9
Ntp3353
Rp3354
(dp3355
g13
g7
(g14
g9
Ntp3356
Rp3357
sg17
g18
sg19
(lp3358
F12.120565
aF54.07244
asg21
(dp3359
sbsg23
S'17.06.2012 (13:58:04)'
p3360
sg24
I0
sg25
g3349
sbsS'192.168.1.51'
p3361
(iprimitives
AccesPoint
p3362
(dp3363
g62
I1
sg63
S'OpenWrt(white russian  0.9-ON5)'
p3364
sg4
I0
sg5
I1
sg65
g260
sg6
g7
(g8
g9
Ntp3365
Rp3366
(dp3367
g13
g7
(g14
g9
Ntp3368
Rp3369
sg17
g18
sg19
(lp3370
F12.157751
aF54.027553
asg21
(dp3371
sbsg23
S'17.06.2012 (13:57:04)'
p3372
sg24
I0
sg25
g3361
sbsS'192.168.1.50'
p3373
(iprimitives
AccesPoint
p3374
(dp3375
g4
Nsg5
I3
sg6
g7
(g8
g9
Ntp3376
Rp3377
(dp3378
g13
g7
(g14
g9
Ntp3379
Rp3380
sg17
g18
sg19
(lp3381
F12.325222
aF53.781149
asg21
(dp3382
sbsg23
S'23.05.2011 (22:37:04)'
p3383
sg24
Nsg25
g3373
sbsS'192.168.1.59'
p3384
(iprimitives
AccesPoint
p3385
(dp3386
g4
Nsg5
I1
sg6
g7
(g8
g9
Ntp3387
Rp3388
(dp3389
g13
g7
(g14
g9
Ntp3390
Rp3391
sg17
g18
sg19
(lp3392
F11.413942
aF53.629559
asg21
(dp3393
sbsg23
S'17.06.2012 (13:59:04)'
p3394
sg24
Nsg25
g3384
sbsS'192.168.1.58'
p3395
(iprimitives
AccesPoint
p3396
(dp3397
g62
I1
sg63
S'OpenWrt(white russian  0.9-ON5)'
p3398
sg4
I0
sg5
I1
sg65
g2250
sg6
g7
(g8
g9
Ntp3399
Rp3400
(dp3401
g13
g7
(g14
g9
Ntp3402
Rp3403
sg17
g18
sg19
(lp3404
F12.158689
aF54.0753
asg21
(dp3405
sbsg23
S'17.06.2012 (13:59:04)'
p3406
sg24
I0
sg25
g3395
sbs.