(dp0
S'192.168.2.69'
p1
(iprimitives
AccesPoint
p2
(dp3
S'wifidog'
p4
NsS'state'
p5
I4
sS'position'
p6
ccopy_reg
_reconstructor
p7
(cgeojson.geometry
Point
p8
c__builtin__
object
p9
Ntp10
Rp11
(dp12
S'crs'
p13
g7
(cgeojson.crs
Default
p14
g9
Ntp15
Rp16
sS'type'
p17
S'Point'
p18
sS'coordinates'
p19
(lp20
S''
p21
ag21
asS'extra'
p22
(dp23
sbsS'lastonline'
p24
NsS'ugw'
p25
NsS'id'
p26
g1
sbsS'192.168.2.68'
p27
(iprimitives
AccesPoint
p28
(dp29
g4
Nsg5
I4
sg6
g7
(g8
g9
Ntp30
Rp31
(dp32
g13
g7
(g14
g9
Ntp33
Rp34
sg17
g18
sg19
(lp35
g21
ag21
asg22
(dp36
sbsg24
Nsg25
Nsg26
g27
sbsS'192.168.2.63'
p37
(iprimitives
AccesPoint
p38
(dp39
g4
Nsg5
I4
sg6
g7
(g8
g9
Ntp40
Rp41
(dp42
g13
g7
(g14
g9
Ntp43
Rp44
sg17
g18
sg19
(lp45
g21
ag21
asg22
(dp46
sbsg24
Nsg25
Nsg26
g37
sbsS'192.168.2.62'
p47
(iprimitives
AccesPoint
p48
(dp49
g4
Nsg5
I4
sg6
g7
(g8
g9
Ntp50
Rp51
(dp52
g13
g7
(g14
g9
Ntp53
Rp54
sg17
g18
sg19
(lp55
g21
ag21
asg22
(dp56
sbsg24
Nsg25
Nsg26
g47
sbsS'192.168.2.61'
p57
(iprimitives
AccesPoint
p58
(dp59
g4
Nsg5
I4
sg6
g7
(g8
g9
Ntp60
Rp61
(dp62
g13
g7
(g14
g9
Ntp63
Rp64
sg17
g18
sg19
(lp65
g21
ag21
asg22
(dp66
sbsg24
Nsg25
Nsg26
g57
sbsS'192.168.2.60'
p67
(iprimitives
AccesPoint
p68
(dp69
g4
Nsg5
Nsg6
g7
(g8
g9
Ntp70
Rp71
(dp72
g13
g7
(g14
g9
Ntp73
Rp74
sg17
g18
sg19
(lp75
F12.155428
aF54.025722
asg22
(dp76
sbsg24
Nsg25
Nsg26
g67
sbsS'192.168.2.67'
p77
(iprimitives
AccesPoint
p78
(dp79
g4
Nsg5
I4
sg6
g7
(g8
g9
Ntp80
Rp81
(dp82
g13
g7
(g14
g9
Ntp83
Rp84
sg17
g18
sg19
(lp85
g21
ag21
asg22
(dp86
sbsg24
Nsg25
Nsg26
g77
sbsS'192.168.2.66'
p87
(iprimitives
AccesPoint
p88
(dp89
g4
Nsg5
I4
sg6
g7
(g8
g9
Ntp90
Rp91
(dp92
g13
g7
(g14
g9
Ntp93
Rp94
sg17
g18
sg19
(lp95
g21
ag21
asg22
(dp96
sbsg24
Nsg25
Nsg26
g87
sbsS'192.168.2.65'
p97
(iprimitives
AccesPoint
p98
(dp99
g4
Nsg5
I4
sg6
g7
(g8
g9
Ntp100
Rp101
(dp102
g13
g7
(g14
g9
Ntp103
Rp104
sg17
g18
sg19
(lp105
g21
ag21
asg22
(dp106
sbsg24
Nsg25
Nsg26
g97
sbsS'192.168.2.64'
p107
(iprimitives
AccesPoint
p108
(dp109
g4
Nsg5
I4
sg6
g7
(g8
g9
Ntp110
Rp111
(dp112
g13
g7
(g14
g9
Ntp113
Rp114
sg17
g18
sg19
(lp115
g21
ag21
asg22
(dp116
sbsg24
Nsg25
Nsg26
g107
sbsS'192.168.1.62'
p117
(iprimitives
AccesPoint
p118
(dp119
g4
Nsg5
I3
sg6
g7
(g8
g9
Ntp120
Rp121
(dp122
g13
g7
(g14
g9
Ntp123
Rp124
sg17
g18
sg19
(lp125
F12.1066
aF54.0926
asg22
(dp126
sbsg24
S'17.06.2012 (13:58:04)'
p127
sg25
Nsg26
g117
sbsS'192.168.1.63'
p128
(iprimitives
AccesPoint
p129
(dp130
g4
Nsg5
I3
sg6
g7
(g8
g9
Ntp131
Rp132
(dp133
g13
g7
(g14
g9
Ntp134
Rp135
sg17
g18
sg19
(lp136
F12.111717
aF54.092107
asg22
(dp137
sbsg24
S'22.08.2010 (18:30:06)'
p138
sg25
Nsg26
g128
sbsS'192.168.1.60'
p139
(iprimitives
AccesPoint
p140
(dp141
g4
Nsg5
I4
sg6
g7
(g8
g9
Ntp142
Rp143
(dp144
g13
g7
(g14
g9
Ntp145
Rp146
sg17
g18
sg19
(lp147
g21
ag21
asg22
(dp148
sbsg24
Nsg25
Nsg26
g139
sbsS'192.168.1.61'
p149
(iprimitives
AccesPoint
p150
(dp151
g4
Nsg5
I4
sg6
g7
(g8
g9
Ntp152
Rp153
(dp154
g13
g7
(g14
g9
Ntp155
Rp156
sg17
g18
sg19
(lp157
g21
ag21
asg22
(dp158
sbsg24
S'30.03.2010 (17:04:04)'
p159
sg25
Nsg26
g149
sbsS'192.168.1.66'
p160
(iprimitives
AccesPoint
p161
(dp162
g4
Nsg5
I3
sg6
g7
(g8
g9
Ntp163
Rp164
(dp165
g13
g7
(g14
g9
Ntp166
Rp167
sg17
g18
sg19
(lp168
F12.1099
aF54.08626
asg22
(dp169
sbsg24
S'17.06.2012 (13:57:04)'
p170
sg25
Nsg26
g160
sbsS'192.168.1.67'
p171
(iprimitives
AccesPoint
p172
(dp173
g4
Nsg5
I3
sg6
g7
(g8
g9
Ntp174
Rp175
(dp176
g13
g7
(g14
g9
Ntp177
Rp178
sg17
g18
sg19
(lp179
F12.156672
aF54.02494
asg22
(dp180
sbsg24
S'17.06.2012 (13:58:04)'
p181
sg25
Nsg26
g171
sbsS'192.168.1.64'
p182
(iprimitives
AccesPoint
p183
(dp184
g4
Nsg5
Nsg6
g7
(g8
g9
Ntp185
Rp186
(dp187
g13
g7
(g14
g9
Ntp188
Rp189
sg17
g18
sg19
(lp190
F12.260965
aF54.017522
asg22
(dp191
sbsg24
Nsg25
Nsg26
g182
sbsS'192.168.1.65'
p192
(iprimitives
AccesPoint
p193
(dp194
g4
Nsg5
Nsg6
g7
(g8
g9
Ntp195
Rp196
(dp197
g13
g7
(g14
g9
Ntp198
Rp199
sg17
g18
sg19
(lp200
F12.336059
aF54.020905
asg22
(dp201
sbsg24
Nsg25
Nsg26
g192
sbsS'192.168.1.68'
p202
(iprimitives
AccesPoint
p203
(dp204
g4
Nsg5
I4
sg6
g7
(g8
g9
Ntp205
Rp206
(dp207
g13
g7
(g14
g9
Ntp208
Rp209
sg17
g18
sg19
(lp210
g21
ag21
asg22
(dp211
sbsg24
Nsg25
Nsg26
g202
sbsS'192.168.1.69'
p212
(iprimitives
AccesPoint
p213
(dp214
g4
Nsg5
I3
sg6
g7
(g8
g9
Ntp215
Rp216
(dp217
g13
g7
(g14
g9
Ntp218
Rp219
sg17
g18
sg19
(lp220
F12.211154
aF54.048495
asg22
(dp221
sbsg24
S'23.10.2011 (16:10:04)'
p222
sg25
Nsg26
g212
sbsS'192.168.1.159'
p223
(iprimitives
AccesPoint
p224
(dp225
g4
Nsg5
I3
sg6
g7
(g8
g9
Ntp226
Rp227
(dp228
g13
g7
(g14
g9
Ntp229
Rp230
sg17
g18
sg19
(lp231
F12.15774
aF54.027811
asg22
(dp232
sbsg24
S'17.06.2012 (13:58:04)'
p233
sg25
Nsg26
g223
sbsS'192.168.1.158'
p234
(iprimitives
AccesPoint
p235
(dp236
g4
Nsg5
I3
sg6
g7
(g8
g9
Ntp237
Rp238
(dp239
g13
g7
(g14
g9
Ntp240
Rp241
sg17
g18
sg19
(lp242
F12.267936
aF53.982774
asg22
(dp243
sbsg24
S'17.06.2012 (13:46:04)'
p244
sg25
Nsg26
g234
sbsS'192.168.1.153'
p245
(iprimitives
AccesPoint
p246
(dp247
g4
Nsg5
Nsg6
g7
(g8
g9
Ntp248
Rp249
(dp250
g13
g7
(g14
g9
Ntp251
Rp252
sg17
g18
sg19
(lp253
F12.101827
aF54.117018
asg22
(dp254
sbsg24
Nsg25
Nsg26
g245
sbsS'192.168.1.152'
p255
(iprimitives
AccesPoint
p256
(dp257
S'vpn'
p258
I0
sS'os'
p259
S'AirOS(XM.v5.3.3 )'
p260
sg4
I0
sg5
I3
sS'board'
p261
S'Ubiquiti NanoStration M5'
p262
sg6
g7
(g8
g9
Ntp263
Rp264
(dp265
g13
g7
(g14
g9
Ntp266
Rp267
sg17
g18
sg19
(lp268
F12.106785
aF54.077871
asg22
(dp269
sbsg24
S'17.06.2012 (13:58:04)'
p270
sg25
I0
sg26
g255
sbsS'192.168.1.151'
p271
(iprimitives
AccesPoint
p272
(dp273
g258
I1
sg259
S'AirOS(XM.v5.3.3 )'
p274
sg4
I0
sg5
I3
sg261
g262
sg6
g7
(g8
g9
Ntp275
Rp276
(dp277
g13
g7
(g14
g9
Ntp278
Rp279
sg17
g18
sg19
(lp280
F12.107942
aF54.07932
asg22
(dp281
sbsg24
S'17.06.2012 (13:58:04)'
p282
sg25
I0
sg26
g271
sbsS'192.168.1.150'
p283
(iprimitives
AccesPoint
p284
(dp285
g4
Nsg5
I4
sg6
g7
(g8
g9
Ntp286
Rp287
(dp288
g13
g7
(g14
g9
Ntp289
Rp290
sg17
g18
sg19
(lp291
g21
ag21
asg22
(dp292
sbsg24
S'10.06.2011 (18:42:04)'
p293
sg25
Nsg26
g283
sbsS'192.168.1.157'
p294
(iprimitives
AccesPoint
p295
(dp296
g258
I0
sg259
S'AirOS(XM.v5.3.3 )'
p297
sg4
I0
sg5
I3
sg261
g262
sg6
g7
(g8
g9
Ntp298
Rp299
(dp300
g13
g7
(g14
g9
Ntp301
Rp302
sg17
g18
sg19
(lp303
F12.106956
aF54.077707
asg22
(dp304
sbsg24
S'17.06.2012 (13:59:04)'
p305
sg25
I0
sg26
g294
sbsS'192.168.1.156'
p306
(iprimitives
AccesPoint
p307
(dp308
g4
Nsg5
I3
sg6
g7
(g8
g9
Ntp309
Rp310
(dp311
g13
g7
(g14
g9
Ntp312
Rp313
sg17
g18
sg19
(lp314
F12.11258
aF54.089627
asg22
(dp315
sbsg24
S'10.06.2012 (21:00:04)'
p316
sg25
Nsg26
g306
sbsS'192.168.1.155'
p317
(iprimitives
AccesPoint
p318
(dp319
g4
Nsg5
I3
sg6
g7
(g8
g9
Ntp320
Rp321
(dp322
g13
g7
(g14
g9
Ntp323
Rp324
sg17
g18
sg19
(lp325
F12.245674
aF53.96924
asg22
(dp326
sbsg24
S'17.06.2012 (13:57:04)'
p327
sg25
Nsg26
g317
sbsS'192.168.1.154'
p328
(iprimitives
AccesPoint
p329
(dp330
g4
Nsg5
I3
sg6
g7
(g8
g9
Ntp331
Rp332
(dp333
g13
g7
(g14
g9
Ntp334
Rp335
sg17
g18
sg19
(lp336
F12.15914
aF54.027612
asg22
(dp337
sbsg24
S'20.03.2012 (10:37:04)'
p338
sg25
Nsg26
g328
sbsS'192.168.1.26'
p339
(iprimitives
AccesPoint
p340
(dp341
g4
Nsg5
I3
sg6
g7
(g8
g9
Ntp342
Rp343
(dp344
g13
g7
(g14
g9
Ntp345
Rp346
sg17
g18
sg19
(lp347
F12.154484
aF54.024638
asg22
(dp348
sbsg24
S'17.06.2012 (13:58:04)'
p349
sg25
Nsg26
g339
sbsS'192.168.1.27'
p350
(iprimitives
AccesPoint
p351
(dp352
g4
Nsg5
I3
sg6
g7
(g8
g9
Ntp353
Rp354
(dp355
g13
g7
(g14
g9
Ntp356
Rp357
sg17
g18
sg19
(lp358
F12.112518
aF54.093131
asg22
(dp359
sbsg24
S'17.06.2012 (13:59:04)'
p360
sg25
Nsg26
g350
sbsS'192.168.1.24'
p361
(iprimitives
AccesPoint
p362
(dp363
g4
Nsg5
I3
sg6
g7
(g8
g9
Ntp364
Rp365
(dp366
g13
g7
(g14
g9
Ntp367
Rp368
sg17
g18
sg19
(lp369
F12.1141
aF54.09095
asg22
(dp370
sbsg24
S'17.10.2011 (08:58:04)'
p371
sg25
Nsg26
g361
sbsS'192.168.1.25'
p372
(iprimitives
AccesPoint
p373
(dp374
g4
Nsg5
I3
sg6
g7
(g8
g9
Ntp375
Rp376
(dp377
g13
g7
(g14
g9
Ntp378
Rp379
sg17
g18
sg19
(lp380
F12.1102
aF54.08626
asg22
(dp381
sbsg24
S'17.06.2012 (13:58:04)'
p382
sg25
Nsg26
g372
sbsS'192.168.1.22'
p383
(iprimitives
AccesPoint
p384
(dp385
g258
I1
sg259
S'OpenWrt(white russian  0.9-ON5)'
p386
sg4
I0
sg5
I3
sg261
S'Linksys WRT54GL'
p387
sg6
g7
(g8
g9
Ntp388
Rp389
(dp390
g13
g7
(g14
g9
Ntp391
Rp392
sg17
g18
sg19
(lp393
F12.265683
aF53.98519
asg22
(dp394
sbsg24
S'17.06.2012 (13:58:04)'
p395
sg25
I0
sg26
g383
sbsS'192.168.1.23'
p396
(iprimitives
AccesPoint
p397
(dp398
g258
I1
sg259
S'OpenWrt(backfire 10.03.1)'
p399
sg4
I1
sg5
I3
sg261
S'TP-LINK TL-WR1043ND'
p400
sg6
g7
(g8
g9
Ntp401
Rp402
(dp403
g13
g7
(g14
g9
Ntp404
Rp405
sg17
g18
sg19
(lp406
F12.11482
aF54.08787
asg22
(dp407
sbsg24
S'17.06.2012 (13:58:04)'
p408
sg25
I0
sg26
g396
sbsS'192.168.1.20'
p409
(iprimitives
AccesPoint
p410
(dp411
g4
Nsg5
I3
sg6
g7
(g8
g9
Ntp412
Rp413
(dp414
g13
g7
(g14
g9
Ntp415
Rp416
sg17
g18
sg19
(lp417
F12.157359
aF54.026503
asg22
(dp418
sbsg24
S'17.06.2012 (13:59:04)'
p419
sg25
Nsg26
g409
sbsS'192.168.1.21'
p420
(iprimitives
AccesPoint
p421
(dp422
g4
Nsg5
I4
sg6
g7
(g8
g9
Ntp423
Rp424
(dp425
g13
g7
(g14
g9
Ntp426
Rp427
sg17
g18
sg19
(lp428
g21
ag21
asg22
(dp429
sbsg24
S'17.12.2011 (11:25:04)'
p430
sg25
Nsg26
g420
sbsS'192.168.1.28'
p431
(iprimitives
AccesPoint
p432
(dp433
g4
Nsg5
I3
sg6
g7
(g8
g9
Ntp434
Rp435
(dp436
g13
g7
(g14
g9
Ntp437
Rp438
sg17
g18
sg19
(lp439
F12.118167
aF54.08837
asg22
(dp440
sbsg24
S'02.04.2012 (06:24:04)'
p441
sg25
Nsg26
g431
sbsS'192.168.1.29'
p442
(iprimitives
AccesPoint
p443
(dp444
g4
Nsg5
I3
sg6
g7
(g8
g9
Ntp445
Rp446
(dp447
g13
g7
(g14
g9
Ntp448
Rp449
sg17
g18
sg19
(lp450
F12.117534
aF54.088395
asg22
(dp451
sbsg24
S'12.02.2012 (09:47:04)'
p452
sg25
Nsg26
g442
sbsS'192.168.2.12'
p453
(iprimitives
AccesPoint
p454
(dp455
g4
Nsg5
I3
sg6
g7
(g8
g9
Ntp456
Rp457
(dp458
g13
g7
(g14
g9
Ntp459
Rp460
sg17
g18
sg19
(lp461
F12.136493
aF54.077729
asg22
(dp462
sbsg24
S'05.01.2012 (11:40:04)'
p463
sg25
Nsg26
g453
sbsS'192.168.2.13'
p464
(iprimitives
AccesPoint
p465
(dp466
g4
Nsg5
Nsg6
g7
(g8
g9
Ntp467
Rp468
(dp469
g13
g7
(g14
g9
Ntp470
Rp471
sg17
g18
sg19
(lp472
F12.15857
aF54.02775
asg22
(dp473
sbsg24
Nsg25
Nsg26
g464
sbsS'192.168.2.10'
p474
(iprimitives
AccesPoint
p475
(dp476
g4
Nsg5
I3
sg6
g7
(g8
g9
Ntp477
Rp478
(dp479
g13
g7
(g14
g9
Ntp480
Rp481
sg17
g18
sg19
(lp482
F12.123116
aF54.09136
asg22
(dp483
sbsg24
S'17.06.2012 (13:58:04)'
p484
sg25
Nsg26
g474
sbsS'192.168.2.11'
p485
(iprimitives
AccesPoint
p486
(dp487
g4
Nsg5
I3
sg6
g7
(g8
g9
Ntp488
Rp489
(dp490
g13
g7
(g14
g9
Ntp491
Rp492
sg17
g18
sg19
(lp493
F12.1332
aF54.085
asg22
(dp494
sbsg24
S'17.06.2012 (13:58:04)'
p495
sg25
Nsg26
g485
sbsS'192.168.2.16'
p496
(iprimitives
AccesPoint
p497
(dp498
g258
I0
sg259
S'AirOS(XM.v5.3.3 )'
p499
sg4
I0
sg5
I3
sg261
S'Ubiquiti NanoBridge M5'
p500
sg6
g7
(g8
g9
Ntp501
Rp502
(dp503
g13
g7
(g14
g9
Ntp504
Rp505
sg17
g18
sg19
(lp506
F12.121503
aF54.087187
asg22
(dp507
sbsg24
S'04.06.2012 (20:16:04)'
p508
sg25
I0
sg26
g496
sbsS'192.168.2.17'
p509
(iprimitives
AccesPoint
p510
(dp511
g4
Nsg5
I3
sg6
g7
(g8
g9
Ntp512
Rp513
(dp514
g13
g7
(g14
g9
Ntp515
Rp516
sg17
g18
sg19
(lp517
F12.1334
aF54.085
asg22
(dp518
sbsg24
S'17.06.2012 (13:57:04)'
p519
sg25
Nsg26
g509
sbsS'192.168.2.14'
p520
(iprimitives
AccesPoint
p521
(dp522
g4
Nsg5
Nsg6
g7
(g8
g9
Ntp523
Rp524
(dp525
g13
g7
(g14
g9
Ntp526
Rp527
sg17
g18
sg19
(lp528
F12.15857
aF54.02775
asg22
(dp529
sbsg24
Nsg25
Nsg26
g520
sbsS'192.168.2.15'
p530
(iprimitives
AccesPoint
p531
(dp532
g4
Nsg5
Nsg6
g7
(g8
g9
Ntp533
Rp534
(dp535
g13
g7
(g14
g9
Ntp536
Rp537
sg17
g18
sg19
(lp538
F12.15857
aF54.02775
asg22
(dp539
sbsg24
Nsg25
Nsg26
g530
sbsS'192.168.2.18'
p540
(iprimitives
AccesPoint
p541
(dp542
g258
I0
sg259
S'AirOS(XM.v5.2.1 )'
p543
sg4
I0
sg5
I3
sg261
g262
sg6
g7
(g8
g9
Ntp544
Rp545
(dp546
g13
g7
(g14
g9
Ntp547
Rp548
sg17
g18
sg19
(lp549
F12.136543
aF54.077759
asg22
(dp550
sbsg24
S'17.06.2012 (13:58:04)'
p551
sg25
I0
sg26
g540
sbsS'192.168.2.19'
p552
(iprimitives
AccesPoint
p553
(dp554
g258
I1
sg259
S'OpenWrt(backfire 10.03.1)'
p555
sg4
I1
sg5
I3
sg261
g400
sg6
g7
(g8
g9
Ntp556
Rp557
(dp558
g13
g7
(g14
g9
Ntp559
Rp560
sg17
g18
sg19
(lp561
F12.136533
aF54.077729
asg22
(dp562
sbsg24
S'17.06.2012 (13:59:04)'
p563
sg25
I0
sg26
g552
sbsS'192.168.2.85'
p564
(iprimitives
AccesPoint
p565
(dp566
g4
Nsg5
I4
sg6
g7
(g8
g9
Ntp567
Rp568
(dp569
g13
g7
(g14
g9
Ntp570
Rp571
sg17
g18
sg19
(lp572
g21
ag21
asg22
(dp573
sbsg24
Nsg25
Nsg26
g564
sbsS'192.168.2.84'
p574
(iprimitives
AccesPoint
p575
(dp576
g4
Nsg5
I4
sg6
g7
(g8
g9
Ntp577
Rp578
(dp579
g13
g7
(g14
g9
Ntp580
Rp581
sg17
g18
sg19
(lp582
g21
ag21
asg22
(dp583
sbsg24
Nsg25
Nsg26
g574
sbsS'192.168.2.87'
p584
(iprimitives
AccesPoint
p585
(dp586
g4
Nsg5
I4
sg6
g7
(g8
g9
Ntp587
Rp588
(dp589
g13
g7
(g14
g9
Ntp590
Rp591
sg17
g18
sg19
(lp592
g21
ag21
asg22
(dp593
sbsg24
Nsg25
Nsg26
g584
sbsS'192.168.2.86'
p594
(iprimitives
AccesPoint
p595
(dp596
g4
Nsg5
I4
sg6
g7
(g8
g9
Ntp597
Rp598
(dp599
g13
g7
(g14
g9
Ntp600
Rp601
sg17
g18
sg19
(lp602
g21
ag21
asg22
(dp603
sbsg24
Nsg25
Nsg26
g594
sbsS'192.168.2.81'
p604
(iprimitives
AccesPoint
p605
(dp606
g4
Nsg5
I4
sg6
g7
(g8
g9
Ntp607
Rp608
(dp609
g13
g7
(g14
g9
Ntp610
Rp611
sg17
g18
sg19
(lp612
g21
ag21
asg22
(dp613
sbsg24
Nsg25
Nsg26
g604
sbsS'192.168.2.80'
p614
(iprimitives
AccesPoint
p615
(dp616
g4
Nsg5
I4
sg6
g7
(g8
g9
Ntp617
Rp618
(dp619
g13
g7
(g14
g9
Ntp620
Rp621
sg17
g18
sg19
(lp622
g21
ag21
asg22
(dp623
sbsg24
Nsg25
Nsg26
g614
sbsS'192.168.2.83'
p624
(iprimitives
AccesPoint
p625
(dp626
g4
Nsg5
I4
sg6
g7
(g8
g9
Ntp627
Rp628
(dp629
g13
g7
(g14
g9
Ntp630
Rp631
sg17
g18
sg19
(lp632
g21
ag21
asg22
(dp633
sbsg24
Nsg25
Nsg26
g624
sbsS'192.168.2.82'
p634
(iprimitives
AccesPoint
p635
(dp636
g4
Nsg5
I4
sg6
g7
(g8
g9
Ntp637
Rp638
(dp639
g13
g7
(g14
g9
Ntp640
Rp641
sg17
g18
sg19
(lp642
g21
ag21
asg22
(dp643
sbsg24
Nsg25
Nsg26
g634
sbsS'192.168.2.89'
p644
(iprimitives
AccesPoint
p645
(dp646
g4
Nsg5
I4
sg6
g7
(g8
g9
Ntp647
Rp648
(dp649
g13
g7
(g14
g9
Ntp650
Rp651
sg17
g18
sg19
(lp652
g21
ag21
asg22
(dp653
sbsg24
Nsg25
Nsg26
g644
sbsS'192.168.2.88'
p654
(iprimitives
AccesPoint
p655
(dp656
g4
Nsg5
I4
sg6
g7
(g8
g9
Ntp657
Rp658
(dp659
g13
g7
(g14
g9
Ntp660
Rp661
sg17
g18
sg19
(lp662
g21
ag21
asg22
(dp663
sbsg24
Nsg25
Nsg26
g654
sbsS'192.168.1.203'
p664
(iprimitives
AccesPoint
p665
(dp666
g4
Nsg5
I4
sg6
g7
(g8
g9
Ntp667
Rp668
(dp669
g13
g7
(g14
g9
Ntp670
Rp671
sg17
g18
sg19
(lp672
g21
ag21
asg22
(dp673
sbsg24
S'03.09.2010 (13:28:04)'
p674
sg25
Nsg26
g664
sbsS'192.168.1.202'
p675
(iprimitives
AccesPoint
p676
(dp677
g4
Nsg5
I3
sg6
g7
(g8
g9
Ntp678
Rp679
(dp680
g13
g7
(g14
g9
Ntp681
Rp682
sg17
g18
sg19
(lp683
F12.123295
aF54.091227
asg22
(dp684
sbsg24
S'17.06.2012 (13:58:04)'
p685
sg25
Nsg26
g675
sbsS'192.168.1.201'
p686
(iprimitives
AccesPoint
p687
(dp688
g4
Nsg5
I3
sg6
g7
(g8
g9
Ntp689
Rp690
(dp691
g13
g7
(g14
g9
Ntp692
Rp693
sg17
g18
sg19
(lp694
F12.123245
aF54.09122
asg22
(dp695
sbsg24
S'17.06.2012 (13:58:04)'
p696
sg25
Nsg26
g686
sbsS'192.168.1.200'
p697
(iprimitives
AccesPoint
p698
(dp699
g4
Nsg5
I3
sg6
g7
(g8
g9
Ntp700
Rp701
(dp702
g13
g7
(g14
g9
Ntp703
Rp704
sg17
g18
sg19
(lp705
F12.150007
aF54.115496
asg22
(dp706
sbsg24
S'16.06.2012 (15:15:04)'
p707
sg25
Nsg26
g697
sbsS'192.168.1.207'
p708
(iprimitives
AccesPoint
p709
(dp710
g4
Nsg5
I3
sg6
g7
(g8
g9
Ntp711
Rp712
(dp713
g13
g7
(g14
g9
Ntp714
Rp715
sg17
g18
sg19
(lp716
F12.170894
aF54.02823
asg22
(dp717
sbsg24
S'19.11.2011 (10:22:04)'
p718
sg25
Nsg26
g708
sbsS'192.168.1.206'
p719
(iprimitives
AccesPoint
p720
(dp721
g4
Nsg5
I3
sg6
g7
(g8
g9
Ntp722
Rp723
(dp724
g13
g7
(g14
g9
Ntp725
Rp726
sg17
g18
sg19
(lp727
F12.118952
aF54.075073
asg22
(dp728
sbsg24
S'13.01.2012 (10:40:04)'
p729
sg25
Nsg26
g719
sbsS'192.168.1.205'
p730
(iprimitives
AccesPoint
p731
(dp732
g258
I0
sg259
S'OpenWrt(backfire 10.03.1)'
p733
sg4
I0
sg5
I3
sg261
g400
sg6
g7
(g8
g9
Ntp734
Rp735
(dp736
g13
g7
(g14
g9
Ntp737
Rp738
sg17
g18
sg19
(lp739
F11.41611
aF53.63082
asg22
(dp740
sbsg24
S'17.06.2012 (13:58:04)'
p741
sg25
I1
sg26
g730
sbsS'192.168.1.204'
p742
(iprimitives
AccesPoint
p743
(dp744
g4
Nsg5
I3
sg6
g7
(g8
g9
Ntp745
Rp746
(dp747
g13
g7
(g14
g9
Ntp748
Rp749
sg17
g18
sg19
(lp750
F12.211905
aF54.049009
asg22
(dp751
sbsg24
S'31.03.2012 (07:40:04)'
p752
sg25
Nsg26
g742
sbsS'192.168.1.209'
p753
(iprimitives
AccesPoint
p754
(dp755
g4
Nsg5
I3
sg6
g7
(g8
g9
Ntp756
Rp757
(dp758
g13
g7
(g14
g9
Ntp759
Rp760
sg17
g18
sg19
(lp761
F12.155128
aF54.023781
asg22
(dp762
sbsg24
S'02.03.2012 (07:16:04)'
p763
sg25
Nsg26
g753
sbsS'192.168.1.208'
p764
(iprimitives
AccesPoint
p765
(dp766
g4
Nsg5
I3
sg6
g7
(g8
g9
Ntp767
Rp768
(dp769
g13
g7
(g14
g9
Ntp770
Rp771
sg17
g18
sg19
(lp772
F12.156909
aF54.02639
asg22
(dp773
sbsg24
S'17.06.2012 (13:59:04)'
p774
sg25
Nsg26
g764
sbsS'192.168.1.7'
p775
(iprimitives
AccesPoint
p776
(dp777
g4
Nsg5
I3
sg6
g7
(g8
g9
Ntp778
Rp779
(dp780
g13
g7
(g14
g9
Ntp781
Rp782
sg17
g18
sg19
(lp783
F12.116804
aF54.090384
asg22
(dp784
sbsg24
S'01.09.2010 (14:13:04)'
p785
sg25
Nsg26
g775
sbsS'192.168.1.6'
p786
(iprimitives
AccesPoint
p787
(dp788
g4
Nsg5
I4
sg6
g7
(g8
g9
Ntp789
Rp790
(dp791
g13
g7
(g14
g9
Ntp792
Rp793
sg17
g18
sg19
(lp794
g21
ag21
asg22
(dp795
sbsg24
S'18.09.2011 (15:54:04)'
p796
sg25
Nsg26
g786
sbsS'192.168.1.5'
p797
(iprimitives
AccesPoint
p798
(dp799
g4
Nsg5
I4
sg6
g7
(g8
g9
Ntp800
Rp801
(dp802
g13
g7
(g14
g9
Ntp803
Rp804
sg17
g18
sg19
(lp805
g21
ag21
asg22
(dp806
sbsg24
S'28.09.2011 (15:49:04)'
p807
sg25
Nsg26
g797
sbsS'192.168.1.4'
p808
(iprimitives
AccesPoint
p809
(dp810
g4
Nsg5
I4
sg6
g7
(g8
g9
Ntp811
Rp812
(dp813
g13
g7
(g14
g9
Ntp814
Rp815
sg17
g18
sg19
(lp816
g21
ag21
asg22
(dp817
sbsg24
S'09.12.2011 (12:00:04)'
p818
sg25
Nsg26
g808
sbsS'192.168.1.3'
p819
(iprimitives
AccesPoint
p820
(dp821
g4
Nsg5
I3
sg6
g7
(g8
g9
Ntp822
Rp823
(dp824
g13
g7
(g14
g9
Ntp825
Rp826
sg17
g18
sg19
(lp827
F12.09902644
aF54.09096918
asg22
(dp828
sbsg24
S'11.05.2011 (13:16:04)'
p829
sg25
Nsg26
g819
sbsS'192.168.1.2'
p830
(iprimitives
AccesPoint
p831
(dp832
g4
Nsg5
Nsg6
g7
(g8
g9
Ntp833
Rp834
(dp835
g13
g7
(g14
g9
Ntp836
Rp837
sg17
g18
sg19
(lp838
F12.111028
aF54.086632
asg22
(dp839
sbsg24
Nsg25
Nsg26
g830
sbsS'192.168.1.1'
p840
(iprimitives
AccesPoint
p841
(dp842
g4
Nsg5
I4
sg6
g7
(g8
g9
Ntp843
Rp844
(dp845
g13
g7
(g14
g9
Ntp846
Rp847
sg17
g18
sg19
(lp848
g21
ag21
asg22
(dp849
sbsg24
Nsg25
Nsg26
g840
sbsS'192.168.1.9'
p850
(iprimitives
AccesPoint
p851
(dp852
g4
Nsg5
Nsg6
g7
(g8
g9
Ntp853
Rp854
(dp855
g13
g7
(g14
g9
Ntp856
Rp857
sg17
g18
sg19
(lp858
F12.072407
aF54.092808
asg22
(dp859
sbsg24
Nsg25
Nsg26
g850
sbsS'192.168.1.8'
p860
(iprimitives
AccesPoint
p861
(dp862
g4
Nsg5
Nsg6
g7
(g8
g9
Ntp863
Rp864
(dp865
g13
g7
(g14
g9
Ntp866
Rp867
sg17
g18
sg19
(lp868
F12.09902644
aF54.09096918
asg22
(dp869
sbsg24
Nsg25
Nsg26
g860
sbsS'192.168.1.119'
p870
(iprimitives
AccesPoint
p871
(dp872
g4
Nsg5
I3
sg6
g7
(g8
g9
Ntp873
Rp874
(dp875
g13
g7
(g14
g9
Ntp876
Rp877
sg17
g18
sg19
(lp878
F12.11466
aF54.09104
asg22
(dp879
sbsg24
S'17.02.2010 (05:10:08)'
p880
sg25
Nsg26
g870
sbsS'192.168.1.118'
p881
(iprimitives
AccesPoint
p882
(dp883
g4
Nsg5
I3
sg6
g7
(g8
g9
Ntp884
Rp885
(dp886
g13
g7
(g14
g9
Ntp887
Rp888
sg17
g18
sg19
(lp889
F12.114927
aF54.087829
asg22
(dp890
sbsg24
S'17.06.2012 (13:58:04)'
p891
sg25
Nsg26
g881
sbsS'192.168.1.117'
p892
(iprimitives
AccesPoint
p893
(dp894
g4
Nsg5
Nsg6
g7
(g8
g9
Ntp895
Rp896
(dp897
g13
g7
(g14
g9
Ntp898
Rp899
sg17
g18
sg19
(lp900
F12.110621
aF54.090421
asg22
(dp901
sbsg24
Nsg25
Nsg26
g892
sbsS'192.168.1.116'
p902
(iprimitives
AccesPoint
p903
(dp904
g258
I0
sg259
S'AirOS(XM.v5.3.3 )'
p905
sg4
I0
sg5
I3
sg261
g500
sg6
g7
(g8
g9
Ntp906
Rp907
(dp908
g13
g7
(g14
g9
Ntp909
Rp910
sg17
g18
sg19
(lp911
F11.421235
aF53.700792
asg22
(dp912
sbsg24
S'17.06.2012 (13:57:04)'
p913
sg25
I0
sg26
g902
sbsS'192.168.1.115'
p914
(iprimitives
AccesPoint
p915
(dp916
g4
Nsg5
I3
sg6
g7
(g8
g9
Ntp917
Rp918
(dp919
g13
g7
(g14
g9
Ntp920
Rp921
sg17
g18
sg19
(lp922
F12.102045
aF54.117033
asg22
(dp923
sbsg24
S'25.06.2011 (20:02:04)'
p924
sg25
Nsg26
g914
sbsS'192.168.1.114'
p925
(iprimitives
AccesPoint
p926
(dp927
g4
Nsg5
I3
sg6
g7
(g8
g9
Ntp928
Rp929
(dp930
g13
g7
(g14
g9
Ntp931
Rp932
sg17
g18
sg19
(lp933
F12.156051
aF54.027887
asg22
(dp934
sbsg24
S'09.04.2012 (17:38:04)'
p935
sg25
Nsg26
g925
sbsS'192.168.1.113'
p936
(iprimitives
AccesPoint
p937
(dp938
g258
I0
sg259
S'AirOS(XM.v5.3.3 )'
p939
sg4
I0
sg5
I3
sg261
g500
sg6
g7
(g8
g9
Ntp940
Rp941
(dp942
g13
g7
(g14
g9
Ntp943
Rp944
sg17
g18
sg19
(lp945
F11.413947
aF53.629677
asg22
(dp946
sbsg24
S'17.06.2012 (13:58:04)'
p947
sg25
I0
sg26
g936
sbsS'192.168.1.112'
p948
(iprimitives
AccesPoint
p949
(dp950
g4
Nsg5
I3
sg6
g7
(g8
g9
Ntp951
Rp952
(dp953
g13
g7
(g14
g9
Ntp954
Rp955
sg17
g18
sg19
(lp956
F12.155771
aF54.025192
asg22
(dp957
sbsg24
S'17.06.2012 (13:59:04)'
p958
sg25
Nsg26
g948
sbsS'192.168.1.111'
p959
(iprimitives
AccesPoint
p960
(dp961
g4
Nsg5
I3
sg6
g7
(g8
g9
Ntp962
Rp963
(dp964
g13
g7
(g14
g9
Ntp965
Rp966
sg17
g18
sg19
(lp967
F12.189857
aF54.005511
asg22
(dp968
sbsg24
S'17.06.2012 (13:58:04)'
p969
sg25
Nsg26
g959
sbsS'192.168.1.110'
p970
(iprimitives
AccesPoint
p971
(dp972
g258
I0
sg259
S'AirOS(XM.v5.2.1 )'
p973
sg4
I0
sg5
I3
sg261
g262
sg6
g7
(g8
g9
Ntp974
Rp975
(dp976
g13
g7
(g14
g9
Ntp977
Rp978
sg17
g18
sg19
(lp979
F12.1285
aF54.082
asg22
(dp980
sbsg24
S'17.06.2012 (13:58:04)'
p981
sg25
I0
sg26
g970
sbsS'192.168.1.80'
p982
(iprimitives
AccesPoint
p983
(dp984
g258
I1
sg259
S'OpenWrt(white russian  0.9-ON5)'
p985
sg4
I0
sg5
I3
sg261
g387
sg6
g7
(g8
g9
Ntp986
Rp987
(dp988
g13
g7
(g14
g9
Ntp989
Rp990
sg17
g18
sg19
(lp991
F12.155063
aF54.027033
asg22
(dp992
sbsg24
S'17.06.2012 (13:58:04)'
p993
sg25
I0
sg26
g982
sbsS'192.168.1.81'
p994
(iprimitives
AccesPoint
p995
(dp996
g4
Nsg5
I3
sg6
g7
(g8
g9
Ntp997
Rp998
(dp999
g13
g7
(g14
g9
Ntp1000
Rp1001
sg17
g18
sg19
(lp1002
F12.11149
aF54.09244
asg22
(dp1003
sbsg24
S'01.09.2011 (05:09:04)'
p1004
sg25
Nsg26
g994
sbsS'192.168.1.82'
p1005
(iprimitives
AccesPoint
p1006
(dp1007
g4
Nsg5
I4
sg6
g7
(g8
g9
Ntp1008
Rp1009
(dp1010
g13
g7
(g14
g9
Ntp1011
Rp1012
sg17
g18
sg19
(lp1013
g21
ag21
asg22
(dp1014
sbsg24
S'04.06.2012 (19:42:04)'
p1015
sg25
Nsg26
g1005
sbsS'192.168.1.83'
p1016
(iprimitives
AccesPoint
p1017
(dp1018
g4
Nsg5
I3
sg6
g7
(g8
g9
Ntp1019
Rp1020
(dp1021
g13
g7
(g14
g9
Ntp1022
Rp1023
sg17
g18
sg19
(lp1024
F12.117212
aF54.091775
asg22
(dp1025
sbsg24
S'21.05.2011 (14:10:04)'
p1026
sg25
Nsg26
g1016
sbsS'192.168.1.84'
p1027
(iprimitives
AccesPoint
p1028
(dp1029
g4
Nsg5
I3
sg6
g7
(g8
g9
Ntp1030
Rp1031
(dp1032
g13
g7
(g14
g9
Ntp1033
Rp1034
sg17
g18
sg19
(lp1035
F12.213771
aF54.048064
asg22
(dp1036
sbsg24
S'10.08.2011 (14:26:04)'
p1037
sg25
Nsg26
g1027
sbsS'192.168.1.85'
p1038
(iprimitives
AccesPoint
p1039
(dp1040
g4
Nsg5
I3
sg6
g7
(g8
g9
Ntp1041
Rp1042
(dp1043
g13
g7
(g14
g9
Ntp1044
Rp1045
sg17
g18
sg19
(lp1046
F12.111373
aF54.092363
asg22
(dp1047
sbsg24
S'17.06.2012 (08:09:04)'
p1048
sg25
Nsg26
g1038
sbsS'192.168.1.86'
p1049
(iprimitives
AccesPoint
p1050
(dp1051
g258
I1
sg259
S'OpenWrt(white russian  0.9-ON5)'
p1052
sg4
I0
sg5
I3
sg261
g387
sg6
g7
(g8
g9
Ntp1053
Rp1054
(dp1055
g13
g7
(g14
g9
Ntp1056
Rp1057
sg17
g18
sg19
(lp1058
F12.117405
aF54.091712
asg22
(dp1059
sbsg24
S'17.06.2012 (13:57:04)'
p1060
sg25
I0
sg26
g1049
sbsS'192.168.1.87'
p1061
(iprimitives
AccesPoint
p1062
(dp1063
g4
Nsg5
I3
sg6
g7
(g8
g9
Ntp1064
Rp1065
(dp1066
g13
g7
(g14
g9
Ntp1067
Rp1068
sg17
g18
sg19
(lp1069
F12.158153
aF54.027638
asg22
(dp1070
sbsg24
S'16.06.2012 (21:56:04)'
p1071
sg25
Nsg26
g1061
sbsS'192.168.1.88'
p1072
(iprimitives
AccesPoint
p1073
(dp1074
g4
Nsg5
I3
sg6
g7
(g8
g9
Ntp1075
Rp1076
(dp1077
g13
g7
(g14
g9
Ntp1078
Rp1079
sg17
g18
sg19
(lp1080
F12.0989620685
aF54.0908055793
asg22
(dp1081
sbsg24
S'07.03.2012 (11:12:04)'
p1082
sg25
Nsg26
g1072
sbsS'192.168.1.89'
p1083
(iprimitives
AccesPoint
p1084
(dp1085
g4
Nsg5
I3
sg6
g7
(g8
g9
Ntp1086
Rp1087
(dp1088
g13
g7
(g14
g9
Ntp1089
Rp1090
sg17
g18
sg19
(lp1091
F12.1065
aF54.0925
asg22
(dp1092
sbsg24
S'17.06.2012 (13:57:04)'
p1093
sg25
Nsg26
g1083
sbsS'192.168.2.56'
p1094
(iprimitives
AccesPoint
p1095
(dp1096
g4
Nsg5
I4
sg6
g7
(g8
g9
Ntp1097
Rp1098
(dp1099
g13
g7
(g14
g9
Ntp1100
Rp1101
sg17
g18
sg19
(lp1102
g21
ag21
asg22
(dp1103
sbsg24
Nsg25
Nsg26
g1094
sbsS'192.168.2.57'
p1104
(iprimitives
AccesPoint
p1105
(dp1106
g4
Nsg5
Nsg6
g7
(g8
g9
Ntp1107
Rp1108
(dp1109
g13
g7
(g14
g9
Ntp1110
Rp1111
sg17
g18
sg19
(lp1112
F12.118499
aF54.089846
asg22
(dp1113
sbsg24
Nsg25
Nsg26
g1104
sbsS'192.168.2.54'
p1114
(iprimitives
AccesPoint
p1115
(dp1116
g4
Nsg5
I4
sg6
g7
(g8
g9
Ntp1117
Rp1118
(dp1119
g13
g7
(g14
g9
Ntp1120
Rp1121
sg17
g18
sg19
(lp1122
g21
ag21
asg22
(dp1123
sbsg24
Nsg25
Nsg26
g1114
sbsS'192.168.2.55'
p1124
(iprimitives
AccesPoint
p1125
(dp1126
g4
Nsg5
Nsg6
g7
(g8
g9
Ntp1127
Rp1128
(dp1129
g13
g7
(g14
g9
Ntp1130
Rp1131
sg17
g18
sg19
(lp1132
F12.111064
aF54.089346
asg22
(dp1133
sbsg24
Nsg25
Nsg26
g1124
sbsS'192.168.2.52'
p1134
(iprimitives
AccesPoint
p1135
(dp1136
g258
I1
sg259
S'OpenWrt(white russian  0.9-ON5)'
p1137
sg4
I0
sg5
Nsg261
S'Linksys WRT54G'
p1138
sg6
g7
(g8
g9
Ntp1139
Rp1140
(dp1141
g13
g7
(g14
g9
Ntp1142
Rp1143
sg17
g18
sg19
(lp1144
F12.118805
aF54.091567
asg22
(dp1145
sbsg24
Nsg25
I0
sg26
g1134
sbsS'192.168.2.53'
p1146
(iprimitives
AccesPoint
p1147
(dp1148
g4
Nsg5
I4
sg6
g7
(g8
g9
Ntp1149
Rp1150
(dp1151
g13
g7
(g14
g9
Ntp1152
Rp1153
sg17
g18
sg19
(lp1154
g21
ag21
asg22
(dp1155
sbsg24
Nsg25
Nsg26
g1146
sbsS'192.168.2.50'
p1156
(iprimitives
AccesPoint
p1157
(dp1158
g4
Nsg5
Nsg6
g7
(g8
g9
Ntp1159
Rp1160
(dp1161
g13
g7
(g14
g9
Ntp1162
Rp1163
sg17
g18
sg19
(lp1164
F12.12865
aF54.08201
asg22
(dp1165
sbsg24
Nsg25
Nsg26
g1156
sbsS'192.168.2.51'
p1166
(iprimitives
AccesPoint
p1167
(dp1168
g4
Nsg5
Nsg6
g7
(g8
g9
Ntp1169
Rp1170
(dp1171
g13
g7
(g14
g9
Ntp1172
Rp1173
sg17
g18
sg19
(lp1174
F12.12071
aF54.08695
asg22
(dp1175
sbsg24
Nsg25
Nsg26
g1166
sbsS'192.168.2.58'
p1176
(iprimitives
AccesPoint
p1177
(dp1178
g4
Nsg5
Nsg6
g7
(g8
g9
Ntp1179
Rp1180
(dp1181
g13
g7
(g14
g9
Ntp1182
Rp1183
sg17
g18
sg19
(lp1184
F12.106697
aF54.085575
asg22
(dp1185
sbsg24
Nsg25
Nsg26
g1176
sbsS'192.168.2.59'
p1186
(iprimitives
AccesPoint
p1187
(dp1188
g4
Nsg5
Nsg6
g7
(g8
g9
Ntp1189
Rp1190
(dp1191
g13
g7
(g14
g9
Ntp1192
Rp1193
sg17
g18
sg19
(lp1194
F12.26807
aF53.982799
asg22
(dp1195
sbsg24
Nsg25
Nsg26
g1186
sbsS'192.168.1.79'
p1196
(iprimitives
AccesPoint
p1197
(dp1198
g258
I0
sg259
S'OpenWrt(backfire 10.03.1)'
p1199
sg4
I0
sg5
I3
sg261
S'Ubiquiti Bullet M'
p1200
sg6
g7
(g8
g9
Ntp1201
Rp1202
(dp1203
g13
g7
(g14
g9
Ntp1204
Rp1205
sg17
g18
sg19
(lp1206
F12.1333
aF54.0849
asg22
(dp1207
sbsg24
S'17.06.2012 (13:58:04)'
p1208
sg25
I0
sg26
g1196
sbsS'192.168.1.78'
p1209
(iprimitives
AccesPoint
p1210
(dp1211
g4
Nsg5
I4
sg6
Nsg24
S'18.01.2011 (13:44:04)'
p1212
sg25
Nsg26
g1209
sbsS'192.168.1.75'
p1213
(iprimitives
AccesPoint
p1214
(dp1215
g258
I0
sg259
S'OpenWrt(white russian  0.9-ON5)'
p1216
sg4
I0
sg5
I3
sg261
g1138
sg6
g7
(g8
g9
Ntp1217
Rp1218
(dp1219
g13
g7
(g14
g9
Ntp1220
Rp1221
sg17
g18
sg19
(lp1222
F12.11039
aF54.0906
asg22
(dp1223
sbsg24
S'17.06.2012 (06:16:04)'
p1224
sg25
I0
sg26
g1213
sbsS'192.168.1.74'
p1225
(iprimitives
AccesPoint
p1226
(dp1227
g258
I1
sg259
S'OpenWrt(backfire 10.03.1)'
p1228
sg4
I0
sg5
I3
sg261
S'Ubiquiti Nanostation M'
p1229
sg6
g7
(g8
g9
Ntp1230
Rp1231
(dp1232
g13
g7
(g14
g9
Ntp1233
Rp1234
sg17
g18
sg19
(lp1235
F12.138614
aF54.076505
asg22
(dp1236
sbsg24
S'10.08.2011 (18:41:04)'
p1237
sg25
I0
sg26
g1225
sbsS'192.168.1.77'
p1238
(iprimitives
AccesPoint
p1239
(dp1240
g4
Nsg5
I3
sg6
g7
(g8
g9
Ntp1241
Rp1242
(dp1243
g13
g7
(g14
g9
Ntp1244
Rp1245
sg17
g18
sg19
(lp1246
F12.266901
aF53.983241
asg22
(dp1247
sbsg24
S'17.06.2012 (13:57:04)'
p1248
sg25
Nsg26
g1238
sbsS'192.168.1.76'
p1249
(iprimitives
AccesPoint
p1250
(dp1251
g4
Nsg5
I3
sg6
g7
(g8
g9
Ntp1252
Rp1253
(dp1254
g13
g7
(g14
g9
Ntp1255
Rp1256
sg17
g18
sg19
(lp1257
F12.11079
aF54.09058
asg22
(dp1258
sbsg24
S'06.04.2011 (02:18:04)'
p1259
sg25
Nsg26
g1249
sbsS'192.168.1.71'
p1260
(iprimitives
AccesPoint
p1261
(dp1262
g4
Nsg5
I4
sg6
g7
(g8
g9
Ntp1263
Rp1264
(dp1265
g13
g7
(g14
g9
Ntp1266
Rp1267
sg17
g18
sg19
(lp1268
g21
ag21
asg22
(dp1269
sbsg24
S'08.05.2012 (10:35:04)'
p1270
sg25
Nsg26
g1260
sbsS'192.168.1.70'
p1271
(iprimitives
AccesPoint
p1272
(dp1273
g4
Nsg5
I3
sg6
g7
(g8
g9
Ntp1274
Rp1275
(dp1276
g13
g7
(g14
g9
Ntp1277
Rp1278
sg17
g18
sg19
(lp1279
F12.131053
aF54.140876
asg22
(dp1280
sbsg24
S'17.06.2012 (13:59:04)'
p1281
sg25
Nsg26
g1271
sbsS'192.168.1.73'
p1282
(iprimitives
AccesPoint
p1283
(dp1284
g4
Nsg5
I3
sg6
g7
(g8
g9
Ntp1285
Rp1286
(dp1287
g13
g7
(g14
g9
Ntp1288
Rp1289
sg17
g18
sg19
(lp1290
F12.111648
aF54.09185
asg22
(dp1291
sbsg24
S'17.06.2012 (09:04:04)'
p1292
sg25
Nsg26
g1282
sbsS'192.168.1.72'
p1293
(iprimitives
AccesPoint
p1294
(dp1295
g4
Nsg5
Nsg6
g7
(g8
g9
Ntp1296
Rp1297
(dp1298
g13
g7
(g14
g9
Ntp1299
Rp1300
sg17
g18
sg19
(lp1301
F12.101912
aF54.116987
asg22
(dp1302
sbsg24
Nsg25
Nsg26
g1293
sbsS'192.168.1.193'
p1303
(iprimitives
AccesPoint
p1304
(dp1305
g4
Nsg5
I3
sg6
g7
(g8
g9
Ntp1306
Rp1307
(dp1308
g13
g7
(g14
g9
Ntp1309
Rp1310
sg17
g18
sg19
(lp1311
F12.210335
aF54.04833
asg22
(dp1312
sbsg24
S'31.03.2012 (07:40:04)'
p1313
sg25
Nsg26
g1303
sbsS'192.168.1.192'
p1314
(iprimitives
AccesPoint
p1315
(dp1316
g4
Nsg5
I3
sg6
g7
(g8
g9
Ntp1317
Rp1318
(dp1319
g13
g7
(g14
g9
Ntp1320
Rp1321
sg17
g18
sg19
(lp1322
F12.120475
aF54.072473
asg22
(dp1323
sbsg24
S'17.06.2012 (13:58:04)'
p1324
sg25
Nsg26
g1314
sbsS'192.168.1.199'
p1325
(iprimitives
AccesPoint
p1326
(dp1327
g4
Nsg5
I3
sg6
g7
(g8
g9
Ntp1328
Rp1329
(dp1330
g13
g7
(g14
g9
Ntp1331
Rp1332
sg17
g18
sg19
(lp1333
F12.15789
aF54.02789
asg22
(dp1334
sbsg24
S'17.06.2012 (13:59:04)'
p1335
sg25
Nsg26
g1325
sbsS'192.168.1.198'
p1336
(iprimitives
AccesPoint
p1337
(dp1338
g4
Nsg5
I3
sg6
g7
(g8
g9
Ntp1339
Rp1340
(dp1341
g13
g7
(g14
g9
Ntp1342
Rp1343
sg17
g18
sg19
(lp1344
F12.158496
aF54.027789
asg22
(dp1345
sbsg24
S'17.06.2012 (13:58:04)'
p1346
sg25
Nsg26
g1336
sbsS'192.168.1.247'
p1347
(iprimitives
AccesPoint
p1348
(dp1349
g4
Nsg5
I3
sg6
g7
(g8
g9
Ntp1350
Rp1351
(dp1352
g13
g7
(g14
g9
Ntp1353
Rp1354
sg17
g18
sg19
(lp1355
F12.267571
aF53.983982
asg22
(dp1356
sbsg24
S'25.02.2011 (17:04:04)'
p1357
sg25
Nsg26
g1347
sbsS'192.168.1.246'
p1358
(iprimitives
AccesPoint
p1359
(dp1360
g4
Nsg5
I3
sg6
g7
(g8
g9
Ntp1361
Rp1362
(dp1363
g13
g7
(g14
g9
Ntp1364
Rp1365
sg17
g18
sg19
(lp1366
F12.26947
aF53.980743
asg22
(dp1367
sbsg24
S'26.08.2011 (11:22:04)'
p1368
sg25
Nsg26
g1358
sbsS'192.168.1.245'
p1369
(iprimitives
AccesPoint
p1370
(dp1371
g4
Nsg5
I3
sg6
g7
(g8
g9
Ntp1372
Rp1373
(dp1374
g13
g7
(g14
g9
Ntp1375
Rp1376
sg17
g18
sg19
(lp1377
F12.266927
aF53.98367
asg22
(dp1378
sbsg24
S'17.06.2012 (13:59:04)'
p1379
sg25
Nsg26
g1369
sbsS'192.168.1.244'
p1380
(iprimitives
AccesPoint
p1381
(dp1382
g4
Nsg5
Nsg6
g7
(g8
g9
Ntp1383
Rp1384
(dp1385
g13
g7
(g14
g9
Ntp1386
Rp1387
sg17
g18
sg19
(lp1388
F12.21415
aF53.980334
asg22
(dp1389
sbsg24
Nsg25
Nsg26
g1380
sbsS'192.168.1.243'
p1390
(iprimitives
AccesPoint
p1391
(dp1392
g4
Nsg5
I3
sg6
g7
(g8
g9
Ntp1393
Rp1394
(dp1395
g13
g7
(g14
g9
Ntp1396
Rp1397
sg17
g18
sg19
(lp1398
F12.477518
aF53.756951
asg22
(dp1399
sbsg24
S'17.06.2012 (13:58:04)'
p1400
sg25
Nsg26
g1390
sbsS'192.168.1.242'
p1401
(iprimitives
AccesPoint
p1402
(dp1403
g258
I1
sg259
S'OpenWrt(white russian  0.9-ON5)'
p1404
sg4
I0
sg5
I3
sg261
g387
sg6
g7
(g8
g9
Ntp1405
Rp1406
(dp1407
g13
g7
(g14
g9
Ntp1408
Rp1409
sg17
g18
sg19
(lp1410
F12.476413
aF53.756139
asg22
(dp1411
sbsg24
S'17.06.2012 (13:58:04)'
p1412
sg25
I0
sg26
g1401
sbsS'192.168.1.241'
p1413
(iprimitives
AccesPoint
p1414
(dp1415
g258
I1
sg259
S'OpenWrt(white russian  0.9-ON5)'
p1416
sg4
I0
sg5
I3
sg261
g387
sg6
g7
(g8
g9
Ntp1417
Rp1418
(dp1419
g13
g7
(g14
g9
Ntp1420
Rp1421
sg17
g18
sg19
(lp1422
F12.474643
aF53.756406
asg22
(dp1423
sbsg24
S'17.06.2012 (13:58:04)'
p1424
sg25
I0
sg26
g1413
sbsS'192.168.1.240'
p1425
(iprimitives
AccesPoint
p1426
(dp1427
g4
Nsg5
I4
sg6
g7
(g8
g9
Ntp1428
Rp1429
(dp1430
g13
g7
(g14
g9
Ntp1431
Rp1432
sg17
g18
sg19
(lp1433
g21
ag21
asg22
(dp1434
sbsg24
S'23.04.2012 (09:49:02)'
p1435
sg25
Nsg26
g1425
sbsS'192.168.1.249'
p1436
(iprimitives
AccesPoint
p1437
(dp1438
g258
I1
sg259
S'OpenWrt(backfire 10.03.1)'
p1439
sg4
I0
sg5
I3
sg261
g400
sg6
g7
(g8
g9
Ntp1440
Rp1441
(dp1442
g13
g7
(g14
g9
Ntp1443
Rp1444
sg17
g18
sg19
(lp1445
F12.159848
aF54.076614
asg22
(dp1446
sbsg24
S'17.06.2012 (13:58:04)'
p1447
sg25
I0
sg26
g1436
sbsS'192.168.1.248'
p1448
(iprimitives
AccesPoint
p1449
(dp1450
g4
Nsg5
I3
sg6
g7
(g8
g9
Ntp1451
Rp1452
(dp1453
g13
g7
(g14
g9
Ntp1454
Rp1455
sg17
g18
sg19
(lp1456
F12.118521
aF54.102187
asg22
(dp1457
sbsg24
S'17.06.2012 (13:58:04)'
p1458
sg25
Nsg26
g1448
sbsS'192.168.1.144'
p1459
(iprimitives
AccesPoint
p1460
(dp1461
g4
Nsg5
I3
sg6
g7
(g8
g9
Ntp1462
Rp1463
(dp1464
g13
g7
(g14
g9
Ntp1465
Rp1466
sg17
g18
sg19
(lp1467
F12.11675
aF54.08847
asg22
(dp1468
sbsg24
S'15.06.2012 (12:56:04)'
p1469
sg25
Nsg26
g1459
sbsS'192.168.1.145'
p1470
(iprimitives
AccesPoint
p1471
(dp1472
g258
I1
sg259
S'OpenWrt(white russian  0.9-ON5)'
p1473
sg4
I0
sg5
I3
sg261
S'Buffalo WHR-G54s'
p1474
sg6
g7
(g8
g9
Ntp1475
Rp1476
(dp1477
g13
g7
(g14
g9
Ntp1478
Rp1479
sg17
g18
sg19
(lp1480
F12.09084
aF54.096163
asg22
(dp1481
sbsg24
S'17.06.2012 (13:59:04)'
p1482
sg25
I0
sg26
g1470
sbsS'192.168.1.146'
p1483
(iprimitives
AccesPoint
p1484
(dp1485
g258
I1
sg259
S'OpenWrt(backfire 10.03.1)'
p1486
sg4
I0
sg5
I3
sg261
g1229
sg6
g7
(g8
g9
Ntp1487
Rp1488
(dp1489
g13
g7
(g14
g9
Ntp1490
Rp1491
sg17
g18
sg19
(lp1492
F12.113022
aF54.093332
asg22
(dp1493
sbsg24
S'20.12.2011 (19:49:04)'
p1494
sg25
I0
sg26
g1483
sbsS'192.168.1.147'
p1495
(iprimitives
AccesPoint
p1496
(dp1497
g4
Nsg5
I3
sg6
g7
(g8
g9
Ntp1498
Rp1499
(dp1500
g13
g7
(g14
g9
Ntp1501
Rp1502
sg17
g18
sg19
(lp1503
F12.09822
aF54.093044
asg22
(dp1504
sbsg24
S'17.06.2012 (13:58:04)'
p1505
sg25
Nsg26
g1495
sbsS'192.168.1.140'
p1506
(iprimitives
AccesPoint
p1507
(dp1508
g4
Nsg5
I3
sg6
g7
(g8
g9
Ntp1509
Rp1510
(dp1511
g13
g7
(g14
g9
Ntp1512
Rp1513
sg17
g18
sg19
(lp1514
F12.270248
aF53.981831
asg22
(dp1515
sbsg24
S'24.12.2011 (13:32:04)'
p1516
sg25
Nsg26
g1506
sbsS'192.168.1.141'
p1517
(iprimitives
AccesPoint
p1518
(dp1519
g258
I0
sg259
S'AirOS(XM.v5.2.1 )'
p1520
sg4
I0
sg5
I3
sg261
g262
sg6
g7
(g8
g9
Ntp1521
Rp1522
(dp1523
g13
g7
(g14
g9
Ntp1524
Rp1525
sg17
g18
sg19
(lp1526
F12.120672
aF54.08904
asg22
(dp1527
sbsg24
S'10.04.2012 (22:20:04)'
p1528
sg25
I0
sg26
g1517
sbsS'192.168.1.142'
p1529
(iprimitives
AccesPoint
p1530
(dp1531
g4
Nsg5
I3
sg6
g7
(g8
g9
Ntp1532
Rp1533
(dp1534
g13
g7
(g14
g9
Ntp1535
Rp1536
sg17
g18
sg19
(lp1537
F12.114653
aF54.086429
asg22
(dp1538
sbsg24
S'15.06.2012 (12:56:04)'
p1539
sg25
Nsg26
g1529
sbsS'192.168.1.143'
p1540
(iprimitives
AccesPoint
p1541
(dp1542
g4
Nsg5
I3
sg6
g7
(g8
g9
Ntp1543
Rp1544
(dp1545
g13
g7
(g14
g9
Ntp1546
Rp1547
sg17
g18
sg19
(lp1548
F12.267029
aF53.983651
asg22
(dp1549
sbsg24
S'17.06.2012 (13:59:04)'
p1550
sg25
Nsg26
g1540
sbsS'192.168.1.148'
p1551
(iprimitives
AccesPoint
p1552
(dp1553
g4
Nsg5
I4
sg6
g7
(g8
g9
Ntp1554
Rp1555
(dp1556
g13
g7
(g14
g9
Ntp1557
Rp1558
sg17
g18
sg19
(lp1559
g21
ag21
asg22
(dp1560
sbsg24
S'20.09.2011 (13:37:04)'
p1561
sg25
Nsg26
g1551
sbsS'192.168.1.149'
p1562
(iprimitives
AccesPoint
p1563
(dp1564
g4
Nsg5
I3
sg6
g7
(g8
g9
Ntp1565
Rp1566
(dp1567
g13
g7
(g14
g9
Ntp1568
Rp1569
sg17
g18
sg19
(lp1570
F12.269309
aF53.983266
asg22
(dp1571
sbsg24
S'31.08.2011 (14:32:04)'
p1572
sg25
Nsg26
g1562
sbsS'192.168.1.31'
p1573
(iprimitives
AccesPoint
p1574
(dp1575
g4
Nsg5
I3
sg6
g7
(g8
g9
Ntp1576
Rp1577
(dp1578
g13
g7
(g14
g9
Ntp1579
Rp1580
sg17
g18
sg19
(lp1581
F12.1438
aF54.081878
asg22
(dp1582
sbsg24
S'25.09.2011 (23:12:04)'
p1583
sg25
Nsg26
g1573
sbsS'192.168.1.30'
p1584
(iprimitives
AccesPoint
p1585
(dp1586
g4
Nsg5
I4
sg6
g7
(g8
g9
Ntp1587
Rp1588
(dp1589
g13
g7
(g14
g9
Ntp1590
Rp1591
sg17
g18
sg19
(lp1592
g21
ag21
asg22
(dp1593
sbsg24
S'10.10.2011 (15:37:04)'
p1594
sg25
Nsg26
g1584
sbsS'192.168.1.33'
p1595
(iprimitives
AccesPoint
p1596
(dp1597
g4
Nsg5
I3
sg6
g7
(g8
g9
Ntp1598
Rp1599
(dp1600
g13
g7
(g14
g9
Ntp1601
Rp1602
sg17
g18
sg19
(lp1603
F12.111971
aF54.083622
asg22
(dp1604
sbsg24
S'17.06.2012 (13:52:04)'
p1605
sg25
Nsg26
g1595
sbsS'192.168.1.32'
p1606
(iprimitives
AccesPoint
p1607
(dp1608
g4
Nsg5
I3
sg6
g7
(g8
g9
Ntp1609
Rp1610
(dp1611
g13
g7
(g14
g9
Ntp1612
Rp1613
sg17
g18
sg19
(lp1614
F12.111901
aF54.083559
asg22
(dp1615
sbsg24
S'17.06.2012 (13:59:04)'
p1616
sg25
Nsg26
g1606
sbsS'192.168.1.35'
p1617
(iprimitives
AccesPoint
p1618
(dp1619
g4
Nsg5
I3
sg6
g7
(g8
g9
Ntp1620
Rp1621
(dp1622
g13
g7
(g14
g9
Ntp1623
Rp1624
sg17
g18
sg19
(lp1625
F12.115163
aF54.089107
asg22
(dp1626
sbsg24
S'05.01.2012 (08:28:04)'
p1627
sg25
Nsg26
g1617
sbsS'192.168.1.34'
p1628
(iprimitives
AccesPoint
p1629
(dp1630
g4
Nsg5
I3
sg6
g7
(g8
g9
Ntp1631
Rp1632
(dp1633
g13
g7
(g14
g9
Ntp1634
Rp1635
sg17
g18
sg19
(lp1636
F12.112899
aF54.091642
asg22
(dp1637
sbsg24
S'29.05.2010 (17:57:04)'
p1638
sg25
Nsg26
g1628
sbsS'192.168.1.37'
p1639
(iprimitives
AccesPoint
p1640
(dp1641
g4
Nsg5
I3
sg6
g7
(g8
g9
Ntp1642
Rp1643
(dp1644
g13
g7
(g14
g9
Ntp1645
Rp1646
sg17
g18
sg19
(lp1647
F12.157601
aF54.027089
asg22
(dp1648
sbsg24
S'17.06.2012 (13:58:04)'
p1649
sg25
Nsg26
g1639
sbsS'192.168.1.36'
p1650
(iprimitives
AccesPoint
p1651
(dp1652
g4
Nsg5
I3
sg6
g7
(g8
g9
Ntp1653
Rp1654
(dp1655
g13
g7
(g14
g9
Ntp1656
Rp1657
sg17
g18
sg19
(lp1658
F12.11287
aF54.093
asg22
(dp1659
sbsg24
S'19.05.2012 (13:54:04)'
p1660
sg25
Nsg26
g1650
sbsS'192.168.1.39'
p1661
(iprimitives
AccesPoint
p1662
(dp1663
g4
Nsg5
I3
sg6
g7
(g8
g9
Ntp1664
Rp1665
(dp1666
g13
g7
(g14
g9
Ntp1667
Rp1668
sg17
g18
sg19
(lp1669
F12.10439
aF54.08085
asg22
(dp1670
sbsg24
S'17.06.2012 (13:58:04)'
p1671
sg25
Nsg26
g1661
sbsS'192.168.1.38'
p1672
(iprimitives
AccesPoint
p1673
(dp1674
g4
Nsg5
I3
sg6
g7
(g8
g9
Ntp1675
Rp1676
(dp1677
g13
g7
(g14
g9
Ntp1678
Rp1679
sg17
g18
sg19
(lp1680
F12.11282
aF54.08075
asg22
(dp1681
sbsg24
S'05.02.2011 (10:46:04)'
p1682
sg25
Nsg26
g1672
sbsS'192.168.1.179'
p1683
(iprimitives
AccesPoint
p1684
(dp1685
g4
Nsg5
I3
sg6
g7
(g8
g9
Ntp1686
Rp1687
(dp1688
g13
g7
(g14
g9
Ntp1689
Rp1690
sg17
g18
sg19
(lp1691
F12.123327
aF54.091429
asg22
(dp1692
sbsg24
S'17.06.2012 (13:58:04)'
p1693
sg25
Nsg26
g1683
sbsS'192.168.2.44'
p1694
(iprimitives
AccesPoint
p1695
(dp1696
g4
Nsg5
Nsg6
g7
(g8
g9
Ntp1697
Rp1698
(dp1699
g13
g7
(g14
g9
Ntp1700
Rp1701
sg17
g18
sg19
(lp1702
F12.295691
aF54.007721
asg22
(dp1703
sbsg24
Nsg25
Nsg26
g1694
sbsS'192.168.1.175'
p1704
(iprimitives
AccesPoint
p1705
(dp1706
g4
Nsg5
I3
sg6
g7
(g8
g9
Ntp1707
Rp1708
(dp1709
g13
g7
(g14
g9
Ntp1710
Rp1711
sg17
g18
sg19
(lp1712
F12.110624
aF54.090913
asg22
(dp1713
sbsg24
S'17.06.2012 (06:16:04)'
p1714
sg25
Nsg26
g1704
sbsS'192.168.2.48'
p1715
(iprimitives
AccesPoint
p1716
(dp1717
g4
Nsg5
I3
sg6
g7
(g8
g9
Ntp1718
Rp1719
(dp1720
g13
g7
(g14
g9
Ntp1721
Rp1722
sg17
g18
sg19
(lp1723
F12.101312
aF54.092221
asg22
(dp1724
sbsg24
S'17.06.2012 (13:59:04)'
p1725
sg25
Nsg26
g1715
sbsS'192.168.1.44'
p1726
(iprimitives
AccesPoint
p1727
(dp1728
g4
Nsg5
I3
sg6
g7
(g8
g9
Ntp1729
Rp1730
(dp1731
g13
g7
(g14
g9
Ntp1732
Rp1733
sg17
g18
sg19
(lp1734
F12.295858
aF54.007876
asg22
(dp1735
sbsg24
S'07.04.2012 (11:34:04)'
p1736
sg25
Nsg26
g1726
sbsS'192.168.1.45'
p1737
(iprimitives
AccesPoint
p1738
(dp1739
g4
Nsg5
I3
sg6
g7
(g8
g9
Ntp1740
Rp1741
(dp1742
g13
g7
(g14
g9
Ntp1743
Rp1744
sg17
g18
sg19
(lp1745
F12.11287
aF54.0929
asg22
(dp1746
sbsg24
S'27.03.2011 (03:25:04)'
p1747
sg25
Nsg26
g1737
sbsS'192.168.1.46'
p1748
(iprimitives
AccesPoint
p1749
(dp1750
g258
I0
sg259
S'AirOS(XM.v5.2.1 )'
p1751
sg4
I0
sg5
I3
sg261
g262
sg6
g7
(g8
g9
Ntp1752
Rp1753
(dp1754
g13
g7
(g14
g9
Ntp1755
Rp1756
sg17
g18
sg19
(lp1757
F12.136513
aF54.077709
asg22
(dp1758
sbsg24
S'17.06.2012 (13:58:04)'
p1759
sg25
I0
sg26
g1748
sbsS'192.168.1.47'
p1760
(iprimitives
AccesPoint
p1761
(dp1762
g4
Nsg5
I3
sg6
g7
(g8
g9
Ntp1763
Rp1764
(dp1765
g13
g7
(g14
g9
Ntp1766
Rp1767
sg17
g18
sg19
(lp1768
F12.159
aF54.0753
asg22
(dp1769
sbsg24
S'17.06.2012 (13:58:04)'
p1770
sg25
Nsg26
g1760
sbsS'192.168.1.40'
p1771
(iprimitives
AccesPoint
p1772
(dp1773
g4
Nsg5
I3
sg6
g7
(g8
g9
Ntp1774
Rp1775
(dp1776
g13
g7
(g14
g9
Ntp1777
Rp1778
sg17
g18
sg19
(lp1779
F12.295479
aF54.008681
asg22
(dp1780
sbsg24
S'17.06.2012 (13:59:04)'
p1781
sg25
Nsg26
g1771
sbsS'192.168.1.41'
p1782
(iprimitives
AccesPoint
p1783
(dp1784
g4
Nsg5
I3
sg6
g7
(g8
g9
Ntp1785
Rp1786
(dp1787
g13
g7
(g14
g9
Ntp1788
Rp1789
sg17
g18
sg19
(lp1790
F12.1147
aF54.088
asg22
(dp1791
sbsg24
S'17.06.2012 (13:59:04)'
p1792
sg25
Nsg26
g1782
sbsS'192.168.1.42'
p1793
(iprimitives
AccesPoint
p1794
(dp1795
g4
Nsg5
I3
sg6
g7
(g8
g9
Ntp1796
Rp1797
(dp1798
g13
g7
(g14
g9
Ntp1799
Rp1800
sg17
g18
sg19
(lp1801
F12.117862
aF54.088703
asg22
(dp1802
sbsg24
S'19.05.2012 (14:21:04)'
p1803
sg25
Nsg26
g1793
sbsS'192.168.1.43'
p1804
(iprimitives
AccesPoint
p1805
(dp1806
g4
Nsg5
I3
sg6
g7
(g8
g9
Ntp1807
Rp1808
(dp1809
g13
g7
(g14
g9
Ntp1810
Rp1811
sg17
g18
sg19
(lp1812
F12.112545
aF54.093184
asg22
(dp1813
sbsg24
S'07.03.2012 (05:38:04)'
p1814
sg25
Nsg26
g1804
sbsS'192.168.1.48'
p1815
(iprimitives
AccesPoint
p1816
(dp1817
g258
I1
sg259
S'OpenWrt(backfire 10.03.1-RC6)'
p1818
sg4
I1
sg5
I3
sg261
g1138
sg6
g7
(g8
g9
Ntp1819
Rp1820
(dp1821
g13
g7
(g14
g9
Ntp1822
Rp1823
sg17
g18
sg19
(lp1824
F12.109734
aF54.104898
asg22
(dp1825
sbsg24
S'06.05.2012 (08:33:04)'
p1826
sg25
I0
sg26
g1815
sbsS'192.168.1.49'
p1827
(iprimitives
AccesPoint
p1828
(dp1829
g258
I1
sg259
S'OpenWrt(backfire 10.03.1)'
p1830
sg4
I0
sg5
I3
sg261
g400
sg6
g7
(g8
g9
Ntp1831
Rp1832
(dp1833
g13
g7
(g14
g9
Ntp1834
Rp1835
sg17
g18
sg19
(lp1836
F12.12936
aF54.08375
asg22
(dp1837
sbsg24
S'14.11.2011 (07:40:04)'
p1838
sg25
I0
sg26
g1827
sbsS'192.168.1.108'
p1839
(iprimitives
AccesPoint
p1840
(dp1841
g4
Nsg5
I3
sg6
g7
(g8
g9
Ntp1842
Rp1843
(dp1844
g13
g7
(g14
g9
Ntp1845
Rp1846
sg17
g18
sg19
(lp1847
F12.211976
aF54.048507
asg22
(dp1848
sbsg24
S'17.01.2012 (21:06:04)'
p1849
sg25
Nsg26
g1839
sbsS'192.168.1.109'
p1850
(iprimitives
AccesPoint
p1851
(dp1852
g4
Nsg5
I3
sg6
g7
(g8
g9
Ntp1853
Rp1854
(dp1855
g13
g7
(g14
g9
Ntp1856
Rp1857
sg17
g18
sg19
(lp1858
F12.212908
aF54.047184
asg22
(dp1859
sbsg24
S'12.01.2012 (10:27:04)'
p1860
sg25
Nsg26
g1850
sbsS'192.168.1.100'
p1861
(iprimitives
AccesPoint
p1862
(dp1863
g258
I1
sg259
S'OpenWrt(backfire 10.03.1-RC6)'
p1864
sg4
I0
sg5
I3
sg261
g1229
sg6
g7
(g8
g9
Ntp1865
Rp1866
(dp1867
g13
g7
(g14
g9
Ntp1868
Rp1869
sg17
g18
sg19
(lp1870
F12.294991
aF54.005691
asg22
(dp1871
sbsg24
S'17.06.2012 (13:58:04)'
p1872
sg25
I0
sg26
g1861
sbsS'192.168.1.101'
p1873
(iprimitives
AccesPoint
p1874
(dp1875
g258
I0
sg259
S'AirOS(XM.v5.2.1 )'
p1876
sg4
I0
sg5
I3
sg261
g262
sg6
g7
(g8
g9
Ntp1877
Rp1878
(dp1879
g13
g7
(g14
g9
Ntp1880
Rp1881
sg17
g18
sg19
(lp1882
F12.107945
aF54.07157
asg22
(dp1883
sbsg24
S'17.06.2012 (13:58:04)'
p1884
sg25
I0
sg26
g1873
sbsS'192.168.1.102'
p1885
(iprimitives
AccesPoint
p1886
(dp1887
g4
Nsg5
I3
sg6
g7
(g8
g9
Ntp1888
Rp1889
(dp1890
g13
g7
(g14
g9
Ntp1891
Rp1892
sg17
g18
sg19
(lp1893
F12.114437
aF54.091218
asg22
(dp1894
sbsg24
S'20.05.2011 (11:35:04)'
p1895
sg25
Nsg26
g1885
sbsS'192.168.1.103'
p1896
(iprimitives
AccesPoint
p1897
(dp1898
g258
I1
sg259
S'OpenWrt(backfire 10.03.1-RC6)'
p1899
sg4
I1
sg5
I3
sg261
g1138
sg6
g7
(g8
g9
Ntp1900
Rp1901
(dp1902
g13
g7
(g14
g9
Ntp1903
Rp1904
sg17
g18
sg19
(lp1905
F12.11675
aF54.08865
asg22
(dp1906
sbsg24
S'17.06.2012 (13:57:04)'
p1907
sg25
I0
sg26
g1896
sbsS'192.168.1.104'
p1908
(iprimitives
AccesPoint
p1909
(dp1910
g258
I1
sg259
S'OpenWrt(backfire 10.03.1-RC6)'
p1911
sg4
I1
sg5
I3
sg261
g1138
sg6
g7
(g8
g9
Ntp1912
Rp1913
(dp1914
g13
g7
(g14
g9
Ntp1915
Rp1916
sg17
g18
sg19
(lp1917
F12.11675
aF54.08855
asg22
(dp1918
sbsg24
S'17.06.2012 (13:57:04)'
p1919
sg25
I0
sg26
g1908
sbsS'192.168.1.105'
p1920
(iprimitives
AccesPoint
p1921
(dp1922
g4
Nsg5
I3
sg6
g7
(g8
g9
Ntp1923
Rp1924
(dp1925
g13
g7
(g14
g9
Ntp1926
Rp1927
sg17
g18
sg19
(lp1928
F12.119877
aF47.856283
asg22
(dp1929
sbsg24
S'05.02.2010 (13:39:02)'
p1930
sg25
Nsg26
g1920
sbsS'192.168.1.106'
p1931
(iprimitives
AccesPoint
p1932
(dp1933
g4
Nsg5
I3
sg6
g7
(g8
g9
Ntp1934
Rp1935
(dp1936
g13
g7
(g14
g9
Ntp1937
Rp1938
sg17
g18
sg19
(lp1939
F12.127222
aF54.095726
asg22
(dp1940
sbsg24
S'17.06.2012 (13:58:04)'
p1941
sg25
Nsg26
g1931
sbsS'192.168.1.107'
p1942
(iprimitives
AccesPoint
p1943
(dp1944
g4
Nsg5
I3
sg6
g7
(g8
g9
Ntp1945
Rp1946
(dp1947
g13
g7
(g14
g9
Ntp1948
Rp1949
sg17
g18
sg19
(lp1950
F12.025468
aF54.108878
asg22
(dp1951
sbsg24
S'07.05.2012 (19:46:04)'
p1952
sg25
Nsg26
g1942
sbsS'192.168.1.197'
p1953
(iprimitives
AccesPoint
p1954
(dp1955
g4
Nsg5
I3
sg6
g7
(g8
g9
Ntp1956
Rp1957
(dp1958
g13
g7
(g14
g9
Ntp1959
Rp1960
sg17
g18
sg19
(lp1961
F12.189953
aF54.005524
asg22
(dp1962
sbsg24
S'17.06.2012 (13:57:04)'
p1963
sg25
Nsg26
g1953
sbsS'192.168.1.196'
p1964
(iprimitives
AccesPoint
p1965
(dp1966
g4
Nsg5
I3
sg6
g7
(g8
g9
Ntp1967
Rp1968
(dp1969
g13
g7
(g14
g9
Ntp1970
Rp1971
sg17
g18
sg19
(lp1972
F12.145455
aF54.090818
asg22
(dp1973
sbsg24
S'21.09.2010 (08:12:04)'
p1974
sg25
Nsg26
g1964
sbsS'192.168.1.195'
p1975
(iprimitives
AccesPoint
p1976
(dp1977
g4
Nsg5
I3
sg6
g7
(g8
g9
Ntp1978
Rp1979
(dp1980
g13
g7
(g14
g9
Ntp1981
Rp1982
sg17
g18
sg19
(lp1983
F12.119126
aF54.075052
asg22
(dp1984
sbsg24
S'17.06.2012 (13:58:04)'
p1985
sg25
Nsg26
g1975
sbsS'192.168.1.194'
p1986
(iprimitives
AccesPoint
p1987
(dp1988
g4
Nsg5
I3
sg6
g7
(g8
g9
Ntp1989
Rp1990
(dp1991
g13
g7
(g14
g9
Ntp1992
Rp1993
sg17
g18
sg19
(lp1994
F12.109594
aF54.090749
asg22
(dp1995
sbsg24
S'17.06.2012 (13:49:04)'
p1996
sg25
Nsg26
g1986
sbsS'192.168.1.218'
p1997
(iprimitives
AccesPoint
p1998
(dp1999
g4
Nsg5
I3
sg6
g7
(g8
g9
Ntp2000
Rp2001
(dp2002
g13
g7
(g14
g9
Ntp2003
Rp2004
sg17
g18
sg19
(lp2005
F12.156587
aF54.025923
asg22
(dp2006
sbsg24
S'17.06.2012 (13:58:04)'
p2007
sg25
Nsg26
g1997
sbsS'192.168.1.219'
p2008
(iprimitives
AccesPoint
p2009
(dp2010
g4
Nsg5
I4
sg6
g7
(g8
g9
Ntp2011
Rp2012
(dp2013
g13
g7
(g14
g9
Ntp2014
Rp2015
sg17
g18
sg19
(lp2016
g21
ag21
asg22
(dp2017
sbsg24
S'23.05.2011 (22:37:04)'
p2018
sg25
Nsg26
g2008
sbsS'192.168.1.191'
p2019
(iprimitives
AccesPoint
p2020
(dp2021
g258
I0
sg259
S'AirOS(XM.v5.3.3 )'
p2022
sg4
I0
sg5
I3
sg261
g262
sg6
g7
(g8
g9
Ntp2023
Rp2024
(dp2025
g13
g7
(g14
g9
Ntp2026
Rp2027
sg17
g18
sg19
(lp2028
F12.112287
aF54.093385
asg22
(dp2029
sbsg24
S'01.04.2011 (03:52:04)'
p2030
sg25
I0
sg26
g2019
sbsS'192.168.1.190'
p2031
(iprimitives
AccesPoint
p2032
(dp2033
g4
Nsg5
I3
sg6
g7
(g8
g9
Ntp2034
Rp2035
(dp2036
g13
g7
(g14
g9
Ntp2037
Rp2038
sg17
g18
sg19
(lp2039
F12.212269
aF54.047138
asg22
(dp2040
sbsg24
S'19.11.2011 (01:46:04)'
p2041
sg25
Nsg26
g2031
sbsS'192.168.1.214'
p2042
(iprimitives
AccesPoint
p2043
(dp2044
g4
Nsg5
I3
sg6
g7
(g8
g9
Ntp2045
Rp2046
(dp2047
g13
g7
(g14
g9
Ntp2048
Rp2049
sg17
g18
sg19
(lp2050
F12.155889
aF54.025394
asg22
(dp2051
sbsg24
S'17.06.2012 (13:59:04)'
p2052
sg25
Nsg26
g2042
sbsS'192.168.1.215'
p2053
(iprimitives
AccesPoint
p2054
(dp2055
g4
Nsg5
I3
sg6
g7
(g8
g9
Ntp2056
Rp2057
(dp2058
g13
g7
(g14
g9
Ntp2059
Rp2060
sg17
g18
sg19
(lp2061
F12.154484
aF54.025192
asg22
(dp2062
sbsg24
S'17.06.2012 (13:57:04)'
p2063
sg25
Nsg26
g2053
sbsS'192.168.1.216'
p2064
(iprimitives
AccesPoint
p2065
(dp2066
g4
Nsg5
I3
sg6
g7
(g8
g9
Ntp2067
Rp2068
(dp2069
g13
g7
(g14
g9
Ntp2070
Rp2071
sg17
g18
sg19
(lp2072
F12.156329
aF54.025583
asg22
(dp2073
sbsg24
S'03.09.2011 (11:20:04)'
p2074
sg25
Nsg26
g2064
sbsS'192.168.1.217'
p2075
(iprimitives
AccesPoint
p2076
(dp2077
g4
Nsg5
I3
sg6
g7
(g8
g9
Ntp2078
Rp2079
(dp2080
g13
g7
(g14
g9
Ntp2081
Rp2082
sg17
g18
sg19
(lp2083
F12.477551
aF53.756704
asg22
(dp2084
sbsg24
S'17.06.2012 (13:57:04)'
p2085
sg25
Nsg26
g2075
sbsS'192.168.1.210'
p2086
(iprimitives
AccesPoint
p2087
(dp2088
g4
Nsg5
I4
sg6
g7
(g8
g9
Ntp2089
Rp2090
(dp2091
g13
g7
(g14
g9
Ntp2092
Rp2093
sg17
g18
sg19
(lp2094
g21
ag21
asg22
(dp2095
sbsg24
Nsg25
Nsg26
g2086
sbsS'192.168.1.211'
p2096
(iprimitives
AccesPoint
p2097
(dp2098
g4
Nsg5
I4
sg6
g7
(g8
g9
Ntp2099
Rp2100
(dp2101
g13
g7
(g14
g9
Ntp2102
Rp2103
sg17
g18
sg19
(lp2104
g21
ag21
asg22
(dp2105
sbsg24
Nsg25
Nsg26
g2096
sbsS'192.168.1.212'
p2106
(iprimitives
AccesPoint
p2107
(dp2108
g258
I1
sg259
S'OpenWrt(white russian  0.9-ON5)'
p2109
sg4
I0
sg5
I3
sg261
g387
sg6
g7
(g8
g9
Ntp2110
Rp2111
(dp2112
g13
g7
(g14
g9
Ntp2113
Rp2114
sg17
g18
sg19
(lp2115
F12.105091
aF54.092238
asg22
(dp2116
sbsg24
S'17.06.2012 (13:58:04)'
p2117
sg25
I1
sg26
g2106
sbsS'192.168.1.213'
p2118
(iprimitives
AccesPoint
p2119
(dp2120
g4
Nsg5
I3
sg6
g7
(g8
g9
Ntp2121
Rp2122
(dp2123
g13
g7
(g14
g9
Ntp2124
Rp2125
sg17
g18
sg19
(lp2126
F12.15561
aF54.026503
asg22
(dp2127
sbsg24
S'17.06.2012 (13:57:04)'
p2128
sg25
Nsg26
g2118
sbsS'192.168.1.93'
p2129
(iprimitives
AccesPoint
p2130
(dp2131
g4
Nsg5
I4
sg6
g7
(g8
g9
Ntp2132
Rp2133
(dp2134
g13
g7
(g14
g9
Ntp2135
Rp2136
sg17
g18
sg19
(lp2137
g21
ag21
asg22
(dp2138
sbsg24
S'02.08.2011 (16:07:04)'
p2139
sg25
Nsg26
g2129
sbsS'192.168.1.92'
p2140
(iprimitives
AccesPoint
p2141
(dp2142
g4
Nsg5
I3
sg6
g7
(g8
g9
Ntp2143
Rp2144
(dp2145
g13
g7
(g14
g9
Ntp2146
Rp2147
sg17
g18
sg19
(lp2148
F12.109509
aF54.105027
asg22
(dp2149
sbsg24
S'06.05.2012 (08:43:04)'
p2150
sg25
Nsg26
g2140
sbsS'192.168.1.91'
p2151
(iprimitives
AccesPoint
p2152
(dp2153
g4
Nsg5
I3
sg6
g7
(g8
g9
Ntp2154
Rp2155
(dp2156
g13
g7
(g14
g9
Ntp2157
Rp2158
sg17
g18
sg19
(lp2159
F12.153625
aF54.025722
asg22
(dp2160
sbsg24
S'17.06.2012 (13:58:04)'
p2161
sg25
Nsg26
g2151
sbsS'192.168.1.90'
p2162
(iprimitives
AccesPoint
p2163
(dp2164
g4
Nsg5
I3
sg6
g7
(g8
g9
Ntp2165
Rp2166
(dp2167
g13
g7
(g14
g9
Ntp2168
Rp2169
sg17
g18
sg19
(lp2170
F12.370595
aF54.273441
asg22
(dp2171
sbsg24
S'17.06.2012 (13:58:04)'
p2172
sg25
Nsg26
g2162
sbsS'192.168.1.97'
p2173
(iprimitives
AccesPoint
p2174
(dp2175
g258
I0
sg259
S'AirOS(XM.v5.2.1 )'
p2176
sg4
I0
sg5
I3
sg261
g262
sg6
g7
(g8
g9
Ntp2177
Rp2178
(dp2179
g13
g7
(g14
g9
Ntp2180
Rp2181
sg17
g18
sg19
(lp2182
F11.415916
aF53.630815
asg22
(dp2183
sbsg24
S'17.06.2012 (13:57:04)'
p2184
sg25
I0
sg26
g2173
sbsS'192.168.1.96'
p2185
(iprimitives
AccesPoint
p2186
(dp2187
g4
Nsg5
I3
sg6
g7
(g8
g9
Ntp2188
Rp2189
(dp2190
g13
g7
(g14
g9
Ntp2191
Rp2192
sg17
g18
sg19
(lp2193
F12.21376
aF54.04827
asg22
(dp2194
sbsg24
S'05.09.2011 (06:25:04)'
p2195
sg25
Nsg26
g2185
sbsS'192.168.1.95'
p2196
(iprimitives
AccesPoint
p2197
(dp2198
g4
Nsg5
I3
sg6
g7
(g8
g9
Ntp2199
Rp2200
(dp2201
g13
g7
(g14
g9
Ntp2202
Rp2203
sg17
g18
sg19
(lp2204
F12.123874
aF54.093115
asg22
(dp2205
sbsg24
S'17.06.2012 (13:57:04)'
p2206
sg25
Nsg26
g2196
sbsS'192.168.1.94'
p2207
(iprimitives
AccesPoint
p2208
(dp2209
g4
Nsg5
I4
sg6
g7
(g8
g9
Ntp2210
Rp2211
(dp2212
g13
g7
(g14
g9
Ntp2213
Rp2214
sg17
g18
sg19
(lp2215
g21
ag21
asg22
(dp2216
sbsg24
S'22.03.2012 (21:14:04)'
p2217
sg25
Nsg26
g2207
sbsS'192.168.1.99'
p2218
(iprimitives
AccesPoint
p2219
(dp2220
g258
I1
sg259
S'OpenWrt(backfire 10.03.1)'
p2221
sg4
I1
sg5
I4
sg261
g400
sg6
g7
(g8
g9
Ntp2222
Rp2223
(dp2224
g13
g7
(g14
g9
Ntp2225
Rp2226
sg17
g18
sg19
(lp2227
g21
ag21
asg22
(dp2228
sbsg24
S'26.06.2011 (13:38:04)'
p2229
sg25
I0
sg26
g2218
sbsS'192.168.1.98'
p2230
(iprimitives
AccesPoint
p2231
(dp2232
g4
Nsg5
I3
sg6
g7
(g8
g9
Ntp2233
Rp2234
(dp2235
g13
g7
(g14
g9
Ntp2236
Rp2237
sg17
g18
sg19
(lp2238
F12.156973
aF54.0261
asg22
(dp2239
sbsg24
S'17.06.2012 (13:57:04)'
p2240
sg25
Nsg26
g2230
sbsS'192.168.2.41'
p2241
(iprimitives
AccesPoint
p2242
(dp2243
g4
Nsg5
I3
sg6
g7
(g8
g9
Ntp2244
Rp2245
(dp2246
g13
g7
(g14
g9
Ntp2247
Rp2248
sg17
g18
sg19
(lp2249
F12.11647
aF54.088603
asg22
(dp2250
sbsg24
S'17.06.2012 (13:58:04)'
p2251
sg25
Nsg26
g2241
sbsS'192.168.2.40'
p2252
(iprimitives
AccesPoint
p2253
(dp2254
g4
Nsg5
I3
sg6
g7
(g8
g9
Ntp2255
Rp2256
(dp2257
g13
g7
(g14
g9
Ntp2258
Rp2259
sg17
g18
sg19
(lp2260
F12.115018
aF54.088
asg22
(dp2261
sbsg24
S'17.06.2012 (13:59:04)'
p2262
sg25
Nsg26
g2252
sbsS'192.168.2.43'
p2263
(iprimitives
AccesPoint
p2264
(dp2265
g4
Nsg5
I3
sg6
g7
(g8
g9
Ntp2266
Rp2267
(dp2268
g13
g7
(g14
g9
Ntp2269
Rp2270
sg17
g18
sg19
(lp2271
F12.159805
aF54.076387
asg22
(dp2272
sbsg24
S'17.06.2012 (13:58:04)'
p2273
sg25
Nsg26
g2263
sbsS'192.168.2.42'
p2274
(iprimitives
AccesPoint
p2275
(dp2276
g4
Nsg5
I3
sg6
g7
(g8
g9
Ntp2277
Rp2278
(dp2279
g13
g7
(g14
g9
Ntp2280
Rp2281
sg17
g18
sg19
(lp2282
F12.116877
aF54.088523
asg22
(dp2283
sbsg24
S'17.06.2012 (13:58:04)'
p2284
sg25
Nsg26
g2274
sbsS'192.168.2.45'
p2285
(iprimitives
AccesPoint
p2286
(dp2287
g4
Nsg5
I3
sg6
g7
(g8
g9
Ntp2288
Rp2289
(dp2290
g13
g7
(g14
g9
Ntp2291
Rp2292
sg17
g18
sg19
(lp2293
F12.158689
aF54.075657
asg22
(dp2294
sbsg24
S'17.06.2012 (13:57:04)'
p2295
sg25
Nsg26
g2285
sbsS'192.168.1.178'
p2296
(iprimitives
AccesPoint
p2297
(dp2298
g4
Nsg5
I3
sg6
g7
(g8
g9
Ntp2299
Rp2300
(dp2301
g13
g7
(g14
g9
Ntp2302
Rp2303
sg17
g18
sg19
(lp2304
F12.212098
aF54.047503
asg22
(dp2305
sbsg24
S'24.12.2011 (21:23:04)'
p2306
sg25
Nsg26
g2296
sbsS'192.168.2.47'
p2307
(iprimitives
AccesPoint
p2308
(dp2309
g4
Nsg5
Nsg6
g7
(g8
g9
Ntp2310
Rp2311
(dp2312
g13
g7
(g14
g9
Ntp2313
Rp2314
sg17
g18
sg19
(lp2315
F12.14219
aF54.0669
asg22
(dp2316
sbsg24
Nsg25
Nsg26
g2307
sbsS'192.168.2.46'
p2317
(iprimitives
AccesPoint
p2318
(dp2319
g4
Nsg5
I3
sg6
g7
(g8
g9
Ntp2320
Rp2321
(dp2322
g13
g7
(g14
g9
Ntp2323
Rp2324
sg17
g18
sg19
(lp2325
F12.158861
aF54.074675
asg22
(dp2326
sbsg24
S'17.06.2012 (13:59:04)'
p2327
sg25
Nsg26
g2317
sbsS'192.168.2.49'
p2328
(iprimitives
AccesPoint
p2329
(dp2330
g4
Nsg5
Nsg6
g7
(g8
g9
Ntp2331
Rp2332
(dp2333
g13
g7
(g14
g9
Ntp2334
Rp2335
sg17
g18
sg19
(lp2336
F12.11141
aF54.09238
asg22
(dp2337
sbsg24
Nsg25
Nsg26
g2328
sbsS'192.168.1.174'
p2338
(iprimitives
AccesPoint
p2339
(dp2340
g4
Nsg5
I3
sg6
g7
(g8
g9
Ntp2341
Rp2342
(dp2343
g13
g7
(g14
g9
Ntp2344
Rp2345
sg17
g18
sg19
(lp2346
F12.12293
aF54.091366
asg22
(dp2347
sbsg24
S'17.06.2012 (13:57:04)'
p2348
sg25
Nsg26
g2338
sbsS'192.168.1.177'
p2349
(iprimitives
AccesPoint
p2350
(dp2351
g4
Nsg5
I3
sg6
g7
(g8
g9
Ntp2352
Rp2353
(dp2354
g13
g7
(g14
g9
Ntp2355
Rp2356
sg17
g18
sg19
(lp2357
F12.098536
aF54.092901
asg22
(dp2358
sbsg24
S'17.06.2012 (13:58:04)'
p2359
sg25
Nsg26
g2349
sbsS'192.168.1.176'
p2360
(iprimitives
AccesPoint
p2361
(dp2362
g4
Nsg5
I3
sg6
g7
(g8
g9
Ntp2363
Rp2364
(dp2365
g13
g7
(g14
g9
Ntp2366
Rp2367
sg17
g18
sg19
(lp2368
F12.11704
aF54.09401
asg22
(dp2369
sbsg24
S'08.06.2011 (09:23:04)'
p2370
sg25
Nsg26
g2360
sbsS'192.168.1.171'
p2371
(iprimitives
AccesPoint
p2372
(dp2373
g258
I0
sg259
S'OpenWrt(white russian  0.9-ON5)'
p2374
sg4
I0
sg5
I3
sg261
g387
sg6
g7
(g8
g9
Ntp2375
Rp2376
(dp2377
g13
g7
(g14
g9
Ntp2378
Rp2379
sg17
g18
sg19
(lp2380
F12.12038
aF54.07247
asg22
(dp2381
sbsg24
S'17.06.2012 (13:57:04)'
p2382
sg25
I0
sg26
g2371
sbsS'192.168.1.170'
p2383
(iprimitives
AccesPoint
p2384
(dp2385
g258
I0
sg259
S'OpenWrt(white russian  0.9-ON5)'
p2386
sg4
I0
sg5
I3
sg261
g1138
sg6
g7
(g8
g9
Ntp2387
Rp2388
(dp2389
g13
g7
(g14
g9
Ntp2390
Rp2391
sg17
g18
sg19
(lp2392
F12.098308
aF54.092775
asg22
(dp2393
sbsg24
S'17.06.2012 (13:57:04)'
p2394
sg25
I0
sg26
g2383
sbsS'192.168.1.173'
p2395
(iprimitives
AccesPoint
p2396
(dp2397
g4
Nsg5
I3
sg6
g7
(g8
g9
Ntp2398
Rp2399
(dp2400
g13
g7
(g14
g9
Ntp2401
Rp2402
sg17
g18
sg19
(lp2403
F12.10439
aF54.08125
asg22
(dp2404
sbsg24
S'17.06.2012 (13:59:04)'
p2405
sg25
Nsg26
g2395
sbsS'192.168.1.172'
p2406
(iprimitives
AccesPoint
p2407
(dp2408
g258
I1
sg259
S'OpenWrt(backfire 10.03.1-RC6)'
p2409
sg4
I0
sg5
I3
sg261
g1138
sg6
g7
(g8
g9
Ntp2410
Rp2411
(dp2412
g13
g7
(g14
g9
Ntp2413
Rp2414
sg17
g18
sg19
(lp2415
F12.116523
aF54.088523
asg22
(dp2416
sbsg24
S'17.06.2012 (13:59:04)'
p2417
sg25
I0
sg26
g2406
sbsS'192.168.2.34'
p2418
(iprimitives
AccesPoint
p2419
(dp2420
g4
Nsg5
I4
sg6
g7
(g8
g9
Ntp2421
Rp2422
(dp2423
g13
g7
(g14
g9
Ntp2424
Rp2425
sg17
g18
sg19
(lp2426
g21
ag21
asg22
(dp2427
sbsg24
Nsg25
Nsg26
g2418
sbsS'192.168.2.35'
p2428
(iprimitives
AccesPoint
p2429
(dp2430
g4
Nsg5
I3
sg6
g7
(g8
g9
Ntp2431
Rp2432
(dp2433
g13
g7
(g14
g9
Ntp2434
Rp2435
sg17
g18
sg19
(lp2436
F12.13313
aF54.0849
asg22
(dp2437
sbsg24
S'17.06.2012 (13:58:04)'
p2438
sg25
Nsg26
g2428
sbsS'192.168.2.36'
p2439
(iprimitives
AccesPoint
p2440
(dp2441
g4
Nsg5
I3
sg6
g7
(g8
g9
Ntp2442
Rp2443
(dp2444
g13
g7
(g14
g9
Ntp2445
Rp2446
sg17
g18
sg19
(lp2447
F12.1332
aF54.0848
asg22
(dp2448
sbsg24
S'17.06.2012 (13:58:04)'
p2449
sg25
Nsg26
g2439
sbsS'192.168.2.37'
p2450
(iprimitives
AccesPoint
p2451
(dp2452
g4
Nsg5
I3
sg6
g7
(g8
g9
Ntp2453
Rp2454
(dp2455
g13
g7
(g14
g9
Ntp2456
Rp2457
sg17
g18
sg19
(lp2458
F12.129319
aF54.083801
asg22
(dp2459
sbsg24
S'17.06.2012 (13:59:04)'
p2460
sg25
Nsg26
g2450
sbsS'192.168.2.30'
p2461
(iprimitives
AccesPoint
p2462
(dp2463
g4
Nsg5
Nsg6
g7
(g8
g9
Ntp2464
Rp2465
(dp2466
g13
g7
(g14
g9
Ntp2467
Rp2468
sg17
g18
sg19
(lp2469
F12.10766
aF54.07657
asg22
(dp2470
sbsg24
Nsg25
Nsg26
g2461
sbsS'192.168.2.31'
p2471
(iprimitives
AccesPoint
p2472
(dp2473
g4
Nsg5
I3
sg6
g7
(g8
g9
Ntp2474
Rp2475
(dp2476
g13
g7
(g14
g9
Ntp2477
Rp2478
sg17
g18
sg19
(lp2479
F12.120597
aF54.072297
asg22
(dp2480
sbsg24
S'17.06.2012 (13:58:04)'
p2481
sg25
Nsg26
g2471
sbsS'192.168.2.32'
p2482
(iprimitives
AccesPoint
p2483
(dp2484
g4
Nsg5
I4
sg6
g7
(g8
g9
Ntp2485
Rp2486
(dp2487
g13
g7
(g14
g9
Ntp2488
Rp2489
sg17
g18
sg19
(lp2490
g21
ag21
asg22
(dp2491
sbsg24
S'31.03.2012 (07:45:04)'
p2492
sg25
Nsg26
g2482
sbsS'192.168.2.33'
p2493
(iprimitives
AccesPoint
p2494
(dp2495
g4
Nsg5
I3
sg6
g7
(g8
g9
Ntp2496
Rp2497
(dp2498
g13
g7
(g14
g9
Ntp2499
Rp2500
sg17
g18
sg19
(lp2501
F12.1334
aF54.0848
asg22
(dp2502
sbsg24
S'17.06.2012 (13:59:04)'
p2503
sg25
Nsg26
g2493
sbsS'192.168.2.38'
p2504
(iprimitives
AccesPoint
p2505
(dp2506
g4
Nsg5
I3
sg6
g7
(g8
g9
Ntp2507
Rp2508
(dp2509
g13
g7
(g14
g9
Ntp2510
Rp2511
sg17
g18
sg19
(lp2512
F12.129282
aF54.083795
asg22
(dp2513
sbsg24
S'17.06.2012 (13:58:04)'
p2514
sg25
Nsg26
g2504
sbsS'192.168.2.39'
p2515
(iprimitives
AccesPoint
p2516
(dp2517
g4
Nsg5
I3
sg6
g7
(g8
g9
Ntp2518
Rp2519
(dp2520
g13
g7
(g14
g9
Ntp2521
Rp2522
sg17
g18
sg19
(lp2523
F12.128606
aF54.082039
asg22
(dp2524
sbsg24
S'17.06.2012 (13:59:04)'
p2525
sg25
Nsg26
g2515
sbsS'192.168.1.225'
p2526
(iprimitives
AccesPoint
p2527
(dp2528
g258
I0
sg259
S'OpenWrt(backfire 10.03.1-RC6)'
p2529
sg4
I0
sg5
I3
sg261
g1229
sg6
g7
(g8
g9
Ntp2530
Rp2531
(dp2532
g13
g7
(g14
g9
Ntp2533
Rp2534
sg17
g18
sg19
(lp2535
F12.294755
aF54.00786
asg22
(dp2536
sbsg24
S'17.06.2012 (13:59:04)'
p2537
sg25
I0
sg26
g2526
sbsS'192.168.1.224'
p2538
(iprimitives
AccesPoint
p2539
(dp2540
g4
Nsg5
I3
sg6
g7
(g8
g9
Ntp2541
Rp2542
(dp2543
g13
g7
(g14
g9
Ntp2544
Rp2545
sg17
g18
sg19
(lp2546
F12.1145
aF54.0889
asg22
(dp2547
sbsg24
S'17.06.2012 (13:58:04)'
p2548
sg25
Nsg26
g2538
sbsS'192.168.1.227'
p2549
(iprimitives
AccesPoint
p2550
(dp2551
g4
Nsg5
I3
sg6
g7
(g8
g9
Ntp2552
Rp2553
(dp2554
g13
g7
(g14
g9
Ntp2555
Rp2556
sg17
g18
sg19
(lp2557
F12.190058
aF54.005707
asg22
(dp2558
sbsg24
S'17.06.2012 (13:57:04)'
p2559
sg25
Nsg26
g2549
sbsS'192.168.1.226'
p2560
(iprimitives
AccesPoint
p2561
(dp2562
g4
Nsg5
I3
sg6
g7
(g8
g9
Ntp2563
Rp2564
(dp2565
g13
g7
(g14
g9
Ntp2566
Rp2567
sg17
g18
sg19
(lp2568
F12.155728
aF54.025016
asg22
(dp2569
sbsg24
S'17.06.2012 (13:58:04)'
p2570
sg25
Nsg26
g2560
sbsS'192.168.1.221'
p2571
(iprimitives
AccesPoint
p2572
(dp2573
g4
Nsg5
I3
sg6
g7
(g8
g9
Ntp2574
Rp2575
(dp2576
g13
g7
(g14
g9
Ntp2577
Rp2578
sg17
g18
sg19
(lp2579
F12.083981
aF54.101537
asg22
(dp2580
sbsg24
S'10.06.2010 (23:27:02)'
p2581
sg25
Nsg26
g2571
sbsS'192.168.1.220'
p2582
(iprimitives
AccesPoint
p2583
(dp2584
g4
Nsg5
Nsg6
g7
(g8
g9
Ntp2585
Rp2586
(dp2587
g13
g7
(g14
g9
Ntp2588
Rp2589
sg17
g18
sg19
(lp2590
F12.130365
aF54.141247
asg22
(dp2591
sbsg24
Nsg25
Nsg26
g2582
sbsS'192.168.1.223'
p2592
(iprimitives
AccesPoint
p2593
(dp2594
g4
Nsg5
I3
sg6
g7
(g8
g9
Ntp2595
Rp2596
(dp2597
g13
g7
(g14
g9
Ntp2598
Rp2599
sg17
g18
sg19
(lp2600
F12.153756
aF54.025936
asg22
(dp2601
sbsg24
S'17.06.2012 (13:30:04)'
p2602
sg25
Nsg26
g2592
sbsS'192.168.1.222'
p2603
(iprimitives
AccesPoint
p2604
(dp2605
g4
Nsg5
I3
sg6
g7
(g8
g9
Ntp2606
Rp2607
(dp2608
g13
g7
(g14
g9
Ntp2609
Rp2610
sg17
g18
sg19
(lp2611
F12.1206
aF54.08885
asg22
(dp2612
sbsg24
S'08.06.2012 (03:01:04)'
p2613
sg25
Nsg26
g2603
sbsS'192.168.1.229'
p2614
(iprimitives
AccesPoint
p2615
(dp2616
g4
Nsg5
I3
sg6
g7
(g8
g9
Ntp2617
Rp2618
(dp2619
g13
g7
(g14
g9
Ntp2620
Rp2621
sg17
g18
sg19
(lp2622
F12.260908
aF54.017397
asg22
(dp2623
sbsg24
S'22.06.2011 (17:33:04)'
p2624
sg25
Nsg26
g2614
sbsS'192.168.1.228'
p2625
(iprimitives
AccesPoint
p2626
(dp2627
g4
Nsg5
Nsg6
g7
(g8
g9
Ntp2628
Rp2629
(dp2630
g13
g7
(g14
g9
Ntp2631
Rp2632
sg17
g18
sg19
(lp2633
F12.260804
aF54.017482
asg22
(dp2634
sbsg24
Nsg25
Nsg26
g2625
sbsS'192.168.1.250'
p2635
(iprimitives
AccesPoint
p2636
(dp2637
g4
Nsg5
I4
sg6
g7
(g8
g9
Ntp2638
Rp2639
(dp2640
g13
g7
(g14
g9
Ntp2641
Rp2642
sg17
g18
sg19
(lp2643
g21
ag21
asg22
(dp2644
sbsg24
Nsg25
Nsg26
g2635
sbsS'192.168.1.251'
p2645
(iprimitives
AccesPoint
p2646
(dp2647
g4
Nsg5
I3
sg6
g7
(g8
g9
Ntp2648
Rp2649
(dp2650
g13
g7
(g14
g9
Ntp2651
Rp2652
sg17
g18
sg19
(lp2653
F12.193564
aF54.011599
asg22
(dp2654
sbsg24
S'12.03.2010 (16:43:38)'
p2655
sg25
Nsg26
g2645
sbsS'192.168.1.252'
p2656
(iprimitives
AccesPoint
p2657
(dp2658
g4
Nsg5
Nsg6
g7
(g8
g9
Ntp2659
Rp2660
(dp2661
g13
g7
(g14
g9
Ntp2662
Rp2663
sg17
g18
sg19
(lp2664
F12.193813
aF54.011665
asg22
(dp2665
sbsg24
Nsg25
Nsg26
g2656
sbsS'192.168.1.253'
p2666
(iprimitives
AccesPoint
p2667
(dp2668
g4
Nsg5
Nsg6
g7
(g8
g9
Ntp2669
Rp2670
(dp2671
g13
g7
(g14
g9
Ntp2672
Rp2673
sg17
g18
sg19
(lp2674
F12.193322
aF54.01398
asg22
(dp2675
sbsg24
Nsg25
Nsg26
g2666
sbsS'192.168.1.254'
p2676
(iprimitives
AccesPoint
p2677
(dp2678
g4
Nsg5
Nsg6
g7
(g8
g9
Ntp2679
Rp2680
(dp2681
g13
g7
(g14
g9
Ntp2682
Rp2683
sg17
g18
sg19
(lp2684
F12.216024
aF53.976358
asg22
(dp2685
sbsg24
Nsg25
Nsg26
g2676
sbsS'192.168.1.255'
p2686
(iprimitives
AccesPoint
p2687
(dp2688
g4
Nsg5
I4
sg6
g7
(g8
g9
Ntp2689
Rp2690
(dp2691
g13
g7
(g14
g9
Ntp2692
Rp2693
sg17
g18
sg19
(lp2694
g21
ag21
asg22
(dp2695
sbsg24
S'21.10.2010 (09:42:06)'
p2696
sg25
Nsg26
g2686
sbsS'192.168.1.131'
p2697
(iprimitives
AccesPoint
p2698
(dp2699
g4
Nsg5
I3
sg6
g7
(g8
g9
Ntp2700
Rp2701
(dp2702
g13
g7
(g14
g9
Ntp2703
Rp2704
sg17
g18
sg19
(lp2705
F12.275398
aF53.968097
asg22
(dp2706
sbsg24
S'11.06.2012 (16:50:04)'
p2707
sg25
Nsg26
g2697
sbsS'192.168.1.130'
p2708
(iprimitives
AccesPoint
p2709
(dp2710
g258
I0
sg259
S'OpenWrt(white russian  0.9-ON5)'
p2711
sg4
I0
sg5
I3
sg261
g1474
sg6
g7
(g8
g9
Ntp2712
Rp2713
(dp2714
g13
g7
(g14
g9
Ntp2715
Rp2716
sg17
g18
sg19
(lp2717
F12.090663
aF54.09619
asg22
(dp2718
sbsg24
S'17.06.2012 (13:59:04)'
p2719
sg25
I1
sg26
g2708
sbsS'192.168.1.133'
p2720
(iprimitives
AccesPoint
p2721
(dp2722
g4
Nsg5
I3
sg6
g7
(g8
g9
Ntp2723
Rp2724
(dp2725
g13
g7
(g14
g9
Ntp2726
Rp2727
sg17
g18
sg19
(lp2728
F12.116227
aF54.088871
asg22
(dp2729
sbsg24
S'19.12.2011 (16:26:04)'
p2730
sg25
Nsg26
g2720
sbsS'192.168.1.132'
p2731
(iprimitives
AccesPoint
p2732
(dp2733
g258
I0
sg259
S'OpenWrt(backfire 10.03.1)'
p2734
sg4
I0
sg5
I3
sg261
g400
sg6
g7
(g8
g9
Ntp2735
Rp2736
(dp2737
g13
g7
(g14
g9
Ntp2738
Rp2739
sg17
g18
sg19
(lp2740
F12.109834
aF54.104898
asg22
(dp2741
sbsg24
S'11.06.2012 (21:21:04)'
p2742
sg25
I0
sg26
g2731
sbsS'192.168.1.135'
p2743
(iprimitives
AccesPoint
p2744
(dp2745
g4
Nsg5
I3
sg6
g7
(g8
g9
Ntp2746
Rp2747
(dp2748
g13
g7
(g14
g9
Ntp2749
Rp2750
sg17
g18
sg19
(lp2751
F12.371995
aF54.274334
asg22
(dp2752
sbsg24
S'17.06.2012 (13:58:04)'
p2753
sg25
Nsg26
g2743
sbsS'192.168.1.134'
p2754
(iprimitives
AccesPoint
p2755
(dp2756
g4
Nsg5
I4
sg6
g7
(g8
g9
Ntp2757
Rp2758
(dp2759
g13
g7
(g14
g9
Ntp2760
Rp2761
sg17
g18
sg19
(lp2762
g21
ag21
asg22
(dp2763
sbsg24
S'15.06.2012 (11:13:04)'
p2764
sg25
Nsg26
g2754
sbsS'192.168.1.137'
p2765
(iprimitives
AccesPoint
p2766
(dp2767
g4
Nsg5
I3
sg6
g7
(g8
g9
Ntp2768
Rp2769
(dp2770
g13
g7
(g14
g9
Ntp2771
Rp2772
sg17
g18
sg19
(lp2773
F12.121847
aF54.087426
asg22
(dp2774
sbsg24
S'04.06.2012 (16:17:04)'
p2775
sg25
Nsg26
g2765
sbsS'192.168.1.136'
p2776
(iprimitives
AccesPoint
p2777
(dp2778
g4
Nsg5
Nsg6
g7
(g8
g9
Ntp2779
Rp2780
(dp2781
g13
g7
(g14
g9
Ntp2782
Rp2783
sg17
g18
sg19
(lp2784
F12.117373
aF54.08854
asg22
(dp2785
sbsg24
Nsg25
Nsg26
g2776
sbsS'192.168.1.139'
p2786
(iprimitives
AccesPoint
p2787
(dp2788
g4
Nsg5
I3
sg6
g7
(g8
g9
Ntp2789
Rp2790
(dp2791
g13
g7
(g14
g9
Ntp2792
Rp2793
sg17
g18
sg19
(lp2794
F12.1131
aF54.09345
asg22
(dp2795
sbsg24
S'29.03.2011 (14:59:04)'
p2796
sg25
Nsg26
g2786
sbsS'192.168.1.138'
p2797
(iprimitives
AccesPoint
p2798
(dp2799
g258
I0
sg259
S'OpenWrt(white russian  RC6-ON3rc4)'
p2800
sg4
I0
sg5
I3
sg261
g387
sg6
g7
(g8
g9
Ntp2801
Rp2802
(dp2803
g13
g7
(g14
g9
Ntp2804
Rp2805
sg17
g18
sg19
(lp2806
F12.11665
aF54.08865
asg22
(dp2807
sbsg24
S'17.06.2012 (13:59:04)'
p2808
sg25
I0
sg26
g2797
sbsS'192.168.2.78'
p2809
(iprimitives
AccesPoint
p2810
(dp2811
g4
Nsg5
I4
sg6
g7
(g8
g9
Ntp2812
Rp2813
(dp2814
g13
g7
(g14
g9
Ntp2815
Rp2816
sg17
g18
sg19
(lp2817
g21
ag21
asg22
(dp2818
sbsg24
Nsg25
Nsg26
g2809
sbsS'192.168.2.79'
p2819
(iprimitives
AccesPoint
p2820
(dp2821
g4
Nsg5
I4
sg6
g7
(g8
g9
Ntp2822
Rp2823
(dp2824
g13
g7
(g14
g9
Ntp2825
Rp2826
sg17
g18
sg19
(lp2827
g21
ag21
asg22
(dp2828
sbsg24
Nsg25
Nsg26
g2819
sbsS'192.168.2.70'
p2829
(iprimitives
AccesPoint
p2830
(dp2831
g4
Nsg5
I4
sg6
g7
(g8
g9
Ntp2832
Rp2833
(dp2834
g13
g7
(g14
g9
Ntp2835
Rp2836
sg17
g18
sg19
(lp2837
g21
ag21
asg22
(dp2838
sbsg24
Nsg25
Nsg26
g2829
sbsS'192.168.2.71'
p2839
(iprimitives
AccesPoint
p2840
(dp2841
g4
Nsg5
I4
sg6
g7
(g8
g9
Ntp2842
Rp2843
(dp2844
g13
g7
(g14
g9
Ntp2845
Rp2846
sg17
g18
sg19
(lp2847
g21
ag21
asg22
(dp2848
sbsg24
Nsg25
Nsg26
g2839
sbsS'192.168.2.72'
p2849
(iprimitives
AccesPoint
p2850
(dp2851
g4
Nsg5
I4
sg6
g7
(g8
g9
Ntp2852
Rp2853
(dp2854
g13
g7
(g14
g9
Ntp2855
Rp2856
sg17
g18
sg19
(lp2857
g21
ag21
asg22
(dp2858
sbsg24
Nsg25
Nsg26
g2849
sbsS'192.168.2.73'
p2859
(iprimitives
AccesPoint
p2860
(dp2861
g4
Nsg5
I4
sg6
g7
(g8
g9
Ntp2862
Rp2863
(dp2864
g13
g7
(g14
g9
Ntp2865
Rp2866
sg17
g18
sg19
(lp2867
g21
ag21
asg22
(dp2868
sbsg24
Nsg25
Nsg26
g2859
sbsS'192.168.2.74'
p2869
(iprimitives
AccesPoint
p2870
(dp2871
g4
Nsg5
I4
sg6
g7
(g8
g9
Ntp2872
Rp2873
(dp2874
g13
g7
(g14
g9
Ntp2875
Rp2876
sg17
g18
sg19
(lp2877
g21
ag21
asg22
(dp2878
sbsg24
Nsg25
Nsg26
g2869
sbsS'192.168.2.75'
p2879
(iprimitives
AccesPoint
p2880
(dp2881
g4
Nsg5
I4
sg6
g7
(g8
g9
Ntp2882
Rp2883
(dp2884
g13
g7
(g14
g9
Ntp2885
Rp2886
sg17
g18
sg19
(lp2887
g21
ag21
asg22
(dp2888
sbsg24
Nsg25
Nsg26
g2879
sbsS'192.168.2.76'
p2889
(iprimitives
AccesPoint
p2890
(dp2891
g4
Nsg5
I4
sg6
g7
(g8
g9
Ntp2892
Rp2893
(dp2894
g13
g7
(g14
g9
Ntp2895
Rp2896
sg17
g18
sg19
(lp2897
g21
ag21
asg22
(dp2898
sbsg24
Nsg25
Nsg26
g2889
sbsS'192.168.2.77'
p2899
(iprimitives
AccesPoint
p2900
(dp2901
g4
Nsg5
I4
sg6
g7
(g8
g9
Ntp2902
Rp2903
(dp2904
g13
g7
(g14
g9
Ntp2905
Rp2906
sg17
g18
sg19
(lp2907
g21
ag21
asg22
(dp2908
sbsg24
Nsg25
Nsg26
g2899
sbsS'192.168.1.57'
p2909
(iprimitives
AccesPoint
p2910
(dp2911
g4
Nsg5
I3
sg6
g7
(g8
g9
Ntp2912
Rp2913
(dp2914
g13
g7
(g14
g9
Ntp2915
Rp2916
sg17
g18
sg19
(lp2917
F12.117866
aF54.091793
asg22
(dp2918
sbsg24
S'17.06.2012 (13:58:04)'
p2919
sg25
Nsg26
g2909
sbsS'192.168.1.56'
p2920
(iprimitives
AccesPoint
p2921
(dp2922
g4
Nsg5
I3
sg6
g7
(g8
g9
Ntp2923
Rp2924
(dp2925
g13
g7
(g14
g9
Ntp2926
Rp2927
sg17
g18
sg19
(lp2928
F12.112
aF54.08846
asg22
(dp2929
sbsg24
S'01.04.2012 (18:43:04)'
p2930
sg25
Nsg26
g2920
sbsS'192.168.1.55'
p2931
(iprimitives
AccesPoint
p2932
(dp2933
g4
Nsg5
I3
sg6
g7
(g8
g9
Ntp2934
Rp2935
(dp2936
g13
g7
(g14
g9
Ntp2937
Rp2938
sg17
g18
sg19
(lp2939
F12.11019
aF54.0908
asg22
(dp2940
sbsg24
S'17.06.2012 (06:16:04)'
p2941
sg25
Nsg26
g2931
sbsS'192.168.1.54'
p2942
(iprimitives
AccesPoint
p2943
(dp2944
g258
I1
sg259
S'OpenWrt(backfire 10.03.1)'
p2945
sg4
I0
sg5
I3
sg261
g1229
sg6
g7
(g8
g9
Ntp2946
Rp2947
(dp2948
g13
g7
(g14
g9
Ntp2949
Rp2950
sg17
g18
sg19
(lp2951
F12.13598
aF54.08267
asg22
(dp2952
sbsg24
S'17.06.2012 (13:59:04)'
p2953
sg25
I0
sg26
g2942
sbsS'192.168.1.53'
p2954
(iprimitives
AccesPoint
p2955
(dp2956
g4
Nsg5
I3
sg6
g7
(g8
g9
Ntp2957
Rp2958
(dp2959
g13
g7
(g14
g9
Ntp2960
Rp2961
sg17
g18
sg19
(lp2962
F12.1237
aF54.08804
asg22
(dp2963
sbsg24
S'27.03.2011 (16:59:04)'
p2964
sg25
Nsg26
g2954
sbsS'192.168.1.52'
p2965
(iprimitives
AccesPoint
p2966
(dp2967
g258
I0
sg259
S'AirOS(XM.v5.2.1 )'
p2968
sg4
I0
sg5
I3
sg261
g262
sg6
g7
(g8
g9
Ntp2969
Rp2970
(dp2971
g13
g7
(g14
g9
Ntp2972
Rp2973
sg17
g18
sg19
(lp2974
F12.120565
aF54.07244
asg22
(dp2975
sbsg24
S'17.06.2012 (13:58:04)'
p2976
sg25
I0
sg26
g2965
sbsS'192.168.1.51'
p2977
(iprimitives
AccesPoint
p2978
(dp2979
g4
Nsg5
I3
sg6
g7
(g8
g9
Ntp2980
Rp2981
(dp2982
g13
g7
(g14
g9
Ntp2983
Rp2984
sg17
g18
sg19
(lp2985
F12.157751
aF54.027553
asg22
(dp2986
sbsg24
S'17.06.2012 (13:57:04)'
p2987
sg25
Nsg26
g2977
sbsS'192.168.1.50'
p2988
(iprimitives
AccesPoint
p2989
(dp2990
g4
Nsg5
I3
sg6
g7
(g8
g9
Ntp2991
Rp2992
(dp2993
g13
g7
(g14
g9
Ntp2994
Rp2995
sg17
g18
sg19
(lp2996
F12.325222
aF53.781149
asg22
(dp2997
sbsg24
S'23.05.2011 (22:37:04)'
p2998
sg25
Nsg26
g2988
sbsS'192.168.1.59'
p2999
(iprimitives
AccesPoint
p3000
(dp3001
g4
Nsg5
I3
sg6
g7
(g8
g9
Ntp3002
Rp3003
(dp3004
g13
g7
(g14
g9
Ntp3005
Rp3006
sg17
g18
sg19
(lp3007
F11.413942
aF53.629559
asg22
(dp3008
sbsg24
S'17.06.2012 (13:59:04)'
p3009
sg25
Nsg26
g2999
sbsS'192.168.1.58'
p3010
(iprimitives
AccesPoint
p3011
(dp3012
g258
I1
sg259
S'OpenWrt(white russian  0.9-ON5)'
p3013
sg4
I0
sg5
I3
sg261
g1474
sg6
g7
(g8
g9
Ntp3014
Rp3015
(dp3016
g13
g7
(g14
g9
Ntp3017
Rp3018
sg17
g18
sg19
(lp3019
F12.158689
aF54.0753
asg22
(dp3020
sbsg24
S'17.06.2012 (13:59:04)'
p3021
sg25
I0
sg26
g3010
sbsS'192.168.2.1'
p3022
(iprimitives
AccesPoint
p3023
(dp3024
g4
Nsg5
I4
sg6
g7
(g8
g9
Ntp3025
Rp3026
(dp3027
g13
g7
(g14
g9
Ntp3028
Rp3029
sg17
g18
sg19
(lp3030
g21
ag21
asg22
(dp3031
sbsg24
Nsg25
Nsg26
g3022
sbsS'192.168.2.2'
p3032
(iprimitives
AccesPoint
p3033
(dp3034
g4
Nsg5
I4
sg6
g7
(g8
g9
Ntp3035
Rp3036
(dp3037
g13
g7
(g14
g9
Ntp3038
Rp3039
sg17
g18
sg19
(lp3040
g21
ag21
asg22
(dp3041
sbsg24
Nsg25
Nsg26
g3032
sbsS'192.168.2.3'
p3042
(iprimitives
AccesPoint
p3043
(dp3044
g258
I0
sg259
S'AirOS(XM.v5.2.1 )'
p3045
sg4
I0
sg5
I3
sg261
g262
sg6
g7
(g8
g9
Ntp3046
Rp3047
(dp3048
g13
g7
(g14
g9
Ntp3049
Rp3050
sg17
g18
sg19
(lp3051
F12.120323
aF54.072364
asg22
(dp3052
sbsg24
S'17.06.2012 (13:58:04)'
p3053
sg25
I0
sg26
g3042
sbsS'192.168.2.4'
p3054
(iprimitives
AccesPoint
p3055
(dp3056
g4
Nsg5
I3
sg6
g7
(g8
g9
Ntp3057
Rp3058
(dp3059
g13
g7
(g14
g9
Ntp3060
Rp3061
sg17
g18
sg19
(lp3062
F12.120377
aF54.072339
asg22
(dp3063
sbsg24
S'17.06.2012 (13:58:04)'
p3064
sg25
Nsg26
g3054
sbsS'192.168.2.5'
p3065
(iprimitives
AccesPoint
p3066
(dp3067
g258
I0
sg259
S'AirOS(XM.v5.2.1 )'
p3068
sg4
I0
sg5
I3
sg261
g262
sg6
g7
(g8
g9
Ntp3069
Rp3070
(dp3071
g13
g7
(g14
g9
Ntp3072
Rp3073
sg17
g18
sg19
(lp3074
F12.107875
aF54.071535
asg22
(dp3075
sbsg24
S'17.06.2012 (13:57:04)'
p3076
sg25
I0
sg26
g3065
sbsS'192.168.2.6'
p3077
(iprimitives
AccesPoint
p3078
(dp3079
g258
I0
sg259
S'AirOS(XM.v5.2.1 )'
p3080
sg4
I0
sg5
I3
sg261
g262
sg6
g7
(g8
g9
Ntp3081
Rp3082
(dp3083
g13
g7
(g14
g9
Ntp3084
Rp3085
sg17
g18
sg19
(lp3086
F12.107988
aF54.071556
asg22
(dp3087
sbsg24
S'17.06.2012 (13:59:04)'
p3088
sg25
I0
sg26
g3077
sbsS'192.168.2.7'
p3089
(iprimitives
AccesPoint
p3090
(dp3091
g4
Nsg5
I3
sg6
g7
(g8
g9
Ntp3092
Rp3093
(dp3094
g13
g7
(g14
g9
Ntp3095
Rp3096
sg17
g18
sg19
(lp3097
F12.106758
aF54.077367
asg22
(dp3098
sbsg24
S'17.06.2012 (13:59:04)'
p3099
sg25
Nsg26
g3089
sbsS'192.168.2.8'
p3100
(iprimitives
AccesPoint
p3101
(dp3102
g4
Nsg5
I3
sg6
g7
(g8
g9
Ntp3103
Rp3104
(dp3105
g13
g7
(g14
g9
Ntp3106
Rp3107
sg17
g18
sg19
(lp3108
F12.106356
aF54.077707
asg22
(dp3109
sbsg24
S'17.06.2012 (13:59:04)'
p3110
sg25
Nsg26
g3100
sbsS'192.168.2.9'
p3111
(iprimitives
AccesPoint
p3112
(dp3113
g4
Nsg5
I3
sg6
g7
(g8
g9
Ntp3114
Rp3115
(dp3116
g13
g7
(g14
g9
Ntp3117
Rp3118
sg17
g18
sg19
(lp3119
F12.112596
aF54.092895
asg22
(dp3120
sbsg24
S'23.06.2011 (16:44:04)'
p3121
sg25
Nsg26
g3111
sbsS'192.168.1.180'
p3122
(iprimitives
AccesPoint
p3123
(dp3124
g4
Nsg5
I3
sg6
g7
(g8
g9
Ntp3125
Rp3126
(dp3127
g13
g7
(g14
g9
Ntp3128
Rp3129
sg17
g18
sg19
(lp3130
F12.21106
aF54.048478
asg22
(dp3131
sbsg24
S'08.09.2011 (20:07:04)'
p3132
sg25
Nsg26
g3122
sbsS'192.168.1.181'
p3133
(iprimitives
AccesPoint
p3134
(dp3135
g4
Nsg5
I4
sg6
g7
(g8
g9
Ntp3136
Rp3137
(dp3138
g13
g7
(g14
g9
Ntp3139
Rp3140
sg17
g18
sg19
(lp3141
g21
ag21
asg22
(dp3142
sbsg24
S'31.03.2012 (03:20:04)'
p3143
sg25
Nsg26
g3133
sbsS'192.168.1.182'
p3144
(iprimitives
AccesPoint
p3145
(dp3146
g4
Nsg5
I3
sg6
g7
(g8
g9
Ntp3147
Rp3148
(dp3149
g13
g7
(g14
g9
Ntp3150
Rp3151
sg17
g18
sg19
(lp3152
F12.10766
aF54.07675
asg22
(dp3153
sbsg24
S'09.12.2011 (12:00:04)'
p3154
sg25
Nsg26
g3144
sbsS'192.168.1.183'
p3155
(iprimitives
AccesPoint
p3156
(dp3157
g4
Nsg5
I3
sg6
g7
(g8
g9
Ntp3158
Rp3159
(dp3160
g13
g7
(g14
g9
Ntp3161
Rp3162
sg17
g18
sg19
(lp3163
F12.123091
aF54.090913
asg22
(dp3164
sbsg24
S'17.06.2012 (13:58:04)'
p3165
sg25
Nsg26
g3155
sbsS'192.168.1.184'
p3166
(iprimitives
AccesPoint
p3167
(dp3168
g258
I0
sg259
S'OpenWrt(backfire 10.03.1-RC6)'
p3169
sg4
I0
sg5
I4
sg261
S'WRAP 2E-E'
p3170
sg6
g7
(g8
g9
Ntp3171
Rp3172
(dp3173
g13
g7
(g14
g9
Ntp3174
Rp3175
sg17
g18
sg19
(lp3176
g21
ag21
asg22
(dp3177
sbsg24
S'08.05.2012 (21:49:04)'
p3178
sg25
I0
sg26
g3166
sbsS'192.168.1.185'
p3179
(iprimitives
AccesPoint
p3180
(dp3181
g258
I0
sg259
S'OpenWrt(backfire 10.03.1-RC6)'
p3182
sg4
I0
sg5
I3
sg261
g3170
sg6
g7
(g8
g9
Ntp3183
Rp3184
(dp3185
g13
g7
(g14
g9
Ntp3186
Rp3187
sg17
g18
sg19
(lp3188
F12.116877
aF54.088677
asg22
(dp3189
sbsg24
S'17.06.2012 (13:58:04)'
p3190
sg25
I0
sg26
g3179
sbsS'192.168.1.186'
p3191
(iprimitives
AccesPoint
p3192
(dp3193
g4
Nsg5
I4
sg6
g7
(g8
g9
Ntp3194
Rp3195
(dp3196
g13
g7
(g14
g9
Ntp3197
Rp3198
sg17
g18
sg19
(lp3199
g21
ag21
asg22
(dp3200
sbsg24
S'08.05.2012 (20:46:04)'
p3201
sg25
Nsg26
g3191
sbsS'192.168.1.187'
p3202
(iprimitives
AccesPoint
p3203
(dp3204
g4
Nsg5
I3
sg6
g7
(g8
g9
Ntp3205
Rp3206
(dp3207
g13
g7
(g14
g9
Ntp3208
Rp3209
sg17
g18
sg19
(lp3210
F12.120597
aF54.072364
asg22
(dp3211
sbsg24
S'17.06.2012 (13:58:04)'
p3212
sg25
Nsg26
g3202
sbsS'192.168.1.188'
p3213
(iprimitives
AccesPoint
p3214
(dp3215
g258
I0
sg259
S'AirOS(XM.v5.3.3 )'
p3216
sg4
I0
sg5
I3
sg261
g262
sg6
g7
(g8
g9
Ntp3217
Rp3218
(dp3219
g13
g7
(g14
g9
Ntp3220
Rp3221
sg17
g18
sg19
(lp3222
F12.11218
aF54.092932
asg22
(dp3223
sbsg24
S'08.05.2012 (10:36:04)'
p3224
sg25
I0
sg26
g3213
sbsS'192.168.1.189'
p3225
(iprimitives
AccesPoint
p3226
(dp3227
g4
Nsg5
I3
sg6
g7
(g8
g9
Ntp3228
Rp3229
(dp3230
g13
g7
(g14
g9
Ntp3231
Rp3232
sg17
g18
sg19
(lp3233
F12.295482
aF54.005653
asg22
(dp3234
sbsg24
S'26.11.2011 (11:15:04)'
p3235
sg25
Nsg26
g3225
sbsS'192.168.1.168'
p3236
(iprimitives
AccesPoint
p3237
(dp3238
g4
Nsg5
I3
sg6
g7
(g8
g9
Ntp3239
Rp3240
(dp3241
g13
g7
(g14
g9
Ntp3242
Rp3243
sg17
g18
sg19
(lp3244
F12.119626
aF54.088027
asg22
(dp3245
sbsg24
S'26.11.2011 (13:26:04)'
p3246
sg25
Nsg26
g3236
sbsS'192.168.1.169'
p3247
(iprimitives
AccesPoint
p3248
(dp3249
g4
Nsg5
I3
sg6
g7
(g8
g9
Ntp3250
Rp3251
(dp3252
g13
g7
(g14
g9
Ntp3253
Rp3254
sg17
g18
sg19
(lp3255
F12.051036
aF54.139198
asg22
(dp3256
sbsg24
S'09.03.2012 (17:53:04)'
p3257
sg25
Nsg26
g3247
sbsS'192.168.1.166'
p3258
(iprimitives
AccesPoint
p3259
(dp3260
g4
Nsg5
I3
sg6
g7
(g8
g9
Ntp3261
Rp3262
(dp3263
g13
g7
(g14
g9
Ntp3264
Rp3265
sg17
g18
sg19
(lp3266
F12.26557
aF53.985181
asg22
(dp3267
sbsg24
S'17.06.2012 (13:59:04)'
p3268
sg25
Nsg26
g3258
sbsS'192.168.1.167'
p3269
(iprimitives
AccesPoint
p3270
(dp3271
g258
I0
sg259
S'OpenWrt(white russian  0.9-ON5)'
p3272
sg4
I0
sg5
I3
sg261
S'Linksys WRT54GS'
p3273
sg6
g7
(g8
g9
Ntp3274
Rp3275
(dp3276
g13
g7
(g14
g9
Ntp3277
Rp3278
sg17
g18
sg19
(lp3279
F12.098436
aF54.092901
asg22
(dp3280
sbsg24
S'17.06.2012 (13:57:04)'
p3281
sg25
I0
sg26
g3269
sbsS'192.168.1.164'
p3282
(iprimitives
AccesPoint
p3283
(dp3284
g4
Nsg5
Nsg6
g7
(g8
g9
Ntp3285
Rp3286
(dp3287
g13
g7
(g14
g9
Ntp3288
Rp3289
sg17
g18
sg19
(lp3290
F12.14839
aF54.090107
asg22
(dp3291
sbsg24
Nsg25
Nsg26
g3282
sbsS'192.168.1.165'
p3292
(iprimitives
AccesPoint
p3293
(dp3294
g258
I0
sg259
S'OpenWrt(white russian  0.9-ON5)'
p3295
sg4
I0
sg5
I3
sg261
g387
sg6
g7
(g8
g9
Ntp3296
Rp3297
(dp3298
g13
g7
(g14
g9
Ntp3299
Rp3300
sg17
g18
sg19
(lp3301
F12.098308
aF54.092875
asg22
(dp3302
sbsg24
S'17.06.2012 (13:58:04)'
p3303
sg25
I0
sg26
g3292
sbsS'192.168.1.162'
p3304
(iprimitives
AccesPoint
p3305
(dp3306
g258
I0
sg259
S'AirOS(XM.v5.3.3 )'
p3307
sg4
I0
sg5
I3
sg261
g262
sg6
g7
(g8
g9
Ntp3308
Rp3309
(dp3310
g13
g7
(g14
g9
Ntp3311
Rp3312
sg17
g18
sg19
(lp3313
F12.116603
aF54.08847
asg22
(dp3314
sbsg24
S'17.06.2012 (13:58:04)'
p3315
sg25
I0
sg26
g3304
sbsS'192.168.1.163'
p3316
(iprimitives
AccesPoint
p3317
(dp3318
g4
Nsg5
I3
sg6
g7
(g8
g9
Ntp3319
Rp3320
(dp3321
g13
g7
(g14
g9
Ntp3322
Rp3323
sg17
g18
sg19
(lp3324
F12.210534
aF54.047865
asg22
(dp3325
sbsg24
S'31.03.2012 (07:41:04)'
p3326
sg25
Nsg26
g3316
sbsS'192.168.1.160'
p3327
(iprimitives
AccesPoint
p3328
(dp3329
g258
I0
sg259
S'AirOS(XM.v5.3.3 )'
p3330
sg4
I0
sg5
I3
sg261
g262
sg6
g7
(g8
g9
Ntp3331
Rp3332
(dp3333
g13
g7
(g14
g9
Ntp3334
Rp3335
sg17
g18
sg19
(lp3336
F12.111901
aF54.093096
asg22
(dp3337
sbsg24
S'17.07.2011 (10:41:04)'
p3338
sg25
I0
sg26
g3327
sbsS'192.168.1.161'
p3339
(iprimitives
AccesPoint
p3340
(dp3341
g4
Nsg5
I3
sg6
g7
(g8
g9
Ntp3342
Rp3343
(dp3344
g13
g7
(g14
g9
Ntp3345
Rp3346
sg17
g18
sg19
(lp3347
F12.123574
aF54.093115
asg22
(dp3348
sbsg24
S'03.10.2011 (11:34:04)'
p3349
sg25
Nsg26
g3339
sbsS'192.168.1.19'
p3350
(iprimitives
AccesPoint
p3351
(dp3352
g4
Nsg5
I4
sg6
g7
(g8
g9
Ntp3353
Rp3354
(dp3355
g13
g7
(g14
g9
Ntp3356
Rp3357
sg17
g18
sg19
(lp3358
g21
ag21
asg22
(dp3359
sbsg24
S'24.05.2012 (16:37:04)'
p3360
sg25
Nsg26
g3350
sbsS'192.168.1.18'
p3361
(iprimitives
AccesPoint
p3362
(dp3363
g4
Nsg5
I3
sg6
g7
(g8
g9
Ntp3364
Rp3365
(dp3366
g13
g7
(g14
g9
Ntp3367
Rp3368
sg17
g18
sg19
(lp3369
F12.114959
aF54.100344
asg22
(dp3370
sbsg24
S'15.08.2010 (09:15:06)'
p3371
sg25
Nsg26
g3361
sbsS'192.168.1.13'
p3372
(iprimitives
AccesPoint
p3373
(dp3374
g4
Nsg5
Nsg6
g7
(g8
g9
Ntp3375
Rp3376
(dp3377
g13
g7
(g14
g9
Ntp3378
Rp3379
sg17
g18
sg19
(lp3380
F12.0987474918
aF54.0908873816
asg22
(dp3381
sbsg24
Nsg25
Nsg26
g3372
sbsS'192.168.1.12'
p3382
(iprimitives
AccesPoint
p3383
(dp3384
g4
Nsg5
I3
sg6
g7
(g8
g9
Ntp3385
Rp3386
(dp3387
g13
g7
(g14
g9
Ntp3388
Rp3389
sg17
g18
sg19
(lp3390
F12.11141
aF54.09238
asg22
(dp3391
sbsg24
S'17.06.2012 (05:02:04)'
p3392
sg25
Nsg26
g3382
sbsS'192.168.1.11'
p3393
(iprimitives
AccesPoint
p3394
(dp3395
g4
Nsg5
I3
sg6
g7
(g8
g9
Ntp3396
Rp3397
(dp3398
g13
g7
(g14
g9
Ntp3399
Rp3400
sg17
g18
sg19
(lp3401
F12.09902644
aF54.09096918
asg22
(dp3402
sbsg24
S'19.11.2011 (01:29:04)'
p3403
sg25
Nsg26
g3393
sbsS'192.168.1.10'
p3404
(iprimitives
AccesPoint
p3405
(dp3406
g258
I0
sg259
S'OpenWrt(backfire 10.03.1-RC6)'
p3407
sg4
I0
sg5
I3
sg261
S'Avila'
p3408
sg6
g7
(g8
g9
Ntp3409
Rp3410
(dp3411
g13
g7
(g14
g9
Ntp3412
Rp3413
sg17
g18
sg19
(lp3414
F12.107926
aF54.071496
asg22
(dp3415
sbsg24
S'17.06.2012 (13:58:04)'
p3416
sg25
I0
sg26
g3404
sbsS'192.168.1.17'
p3417
(iprimitives
AccesPoint
p3418
(dp3419
g4
Nsg5
I3
sg6
g7
(g8
g9
Ntp3420
Rp3421
(dp3422
g13
g7
(g14
g9
Ntp3423
Rp3424
sg17
g18
sg19
(lp3425
F12.11704
aF54.09371
asg22
(dp3426
sbsg24
S'08.06.2011 (09:23:04)'
p3427
sg25
Nsg26
g3417
sbsS'192.168.1.16'
p3428
(iprimitives
AccesPoint
p3429
(dp3430
g4
Nsg5
I4
sg6
g7
(g8
g9
Ntp3431
Rp3432
(dp3433
g13
g7
(g14
g9
Ntp3434
Rp3435
sg17
g18
sg19
(lp3436
g21
ag21
asg22
(dp3437
sbsg24
S'06.09.2011 (10:19:04)'
p3438
sg25
Nsg26
g3428
sbsS'192.168.1.15'
p3439
(iprimitives
AccesPoint
p3440
(dp3441
g4
Nsg5
I3
sg6
g7
(g8
g9
Ntp3442
Rp3443
(dp3444
g13
g7
(g14
g9
Ntp3445
Rp3446
sg17
g18
sg19
(lp3447
F12.11033
aF54.08653
asg22
(dp3448
sbsg24
S'17.06.2012 (13:59:04)'
p3449
sg25
Nsg26
g3439
sbsS'192.168.1.14'
p3450
(iprimitives
AccesPoint
p3451
(dp3452
g4
Nsg5
I3
sg6
g7
(g8
g9
Ntp3453
Rp3454
(dp3455
g13
g7
(g14
g9
Ntp3456
Rp3457
sg17
g18
sg19
(lp3458
F12.11056
aF54.08644
asg22
(dp3459
sbsg24
S'21.11.2011 (03:10:04)'
p3460
sg25
Nsg26
g3450
sbsV192.168.11.93
p3461
g497
sS'192.168.2.27'
p3462
(iprimitives
AccesPoint
p3463
(dp3464
g4
Nsg5
Nsg6
g7
(g8
g9
Ntp3465
Rp3466
(dp3467
g13
g7
(g14
g9
Ntp3468
Rp3469
sg17
g18
sg19
(lp3470
F12.10766
aF54.07657
asg22
(dp3471
sbsg24
Nsg25
Nsg26
g3462
sbsS'192.168.2.26'
p3472
(iprimitives
AccesPoint
p3473
(dp3474
g4
Nsg5
Nsg6
g7
(g8
g9
Ntp3475
Rp3476
(dp3477
g13
g7
(g14
g9
Ntp3478
Rp3479
sg17
g18
sg19
(lp3480
F12.10766
aF54.07657
asg22
(dp3481
sbsg24
Nsg25
Nsg26
g3472
sbsS'192.168.2.25'
p3482
(iprimitives
AccesPoint
p3483
(dp3484
g4
Nsg5
Nsg6
g7
(g8
g9
Ntp3485
Rp3486
(dp3487
g13
g7
(g14
g9
Ntp3488
Rp3489
sg17
g18
sg19
(lp3490
F12.10766
aF54.07657
asg22
(dp3491
sbsg24
Nsg25
Nsg26
g3482
sbsS'192.168.2.24'
p3492
(iprimitives
AccesPoint
p3493
(dp3494
g4
Nsg5
Nsg6
g7
(g8
g9
Ntp3495
Rp3496
(dp3497
g13
g7
(g14
g9
Ntp3498
Rp3499
sg17
g18
sg19
(lp3500
F12.10766
aF54.07657
asg22
(dp3501
sbsg24
Nsg25
Nsg26
g3492
sbsS'192.168.2.23'
p3502
(iprimitives
AccesPoint
p3503
(dp3504
g4
Nsg5
Nsg6
g7
(g8
g9
Ntp3505
Rp3506
(dp3507
g13
g7
(g14
g9
Ntp3508
Rp3509
sg17
g18
sg19
(lp3510
F12.10766
aF54.07657
asg22
(dp3511
sbsg24
Nsg25
Nsg26
g3502
sbsS'192.168.2.22'
p3512
(iprimitives
AccesPoint
p3513
(dp3514
g4
Nsg5
I3
sg6
g7
(g8
g9
Ntp3515
Rp3516
(dp3517
g13
g7
(g14
g9
Ntp3518
Rp3519
sg17
g18
sg19
(lp3520
F12.10692
aF54.07669
asg22
(dp3521
sbsg24
S'03.08.2011 (08:31:04)'
p3522
sg25
Nsg26
g3512
sbsS'192.168.2.21'
p3523
(iprimitives
AccesPoint
p3524
(dp3525
g4
Nsg5
Nsg6
g7
(g8
g9
Ntp3526
Rp3527
(dp3528
g13
g7
(g14
g9
Ntp3529
Rp3530
sg17
g18
sg19
(lp3531
F12.11588
aF54.07454
asg22
(dp3532
sbsg24
Nsg25
Nsg26
g3523
sbsS'192.168.2.20'
p3533
(iprimitives
AccesPoint
p3534
(dp3535
g4
Nsg5
I3
sg6
g7
(g8
g9
Ntp3536
Rp3537
(dp3538
g13
g7
(g14
g9
Ntp3539
Rp3540
sg17
g18
sg19
(lp3541
F12.131
aF54.14069
asg22
(dp3542
sbsg24
S'17.06.2012 (13:59:04)'
p3543
sg25
Nsg26
g3533
sbsS'192.168.2.29'
p3544
(iprimitives
AccesPoint
p3545
(dp3546
g4
Nsg5
Nsg6
g7
(g8
g9
Ntp3547
Rp3548
(dp3549
g13
g7
(g14
g9
Ntp3550
Rp3551
sg17
g18
sg19
(lp3552
F12.10766
aF54.07657
asg22
(dp3553
sbsg24
Nsg25
Nsg26
g3544
sbsS'192.168.2.28'
p3554
(iprimitives
AccesPoint
p3555
(dp3556
g4
Nsg5
Nsg6
g7
(g8
g9
Ntp3557
Rp3558
(dp3559
g13
g7
(g14
g9
Ntp3560
Rp3561
sg17
g18
sg19
(lp3562
F12.10766
aF54.07657
asg22
(dp3563
sbsg24
Nsg25
Nsg26
g3554
sbsS'192.168.2.98'
p3564
(iprimitives
AccesPoint
p3565
(dp3566
g4
Nsg5
I4
sg6
g7
(g8
g9
Ntp3567
Rp3568
(dp3569
g13
g7
(g14
g9
Ntp3570
Rp3571
sg17
g18
sg19
(lp3572
g21
ag21
asg22
(dp3573
sbsg24
Nsg25
Nsg26
g3564
sbsS'192.168.2.99'
p3574
(iprimitives
AccesPoint
p3575
(dp3576
g4
Nsg5
I4
sg6
g7
(g8
g9
Ntp3577
Rp3578
(dp3579
g13
g7
(g14
g9
Ntp3580
Rp3581
sg17
g18
sg19
(lp3582
g21
ag21
asg22
(dp3583
sbsg24
Nsg25
Nsg26
g3574
sbsS'192.168.2.92'
p3584
(iprimitives
AccesPoint
p3585
(dp3586
g4
Nsg5
I4
sg6
g7
(g8
g9
Ntp3587
Rp3588
(dp3589
g13
g7
(g14
g9
Ntp3590
Rp3591
sg17
g18
sg19
(lp3592
g21
ag21
asg22
(dp3593
sbsg24
Nsg25
Nsg26
g3584
sbsS'192.168.2.93'
p3594
(iprimitives
AccesPoint
p3595
(dp3596
g4
Nsg5
I4
sg6
g7
(g8
g9
Ntp3597
Rp3598
(dp3599
g13
g7
(g14
g9
Ntp3600
Rp3601
sg17
g18
sg19
(lp3602
g21
ag21
asg22
(dp3603
sbsg24
Nsg25
Nsg26
g3594
sbsS'192.168.2.90'
p3604
(iprimitives
AccesPoint
p3605
(dp3606
g4
Nsg5
I4
sg6
g7
(g8
g9
Ntp3607
Rp3608
(dp3609
g13
g7
(g14
g9
Ntp3610
Rp3611
sg17
g18
sg19
(lp3612
g21
ag21
asg22
(dp3613
sbsg24
Nsg25
Nsg26
g3604
sbsS'192.168.2.91'
p3614
(iprimitives
AccesPoint
p3615
(dp3616
g4
Nsg5
I4
sg6
g7
(g8
g9
Ntp3617
Rp3618
(dp3619
g13
g7
(g14
g9
Ntp3620
Rp3621
sg17
g18
sg19
(lp3622
g21
ag21
asg22
(dp3623
sbsg24
Nsg25
Nsg26
g3614
sbsS'192.168.2.96'
p3624
(iprimitives
AccesPoint
p3625
(dp3626
g4
Nsg5
I4
sg6
g7
(g8
g9
Ntp3627
Rp3628
(dp3629
g13
g7
(g14
g9
Ntp3630
Rp3631
sg17
g18
sg19
(lp3632
g21
ag21
asg22
(dp3633
sbsg24
Nsg25
Nsg26
g3624
sbsS'192.168.2.97'
p3634
(iprimitives
AccesPoint
p3635
(dp3636
g4
Nsg5
I4
sg6
g7
(g8
g9
Ntp3637
Rp3638
(dp3639
g13
g7
(g14
g9
Ntp3640
Rp3641
sg17
g18
sg19
(lp3642
g21
ag21
asg22
(dp3643
sbsg24
Nsg25
Nsg26
g3634
sbsS'192.168.2.94'
p3644
(iprimitives
AccesPoint
p3645
(dp3646
g4
Nsg5
I4
sg6
g7
(g8
g9
Ntp3647
Rp3648
(dp3649
g13
g7
(g14
g9
Ntp3650
Rp3651
sg17
g18
sg19
(lp3652
g21
ag21
asg22
(dp3653
sbsg24
Nsg25
Nsg26
g3644
sbsS'192.168.2.95'
p3654
(iprimitives
AccesPoint
p3655
(dp3656
g4
Nsg5
I4
sg6
g7
(g8
g9
Ntp3657
Rp3658
(dp3659
g13
g7
(g14
g9
Ntp3660
Rp3661
sg17
g18
sg19
(lp3662
g21
ag21
asg22
(dp3663
sbsg24
Nsg25
Nsg26
g3654
sbsS'192.168.1.236'
p3664
(iprimitives
AccesPoint
p3665
(dp3666
g4
Nsg5
I3
sg6
g7
(g8
g9
Ntp3667
Rp3668
(dp3669
g13
g7
(g14
g9
Ntp3670
Rp3671
sg17
g18
sg19
(lp3672
F12.116523
aF54.088677
asg22
(dp3673
sbsg24
S'17.06.2012 (13:57:04)'
p3674
sg25
Nsg26
g3664
sbsS'192.168.1.237'
p3675
(iprimitives
AccesPoint
p3676
(dp3677
g4
Nsg5
I3
sg6
g7
(g8
g9
Ntp3678
Rp3679
(dp3680
g13
g7
(g14
g9
Ntp3681
Rp3682
sg17
g18
sg19
(lp3683
F12.387847
aF53.758125
asg22
(dp3684
sbsg24
S'17.06.2012 (13:59:04)'
p3685
sg25
Nsg26
g3675
sbsS'192.168.1.234'
p3686
(iprimitives
AccesPoint
p3687
(dp3688
g4
Nsg5
I3
sg6
g7
(g8
g9
Ntp3689
Rp3690
(dp3691
g13
g7
(g14
g9
Ntp3692
Rp3693
sg17
g18
sg19
(lp3694
F12.119057
aF54.101998
asg22
(dp3695
sbsg24
S'17.06.2012 (13:59:04)'
p3696
sg25
Nsg26
g3686
sbsS'192.168.1.235'
p3697
(iprimitives
AccesPoint
p3698
(dp3699
g4
Nsg5
I3
sg6
g7
(g8
g9
Ntp3700
Rp3701
(dp3702
g13
g7
(g14
g9
Ntp3703
Rp3704
sg17
g18
sg19
(lp3705
F12.098536
aF54.092801
asg22
(dp3706
sbsg24
S'17.06.2012 (13:57:04)'
p3707
sg25
Nsg26
g3697
sbsS'192.168.1.232'
p3708
(iprimitives
AccesPoint
p3709
(dp3710
g4
Nsg5
I3
sg6
g7
(g8
g9
Ntp3711
Rp3712
(dp3713
g13
g7
(g14
g9
Ntp3714
Rp3715
sg17
g18
sg19
(lp3716
F12.509345
aF53.776477
asg22
(dp3717
sbsg24
S'17.06.2012 (13:58:04)'
p3718
sg25
Nsg26
g3708
sbsS'192.168.1.233'
p3719
(iprimitives
AccesPoint
p3720
(dp3721
g4
Nsg5
I3
sg6
g7
(g8
g9
Ntp3722
Rp3723
(dp3724
g13
g7
(g14
g9
Ntp3725
Rp3726
sg17
g18
sg19
(lp3727
F12.1167
aF54.08875
asg22
(dp3728
sbsg24
S'17.06.2012 (13:58:04)'
p3729
sg25
Nsg26
g3719
sbsS'192.168.1.230'
p3730
(iprimitives
AccesPoint
p3731
(dp3732
g4
Nsg5
I3
sg6
g7
(g8
g9
Ntp3733
Rp3734
(dp3735
g13
g7
(g14
g9
Ntp3736
Rp3737
sg17
g18
sg19
(lp3738
F12.294624
aF54.00793
asg22
(dp3739
sbsg24
S'17.06.2012 (13:58:04)'
p3740
sg25
Nsg26
g3730
sbsS'192.168.1.231'
p3741
(iprimitives
AccesPoint
p3742
(dp3743
g258
I0
sg259
S'OpenWrt(backfire 10.03.1-RC6)'
p3744
sg4
I0
sg5
I3
sg261
g1229
sg6
g7
(g8
g9
Ntp3745
Rp3746
(dp3747
g13
g7
(g14
g9
Ntp3748
Rp3749
sg17
g18
sg19
(lp3750
F12.294742
aF54.00796
asg22
(dp3751
sbsg24
S'17.06.2012 (13:59:04)'
p3752
sg25
I0
sg26
g3741
sbsS'192.168.1.238'
p3753
(iprimitives
AccesPoint
p3754
(dp3755
g258
I1
sg259
S'OpenWrt(white russian  0.9-ON5)'
p3756
sg4
I0
sg5
I3
sg261
g387
sg6
g7
(g8
g9
Ntp3757
Rp3758
(dp3759
g13
g7
(g14
g9
Ntp3760
Rp3761
sg17
g18
sg19
(lp3762
F12.477508
aF53.757668
asg22
(dp3763
sbsg24
S'17.06.2012 (13:58:04)'
p3764
sg25
I0
sg26
g3753
sbsS'192.168.1.239'
p3765
(iprimitives
AccesPoint
p3766
(dp3767
g258
I1
sg259
S'OpenWrt(backfire 10.03.1)'
p3768
sg4
I0
sg5
I3
sg261
g400
sg6
g7
(g8
g9
Ntp3769
Rp3770
(dp3771
g13
g7
(g14
g9
Ntp3772
Rp3773
sg17
g18
sg19
(lp3774
F11.421
aF53.7008
asg22
(dp3775
sbsg24
S'17.06.2012 (13:57:04)'
p3776
sg25
I0
sg26
g3765
sbsS'192.168.1.122'
p3777
(iprimitives
AccesPoint
p3778
(dp3779
g4
Nsg5
I3
sg6
g7
(g8
g9
Ntp3780
Rp3781
(dp3782
g13
g7
(g14
g9
Ntp3783
Rp3784
sg17
g18
sg19
(lp3785
F12.1153
aF54.0875
asg22
(dp3786
sbsg24
S'17.06.2012 (13:58:04)'
p3787
sg25
Nsg26
g3777
sbsS'192.168.1.123'
p3788
(iprimitives
AccesPoint
p3789
(dp3790
g4
Nsg5
I3
sg6
g7
(g8
g9
Ntp3791
Rp3792
(dp3793
g13
g7
(g14
g9
Ntp3794
Rp3795
sg17
g18
sg19
(lp3796
F12.16791
aF54.09918
asg22
(dp3797
sbsg24
S'17.06.2012 (13:59:04)'
p3798
sg25
Nsg26
g3788
sbsS'192.168.1.120'
p3799
(iprimitives
AccesPoint
p3800
(dp3801
g258
I0
sg259
S'OpenWrt(backfire 10.03.1)'
p3802
sg4
I0
sg5
I3
sg261
S'Ubiquiti Routerstation'
p3803
sg6
g7
(g8
g9
Ntp3804
Rp3805
(dp3806
g13
g7
(g14
g9
Ntp3807
Rp3808
sg17
g18
sg19
(lp3809
F12.12858
aF54.08195
asg22
(dp3810
sbsg24
S'17.06.2012 (13:58:04)'
p3811
sg25
I0
sg26
g3799
sbsS'192.168.1.121'
p3812
(iprimitives
AccesPoint
p3813
(dp3814
g4
Nsg5
I3
sg6
g7
(g8
g9
Ntp3815
Rp3816
(dp3817
g13
g7
(g14
g9
Ntp3818
Rp3819
sg17
g18
sg19
(lp3820
F12.266112
aF53.983061
asg22
(dp3821
sbsg24
S'14.04.2012 (12:09:04)'
p3822
sg25
Nsg26
g3812
sbsS'192.168.1.126'
p3823
(iprimitives
AccesPoint
p3824
(dp3825
g4
Nsg5
I3
sg6
g7
(g8
g9
Ntp3826
Rp3827
(dp3828
g13
g7
(g14
g9
Ntp3829
Rp3830
sg17
g18
sg19
(lp3831
F12.12048
aF54.072297
asg22
(dp3832
sbsg24
S'17.06.2012 (13:57:04)'
p3833
sg25
Nsg26
g3823
sbsS'192.168.1.127'
p3834
(iprimitives
AccesPoint
p3835
(dp3836
g4
Nsg5
I3
sg6
g7
(g8
g9
Ntp3837
Rp3838
(dp3839
g13
g7
(g14
g9
Ntp3840
Rp3841
sg17
g18
sg19
(lp3842
F12.126793
aF54.095688
asg22
(dp3843
sbsg24
S'17.06.2012 (13:58:04)'
p3844
sg25
Nsg26
g3834
sbsS'192.168.1.124'
p3845
(iprimitives
AccesPoint
p3846
(dp3847
g258
I1
sg259
S'OpenWrt(backfire 10.03.1-RC6)'
p3848
sg4
I1
sg5
I3
sg261
g1138
sg6
g7
(g8
g9
Ntp3849
Rp3850
(dp3851
g13
g7
(g14
g9
Ntp3852
Rp3853
sg17
g18
sg19
(lp3854
F12.11665
aF54.08855
asg22
(dp3855
sbsg24
S'17.06.2012 (13:58:04)'
p3856
sg25
I0
sg26
g3845
sbsS'192.168.1.125'
p3857
(iprimitives
AccesPoint
p3858
(dp3859
g4
Nsg5
I3
sg6
g7
(g8
g9
Ntp3860
Rp3861
(dp3862
g13
g7
(g14
g9
Ntp3863
Rp3864
sg17
g18
sg19
(lp3865
F12.211787
aF54.048949
asg22
(dp3866
sbsg24
S'14.01.2012 (13:33:04)'
p3867
sg25
Nsg26
g3857
sbsS'192.168.1.128'
p3868
(iprimitives
AccesPoint
p3869
(dp3870
g258
I0
sg259
S'OpenWrt(backfire 10.03.1)'
p3871
sg4
I1
sg5
I3
sg261
g1229
sg6
g7
(g8
g9
Ntp3872
Rp3873
(dp3874
g13
g7
(g14
g9
Ntp3875
Rp3876
sg17
g18
sg19
(lp3877
F12.114927
aF54.0881
asg22
(dp3878
sbsg24
S'17.06.2012 (13:58:04)'
p3879
sg25
I0
sg26
g3868
sbsS'192.168.1.129'
p3880
(iprimitives
AccesPoint
p3881
(dp3882
g4
Nsg5
I4
sg6
g7
(g8
g9
Ntp3883
Rp3884
(dp3885
g13
g7
(g14
g9
Ntp3886
Rp3887
sg17
g18
sg19
(lp3888
g21
ag21
asg22
(dp3889
sbsg24
S'17.06.2012 (13:59:04)'
p3890
sg25
Nsg26
g3880
sbs.