(dp0
S'192.168.2.14'
p1
(iprimitives
AccesPoint
p2
(dp3
S'wifidog'
p4
NsS'state'
p5
NsS'position'
p6
ccopy_reg
_reconstructor
p7
(cgeojson.geometry
Point
p8
c__builtin__
object
p9
Ntp10
Rp11
(dp12
S'crs'
p13
g7
(cgeojson.crs
Default
p14
g9
Ntp15
Rp16
sS'type'
p17
S'Point'
p18
sS'coordinates'
p19
(lp20
F12.158569999999999
aF54.027749999999997
asS'extra'
p21
(dp22
sbsS'lastonline'
p23
NsS'ugw'
p24
NsS'id'
p25
g1
sbsS'192.168.1.119'
p26
(iprimitives
AccesPoint
p27
(dp28
g4
Nsg5
I3
sg6
g7
(g8
g9
Ntp29
Rp30
(dp31
g13
g7
(g14
g9
Ntp32
Rp33
sg17
g18
sg19
(lp34
S''
p35
ag35
asg21
(dp36
sbsg23
S'17.02.2010 (05:10:07)'
p37
sg24
Nsg25
g26
sbsS'192.168.1.118'
p38
(iprimitives
AccesPoint
p39
(dp40
g4
Nsg5
I0
sg6
g7
(g8
g9
Ntp41
Rp42
(dp43
g13
g7
(g14
g9
Ntp44
Rp45
sg17
g18
sg19
(lp46
F12.114927
aF54.087828999999999
asg21
(dp47
sbsg23
S'07.06.2012 (09:11:03)'
p48
sg24
Nsg25
g38
sbsS'192.168.1.117'
p49
(iprimitives
AccesPoint
p50
(dp51
g4
Nsg5
Nsg6
g7
(g8
g9
Ntp52
Rp53
(dp54
g13
g7
(g14
g9
Ntp55
Rp56
sg17
g18
sg19
(lp57
F12.110621
aF54.090420999999999
asg21
(dp58
sbsg23
Nsg24
Nsg25
g49
sbsS'192.168.1.116'
p59
(iprimitives
AccesPoint
p60
(dp61
S'vpn'
p62
I0
sS'os'
p63
S'AirOS(XM.v5.3.3 )'
p64
sg4
I0
sg5
I0
sS'board'
p65
S'Ubiquiti NanoBridge M5'
p66
sg6
g7
(g8
g9
Ntp67
Rp68
(dp69
g13
g7
(g14
g9
Ntp70
Rp71
sg17
g18
sg19
(lp72
F11.421234999999999
aF53.700792
asg21
(dp73
sbsg23
S'07.06.2012 (09:11:03)'
p74
sg24
I0
sg25
g59
sbsS'192.168.1.115'
p75
(iprimitives
AccesPoint
p76
(dp77
g4
Nsg5
I3
sg6
g7
(g8
g9
Ntp78
Rp79
(dp80
g13
g7
(g14
g9
Ntp81
Rp82
sg17
g18
sg19
(lp83
g35
ag35
asg21
(dp84
sbsg23
S'25.06.2011 (19:02:03)'
p85
sg24
Nsg25
g75
sbsS'192.168.1.114'
p86
(iprimitives
AccesPoint
p87
(dp88
g4
Nsg5
I3
sg6
g7
(g8
g9
Ntp89
Rp90
(dp91
g13
g7
(g14
g9
Ntp92
Rp93
sg17
g18
sg19
(lp94
F12.156051
aF54.027887
asg21
(dp95
sbsg23
S'09.04.2012 (16:38:03)'
p96
sg24
Nsg25
g86
sbsS'192.168.1.113'
p97
(iprimitives
AccesPoint
p98
(dp99
g62
I0
sg63
S'AirOS(XM.v5.3.3 )'
p100
sg4
I0
sg5
I0
sg65
g66
sg6
g7
(g8
g9
Ntp101
Rp102
(dp103
g13
g7
(g14
g9
Ntp104
Rp105
sg17
g18
sg19
(lp106
F11.413947
aF53.629677000000001
asg21
(dp107
sbsg23
S'07.06.2012 (09:11:03)'
p108
sg24
I0
sg25
g97
sbsS'192.168.1.112'
p109
(iprimitives
AccesPoint
p110
(dp111
g4
Nsg5
I0
sg6
g7
(g8
g9
Ntp112
Rp113
(dp114
g13
g7
(g14
g9
Ntp115
Rp116
sg17
g18
sg19
(lp117
F12.155771
aF54.025191999999997
asg21
(dp118
sbsg23
S'07.06.2012 (09:11:03)'
p119
sg24
Nsg25
g109
sbsS'192.168.1.111'
p120
(iprimitives
AccesPoint
p121
(dp122
g4
Nsg5
I0
sg6
g7
(g8
g9
Ntp123
Rp124
(dp125
g13
g7
(g14
g9
Ntp126
Rp127
sg17
g18
sg19
(lp128
F12.189857
aF54.005510999999998
asg21
(dp129
sbsg23
S'07.06.2012 (09:11:03)'
p130
sg24
Nsg25
g120
sbsS'192.168.1.110'
p131
(iprimitives
AccesPoint
p132
(dp133
g62
I0
sg63
S'AirOS(XM.v5.2.1 )'
p134
sg4
I0
sg5
I0
sg65
S'Ubiquiti NanoStration M5'
p135
sg6
g7
(g8
g9
Ntp136
Rp137
(dp138
g13
g7
(g14
g9
Ntp139
Rp140
sg17
g18
sg19
(lp141
F12.128500000000001
aF54.082000000000001
asg21
(dp142
sbsg23
S'07.06.2012 (09:11:03)'
p143
sg24
I0
sg25
g131
sbsS'192.168.1.138'
p144
(iprimitives
AccesPoint
p145
(dp146
g62
I0
sg63
S'OpenWrt(white russian  RC6-ON3rc4)'
p147
sg4
I0
sg5
I0
sg65
S'Linksys WRT54GL'
p148
sg6
g7
(g8
g9
Ntp149
Rp150
(dp151
g13
g7
(g14
g9
Ntp152
Rp153
sg17
g18
sg19
(lp154
F12.11665
aF54.088650000000001
asg21
(dp155
sbsg23
S'07.06.2012 (09:11:03)'
p156
sg24
I0
sg25
g144
sbsS'192.168.1.62'
p157
(iprimitives
AccesPoint
p158
(dp159
g62
I1
sg63
S'OpenWrt(white russian  0.9-ON5)'
p160
sg4
I0
sg5
I0
sg65
S'Linksys WRT54G'
p161
sg6
g7
(g8
g9
Ntp162
Rp163
(dp164
g13
g7
(g14
g9
Ntp165
Rp166
sg17
g18
sg19
(lp167
F12.1066
aF54.092599999999997
asg21
(dp168
sbsg23
S'07.06.2012 (09:11:03)'
p169
sg24
I1
sg25
g157
sbsS'192.168.1.63'
p170
(iprimitives
AccesPoint
p171
(dp172
g4
Nsg5
I3
sg6
g7
(g8
g9
Ntp173
Rp174
(dp175
g13
g7
(g14
g9
Ntp176
Rp177
sg17
g18
sg19
(lp178
F12.111717000000001
aF54.092106999999999
asg21
(dp179
sbsg23
S'22.08.2010 (17:30:06)'
p180
sg24
Nsg25
g170
sbsS'192.168.1.60'
p181
(iprimitives
AccesPoint
p182
(dp183
g4
Nsg5
Nsg6
g7
(g8
g9
Ntp184
Rp185
(dp186
g13
g7
(g14
g9
Ntp187
Rp188
sg17
g18
sg19
(lp189
g35
ag35
asg21
(dp190
sbsg23
Nsg24
Nsg25
g181
sbsS'192.168.1.61'
p191
(iprimitives
AccesPoint
p192
(dp193
g4
Nsg5
I3
sg6
g7
(g8
g9
Ntp194
Rp195
(dp196
g13
g7
(g14
g9
Ntp197
Rp198
sg17
g18
sg19
(lp199
g35
ag35
asg21
(dp200
sbsg23
S'30.03.2010 (16:04:03)'
p201
sg24
Nsg25
g191
sbsS'192.168.1.66'
p202
(iprimitives
AccesPoint
p203
(dp204
g4
Nsg5
I0
sg6
g7
(g8
g9
Ntp205
Rp206
(dp207
g13
g7
(g14
g9
Ntp208
Rp209
sg17
g18
sg19
(lp210
F12.1099
aF54.086260000000003
asg21
(dp211
sbsg23
S'07.06.2012 (09:11:03)'
p212
sg24
Nsg25
g202
sbsS'192.168.1.67'
p213
(iprimitives
AccesPoint
p214
(dp215
g62
I1
sg63
S'OpenWrt(white russian  0.9-ON5)'
p216
sg4
I0
sg5
I0
sg65
g148
sg6
g7
(g8
g9
Ntp217
Rp218
(dp219
g13
g7
(g14
g9
Ntp220
Rp221
sg17
g18
sg19
(lp222
F12.156672
aF54.024940000000001
asg21
(dp223
sbsg23
S'07.06.2012 (09:11:03)'
p224
sg24
I0
sg25
g213
sbsS'192.168.1.64'
p225
(iprimitives
AccesPoint
p226
(dp227
g4
Nsg5
Nsg6
g7
(g8
g9
Ntp228
Rp229
(dp230
g13
g7
(g14
g9
Ntp231
Rp232
sg17
g18
sg19
(lp233
F12.260965000000001
aF54.017522
asg21
(dp234
sbsg23
Nsg24
Nsg25
g225
sbsS'192.168.1.65'
p235
(iprimitives
AccesPoint
p236
(dp237
g4
Nsg5
Nsg6
g7
(g8
g9
Ntp238
Rp239
(dp240
g13
g7
(g14
g9
Ntp241
Rp242
sg17
g18
sg19
(lp243
F12.336059000000001
aF54.020904999999999
asg21
(dp244
sbsg23
Nsg24
Nsg25
g235
sbsS'192.168.1.184'
p245
(iprimitives
AccesPoint
p246
(dp247
g62
I0
sg63
S'OpenWrt(backfire 10.03.1-RC6)'
p248
sg4
I0
sg5
I3
sg65
S'WRAP 2E-E'
p249
sg6
g7
(g8
g9
Ntp250
Rp251
(dp252
g13
g7
(g14
g9
Ntp253
Rp254
sg17
g18
sg19
(lp255
g35
ag35
asg21
(dp256
sbsg23
S'08.05.2012 (20:49:04)'
p257
sg24
I0
sg25
g245
sbsS'192.168.1.68'
p258
(iprimitives
AccesPoint
p259
(dp260
g4
Nsg5
Nsg6
g7
(g8
g9
Ntp261
Rp262
(dp263
g13
g7
(g14
g9
Ntp264
Rp265
sg17
g18
sg19
(lp266
g35
ag35
asg21
(dp267
sbsg23
Nsg24
Nsg25
g258
sbsS'192.168.1.69'
p268
(iprimitives
AccesPoint
p269
(dp270
g4
Nsg5
I3
sg6
g7
(g8
g9
Ntp271
Rp272
(dp273
g13
g7
(g14
g9
Ntp274
Rp275
sg17
g18
sg19
(lp276
F12.211154000000001
aF54.048495000000003
asg21
(dp277
sbsg23
S'23.10.2011 (15:10:03)'
p278
sg24
Nsg25
g268
sbsS'192.168.2.21'
p279
(iprimitives
AccesPoint
p280
(dp281
g4
Nsg5
Nsg6
g7
(g8
g9
Ntp282
Rp283
(dp284
g13
g7
(g14
g9
Ntp285
Rp286
sg17
g18
sg19
(lp287
F12.115880000000001
aF54.074539999999999
asg21
(dp288
sbsg23
Nsg24
Nsg25
g279
sbsS'192.168.1.80'
p289
(iprimitives
AccesPoint
p290
(dp291
g62
I1
sg63
S'OpenWrt(white russian  0.9-ON5)'
p292
sg4
I0
sg5
I0
sg65
g148
sg6
g7
(g8
g9
Ntp293
Rp294
(dp295
g13
g7
(g14
g9
Ntp296
Rp297
sg17
g18
sg19
(lp298
F12.155063
aF54.027033000000003
asg21
(dp299
sbsg23
S'07.06.2012 (09:11:03)'
p300
sg24
I0
sg25
g289
sbsS'192.168.1.81'
p301
(iprimitives
AccesPoint
p302
(dp303
g4
Nsg5
I3
sg6
g7
(g8
g9
Ntp304
Rp305
(dp306
g13
g7
(g14
g9
Ntp307
Rp308
sg17
g18
sg19
(lp309
F12.11149
aF54.092440000000003
asg21
(dp310
sbsg23
S'01.09.2011 (04:09:03)'
p311
sg24
Nsg25
g301
sbsS'192.168.1.82'
p312
(iprimitives
AccesPoint
p313
(dp314
g4
Nsg5
I1
sg6
g7
(g8
g9
Ntp315
Rp316
(dp317
g13
g7
(g14
g9
Ntp318
Rp319
sg17
g18
sg19
(lp320
F12.121611
aF54.087010999999997
asg21
(dp321
sbsg23
S'04.06.2012 (18:42:03)'
p322
sg24
Nsg25
g312
sbsS'192.168.2.3'
p323
(iprimitives
AccesPoint
p324
(dp325
g62
I0
sg63
S'AirOS(XM.v5.2.1 )'
p326
sg4
I0
sg5
I0
sg65
g135
sg6
g7
(g8
g9
Ntp327
Rp328
(dp329
g13
g7
(g14
g9
Ntp330
Rp331
sg17
g18
sg19
(lp332
F12.120323000000001
aF54.072364
asg21
(dp333
sbsg23
S'07.06.2012 (09:11:03)'
p334
sg24
I0
sg25
g323
sbsS'192.168.2.4'
p335
(iprimitives
AccesPoint
p336
(dp337
g4
Nsg5
I0
sg6
g7
(g8
g9
Ntp338
Rp339
(dp340
g13
g7
(g14
g9
Ntp341
Rp342
sg17
g18
sg19
(lp343
F12.120377
aF54.072338999999999
asg21
(dp344
sbsg23
S'07.06.2012 (09:11:03)'
p345
sg24
Nsg25
g335
sbsS'192.168.1.85'
p346
(iprimitives
AccesPoint
p347
(dp348
g4
Nsg5
I0
sg6
g7
(g8
g9
Ntp349
Rp350
(dp351
g13
g7
(g14
g9
Ntp352
Rp353
sg17
g18
sg19
(lp354
F12.111373
aF54.092362999999999
asg21
(dp355
sbsg23
S'07.06.2012 (09:11:03)'
p356
sg24
Nsg25
g346
sbsS'192.168.1.86'
p357
(iprimitives
AccesPoint
p358
(dp359
g62
I1
sg63
S'OpenWrt(white russian  0.9-ON5)'
p360
sg4
I0
sg5
I0
sg65
g148
sg6
g7
(g8
g9
Ntp361
Rp362
(dp363
g13
g7
(g14
g9
Ntp364
Rp365
sg17
g18
sg19
(lp366
F12.117405
aF54.091712000000001
asg21
(dp367
sbsg23
S'07.06.2012 (09:11:03)'
p368
sg24
I0
sg25
g357
sbsS'192.168.1.87'
p369
(iprimitives
AccesPoint
p370
(dp371
g4
Nsg5
I1
sg6
g7
(g8
g9
Ntp372
Rp373
(dp374
g13
g7
(g14
g9
Ntp375
Rp376
sg17
g18
sg19
(lp377
F12.158153
aF54.027638000000003
asg21
(dp378
sbsg23
S'06.06.2012 (21:30:17)'
p379
sg24
Nsg25
g369
sbsS'192.168.1.88'
p380
(iprimitives
AccesPoint
p381
(dp382
g4
Nsg5
I3
sg6
g7
(g8
g9
Ntp383
Rp384
(dp385
g13
g7
(g14
g9
Ntp386
Rp387
sg17
g18
sg19
(lp388
F12.098962068500001
aF54.090805579300003
asg21
(dp389
sbsg23
S'07.03.2012 (11:12:03)'
p390
sg24
Nsg25
g380
sbsS'192.168.1.101'
p391
(iprimitives
AccesPoint
p392
(dp393
g62
I0
sg63
S'AirOS(XM.v5.2.1 )'
p394
sg4
I0
sg5
I0
sg65
g135
sg6
g7
(g8
g9
Ntp395
Rp396
(dp397
g13
g7
(g14
g9
Ntp398
Rp399
sg17
g18
sg19
(lp400
F12.107945000000001
aF54.071570000000001
asg21
(dp401
sbsg23
S'07.06.2012 (09:11:03)'
p402
sg24
I0
sg25
g391
sbsS'192.168.1.102'
p403
(iprimitives
AccesPoint
p404
(dp405
g4
Nsg5
I3
sg6
g7
(g8
g9
Ntp406
Rp407
(dp408
g13
g7
(g14
g9
Ntp409
Rp410
sg17
g18
sg19
(lp411
F12.114437000000001
aF54.091217999999998
asg21
(dp412
sbsg23
S'20.05.2011 (10:35:03)'
p413
sg24
Nsg25
g403
sbsS'192.168.1.103'
p414
(iprimitives
AccesPoint
p415
(dp416
g62
I1
sg63
S'OpenWrt(backfire 10.03.1-RC6)'
p417
sg4
I1
sg5
I0
sg65
g161
sg6
g7
(g8
g9
Ntp418
Rp419
(dp420
g13
g7
(g14
g9
Ntp421
Rp422
sg17
g18
sg19
(lp423
F12.11675
aF54.088650000000001
asg21
(dp424
sbsg23
S'07.06.2012 (09:11:03)'
p425
sg24
I0
sg25
g414
sbsS'192.168.1.104'
p426
(iprimitives
AccesPoint
p427
(dp428
g62
I1
sg63
S'OpenWrt(backfire 10.03.1-RC6)'
p429
sg4
I1
sg5
I0
sg65
g161
sg6
g7
(g8
g9
Ntp430
Rp431
(dp432
g13
g7
(g14
g9
Ntp433
Rp434
sg17
g18
sg19
(lp435
F12.11675
aF54.088549999999998
asg21
(dp436
sbsg23
S'07.06.2012 (09:11:03)'
p437
sg24
I0
sg25
g426
sbsS'192.168.1.105'
p438
(iprimitives
AccesPoint
p439
(dp440
g4
Nsg5
I3
sg6
g7
(g8
g9
Ntp441
Rp442
(dp443
g13
g7
(g14
g9
Ntp444
Rp445
sg17
g18
sg19
(lp446
F12.119877000000001
aF47.856282999999998
asg21
(dp447
sbsg23
S'05.02.2010 (13:39:02)'
p448
sg24
Nsg25
g438
sbsS'192.168.1.106'
p449
(iprimitives
AccesPoint
p450
(dp451
g62
I1
sg63
S'OpenWrt(backfire 10.03.1-RC6)'
p452
sg4
I1
sg5
I0
sg65
g161
sg6
g7
(g8
g9
Ntp453
Rp454
(dp455
g13
g7
(g14
g9
Ntp456
Rp457
sg17
g18
sg19
(lp458
F12.127222
aF54.095725999999999
asg21
(dp459
sbsg23
S'07.06.2012 (09:11:03)'
p460
sg24
I0
sg25
g449
sbsS'192.168.1.107'
p461
(iprimitives
AccesPoint
p462
(dp463
g4
Nsg5
I3
sg6
g7
(g8
g9
Ntp464
Rp465
(dp466
g13
g7
(g14
g9
Ntp467
Rp468
sg17
g18
sg19
(lp469
F12.025468
aF54.108877999999997
asg21
(dp470
sbsg23
S'07.05.2012 (18:46:03)'
p471
sg24
Nsg25
g461
sbsS'192.168.1.32'
p472
(iprimitives
AccesPoint
p473
(dp474
g4
Nsg5
I0
sg6
g7
(g8
g9
Ntp475
Rp476
(dp477
g13
g7
(g14
g9
Ntp478
Rp479
sg17
g18
sg19
(lp480
F12.111901
aF54.083559000000001
asg21
(dp481
sbsg23
S'07.06.2012 (09:11:03)'
p482
sg24
Nsg25
g472
sbsS'192.168.2.1'
p483
(iprimitives
AccesPoint
p484
(dp485
g4
Nsg5
Nsg6
g7
(g8
g9
Ntp486
Rp487
(dp488
g13
g7
(g14
g9
Ntp489
Rp490
sg17
g18
sg19
(lp491
g35
ag35
asg21
(dp492
sbsg23
Nsg24
Nsg25
g483
sbsS'192.168.1.189'
p493
(iprimitives
AccesPoint
p494
(dp495
g4
Nsg5
I3
sg6
g7
(g8
g9
Ntp496
Rp497
(dp498
g13
g7
(g14
g9
Ntp499
Rp500
sg17
g18
sg19
(lp501
F12.295482
aF54.005653000000002
asg21
(dp502
sbsg23
S'26.11.2011 (11:15:03)'
p503
sg24
Nsg25
g493
sbsS'192.168.1.35'
p504
(iprimitives
AccesPoint
p505
(dp506
g4
Nsg5
I3
sg6
g7
(g8
g9
Ntp507
Rp508
(dp509
g13
g7
(g14
g9
Ntp510
Rp511
sg17
g18
sg19
(lp512
F12.115163000000001
aF54.089106999999998
asg21
(dp513
sbsg23
S'05.01.2012 (08:28:03)'
p514
sg24
Nsg25
g504
sbsS'192.168.1.33'
p515
(iprimitives
AccesPoint
p516
(dp517
g4
Nsg5
I0
sg6
g7
(g8
g9
Ntp518
Rp519
(dp520
g13
g7
(g14
g9
Ntp521
Rp522
sg17
g18
sg19
(lp523
F12.111971
aF54.083621999999998
asg21
(dp524
sbsg23
S'07.06.2012 (09:11:03)'
p525
sg24
Nsg25
g515
sbsS'192.168.2.44'
p526
(iprimitives
AccesPoint
p527
(dp528
g4
Nsg5
Nsg6
g7
(g8
g9
Ntp529
Rp530
(dp531
g13
g7
(g14
g9
Ntp532
Rp533
sg17
g18
sg19
(lp534
F12.295691
aF54.007720999999997
asg21
(dp535
sbsg23
Nsg24
Nsg25
g526
sbsS'192.168.1.34'
p536
(iprimitives
AccesPoint
p537
(dp538
g4
Nsg5
I3
sg6
g7
(g8
g9
Ntp539
Rp540
(dp541
g13
g7
(g14
g9
Ntp542
Rp543
sg17
g18
sg19
(lp544
F12.112899000000001
aF54.091642
asg21
(dp545
sbsg23
S'29.05.2010 (16:57:03)'
p546
sg24
Nsg25
g536
sbsS'192.168.1.79'
p547
(iprimitives
AccesPoint
p548
(dp549
g62
I0
sg63
S'OpenWrt(backfire 10.03.1)'
p550
sg4
I0
sg5
I0
sg65
S'Ubiquiti Bullet M'
p551
sg6
g7
(g8
g9
Ntp552
Rp553
(dp554
g13
g7
(g14
g9
Ntp555
Rp556
sg17
g18
sg19
(lp557
F12.1333
aF54.084899999999998
asg21
(dp558
sbsg23
S'07.06.2012 (09:11:03)'
p559
sg24
I0
sg25
g547
sbsS'192.168.1.78'
p560
(iprimitives
AccesPoint
p561
(dp562
g4
Nsg5
I3
sg6
Nsg23
S'18.01.2011 (13:44:03)'
p563
sg24
Nsg25
g560
sbsS'192.168.1.75'
p564
(iprimitives
AccesPoint
p565
(dp566
g4
Nsg5
I0
sg6
g7
(g8
g9
Ntp567
Rp568
(dp569
g13
g7
(g14
g9
Ntp570
Rp571
sg17
g18
sg19
(lp572
F12.110390000000001
aF54.090600000000002
asg21
(dp573
sbsg23
S'07.06.2012 (08:35:03)'
p574
sg24
Nsg25
g564
sbsS'192.168.1.74'
p575
(iprimitives
AccesPoint
p576
(dp577
g4
Nsg5
I3
sg6
g7
(g8
g9
Ntp578
Rp579
(dp580
g13
g7
(g14
g9
Ntp581
Rp582
sg17
g18
sg19
(lp583
g35
ag35
asg21
(dp584
sbsg23
S'10.08.2011 (17:41:04)'
p585
sg24
Nsg25
g575
sbsS'192.168.1.77'
p586
(iprimitives
AccesPoint
p587
(dp588
g62
I1
sg63
S'OpenWrt(white russian  0.9-ON5)'
p589
sg4
I0
sg5
I0
sg65
g148
sg6
g7
(g8
g9
Ntp590
Rp591
(dp592
g13
g7
(g14
g9
Ntp593
Rp594
sg17
g18
sg19
(lp595
F12.266901000000001
aF53.983241
asg21
(dp596
sbsg23
S'07.06.2012 (09:11:03)'
p597
sg24
I0
sg25
g586
sbsS'192.168.1.76'
p598
(iprimitives
AccesPoint
p599
(dp600
g4
Nsg5
I3
sg6
g7
(g8
g9
Ntp601
Rp602
(dp603
g13
g7
(g14
g9
Ntp604
Rp605
sg17
g18
sg19
(lp606
F12.11079
aF54.090580000000003
asg21
(dp607
sbsg23
S'06.04.2011 (01:18:03)'
p608
sg24
Nsg25
g598
sbsS'192.168.1.71'
p609
(iprimitives
AccesPoint
p610
(dp611
g4
Nsg5
I3
sg6
g7
(g8
g9
Ntp612
Rp613
(dp614
g13
g7
(g14
g9
Ntp615
Rp616
sg17
g18
sg19
(lp617
g35
ag35
asg21
(dp618
sbsg23
S'08.05.2012 (09:35:03)'
p619
sg24
Nsg25
g609
sbsS'192.168.1.70'
p620
(iprimitives
AccesPoint
p621
(dp622
g4
Nsg5
I0
sg6
g7
(g8
g9
Ntp623
Rp624
(dp625
g13
g7
(g14
g9
Ntp626
Rp627
sg17
g18
sg19
(lp628
F12.131053
aF54.140875999999999
asg21
(dp629
sbsg23
S'07.06.2012 (09:11:03)'
p630
sg24
Nsg25
g620
sbsS'192.168.1.73'
p631
(iprimitives
AccesPoint
p632
(dp633
g4
Nsg5
I0
sg6
g7
(g8
g9
Ntp634
Rp635
(dp636
g13
g7
(g14
g9
Ntp637
Rp638
sg17
g18
sg19
(lp639
F12.111648000000001
aF54.091850000000001
asg21
(dp640
sbsg23
S'07.06.2012 (09:11:03)'
p641
sg24
Nsg25
g631
sbsS'192.168.1.72'
p642
(iprimitives
AccesPoint
p643
(dp644
g4
Nsg5
Nsg6
g7
(g8
g9
Ntp645
Rp646
(dp647
g13
g7
(g14
g9
Ntp648
Rp649
sg17
g18
sg19
(lp650
F12.101912
aF54.116987000000002
asg21
(dp651
sbsg23
Nsg24
Nsg25
g642
sbsS'192.168.1.197'
p652
(iprimitives
AccesPoint
p653
(dp654
g4
Nsg5
I0
sg6
g7
(g8
g9
Ntp655
Rp656
(dp657
g13
g7
(g14
g9
Ntp658
Rp659
sg17
g18
sg19
(lp660
F12.189952999999999
aF54.005524000000001
asg21
(dp661
sbsg23
S'07.06.2012 (09:11:03)'
p662
sg24
Nsg25
g652
sbsS'192.168.1.196'
p663
(iprimitives
AccesPoint
p664
(dp665
g4
Nsg5
I3
sg6
g7
(g8
g9
Ntp666
Rp667
(dp668
g13
g7
(g14
g9
Ntp669
Rp670
sg17
g18
sg19
(lp671
F12.145455
aF54.090817999999999
asg21
(dp672
sbsg23
S'21.09.2010 (07:12:04)'
p673
sg24
Nsg25
g663
sbsS'192.168.1.195'
p674
(iprimitives
AccesPoint
p675
(dp676
g62
I1
sg63
S'OpenWrt(white russian  0.9-ON6)'
p677
sg4
I0
sg5
I0
sg65
g148
sg6
g7
(g8
g9
Ntp678
Rp679
(dp680
g13
g7
(g14
g9
Ntp681
Rp682
sg17
g18
sg19
(lp683
F12.119126
aF54.075051999999999
asg21
(dp684
sbsg23
S'07.06.2012 (09:11:03)'
p685
sg24
I0
sg25
g674
sbsS'192.168.1.194'
p686
(iprimitives
AccesPoint
p687
(dp688
g4
Nsg5
I1
sg6
g7
(g8
g9
Ntp689
Rp690
(dp691
g13
g7
(g14
g9
Ntp692
Rp693
sg17
g18
sg19
(lp694
F12.109594
aF54.090749000000002
asg21
(dp695
sbsg23
S'07.06.2012 (05:36:03)'
p696
sg24
Nsg25
g686
sbsS'192.168.1.193'
p697
(iprimitives
AccesPoint
p698
(dp699
g4
Nsg5
I3
sg6
g7
(g8
g9
Ntp700
Rp701
(dp702
g13
g7
(g14
g9
Ntp703
Rp704
sg17
g18
sg19
(lp705
F12.210335000000001
aF54.04833
asg21
(dp706
sbsg23
S'31.03.2012 (06:40:03)'
p707
sg24
Nsg25
g697
sbsS'192.168.1.192'
p708
(iprimitives
AccesPoint
p709
(dp710
g4
Nsg5
I0
sg6
g7
(g8
g9
Ntp711
Rp712
(dp713
g13
g7
(g14
g9
Ntp714
Rp715
sg17
g18
sg19
(lp716
F12.120475000000001
aF54.072473000000002
asg21
(dp717
sbsg23
S'07.06.2012 (09:11:03)'
p718
sg24
Nsg25
g708
sbsS'192.168.1.191'
p719
(iprimitives
AccesPoint
p720
(dp721
g4
Nsg5
I3
sg6
g7
(g8
g9
Ntp722
Rp723
(dp724
g13
g7
(g14
g9
Ntp725
Rp726
sg17
g18
sg19
(lp727
g35
ag35
asg21
(dp728
sbsg23
S'01.04.2011 (02:52:03)'
p729
sg24
Nsg25
g719
sbsS'192.168.1.190'
p730
(iprimitives
AccesPoint
p731
(dp732
g4
Nsg5
I3
sg6
g7
(g8
g9
Ntp733
Rp734
(dp735
g13
g7
(g14
g9
Ntp736
Rp737
sg17
g18
sg19
(lp738
F12.212268999999999
aF54.047137999999997
asg21
(dp739
sbsg23
S'19.11.2011 (01:46:03)'
p740
sg24
Nsg25
g730
sbsS'192.168.1.214'
p741
(iprimitives
AccesPoint
p742
(dp743
g62
I1
sg63
S'OpenWrt(white russian  0.9-ON5)'
p744
sg4
I0
sg5
I0
sg65
g148
sg6
g7
(g8
g9
Ntp745
Rp746
(dp747
g13
g7
(g14
g9
Ntp748
Rp749
sg17
g18
sg19
(lp750
F12.155889
aF54.025393999999999
asg21
(dp751
sbsg23
S'07.06.2012 (09:11:03)'
p752
sg24
I0
sg25
g741
sbsS'192.168.1.215'
p753
(iprimitives
AccesPoint
p754
(dp755
g62
I1
sg63
S'OpenWrt(white russian  0.9-ON5)'
p756
sg4
I0
sg5
I0
sg65
g148
sg6
g7
(g8
g9
Ntp757
Rp758
(dp759
g13
g7
(g14
g9
Ntp760
Rp761
sg17
g18
sg19
(lp762
F12.154484
aF54.025191999999997
asg21
(dp763
sbsg23
S'07.06.2012 (09:11:03)'
p764
sg24
I0
sg25
g753
sbsS'192.168.1.216'
p765
(iprimitives
AccesPoint
p766
(dp767
g4
Nsg5
I3
sg6
g7
(g8
g9
Ntp768
Rp769
(dp770
g13
g7
(g14
g9
Ntp771
Rp772
sg17
g18
sg19
(lp773
F12.156328999999999
aF54.025582999999997
asg21
(dp774
sbsg23
S'03.09.2011 (10:20:03)'
p775
sg24
Nsg25
g765
sbsS'192.168.1.217'
p776
(iprimitives
AccesPoint
p777
(dp778
g62
I1
sg63
S'OpenWrt(white russian  0.9-ON5)'
p779
sg4
I0
sg5
I0
sg65
g148
sg6
g7
(g8
g9
Ntp780
Rp781
(dp782
g13
g7
(g14
g9
Ntp783
Rp784
sg17
g18
sg19
(lp785
F12.477551
aF53.756703999999999
asg21
(dp786
sbsg23
S'07.06.2012 (09:11:03)'
p787
sg24
I0
sg25
g776
sbsS'192.168.1.210'
p788
(iprimitives
AccesPoint
p789
(dp790
g4
Nsg5
Nsg6
g7
(g8
g9
Ntp791
Rp792
(dp793
g13
g7
(g14
g9
Ntp794
Rp795
sg17
g18
sg19
(lp796
g35
ag35
asg21
(dp797
sbsg23
Nsg24
Nsg25
g788
sbsS'192.168.1.211'
p798
(iprimitives
AccesPoint
p799
(dp800
g4
Nsg5
Nsg6
g7
(g8
g9
Ntp801
Rp802
(dp803
g13
g7
(g14
g9
Ntp804
Rp805
sg17
g18
sg19
(lp806
g35
ag35
asg21
(dp807
sbsg23
Nsg24
Nsg25
g798
sbsS'192.168.1.212'
p808
(iprimitives
AccesPoint
p809
(dp810
g62
I1
sg63
S'OpenWrt(white russian  0.9-ON5)'
p811
sg4
I0
sg5
I0
sg65
g148
sg6
g7
(g8
g9
Ntp812
Rp813
(dp814
g13
g7
(g14
g9
Ntp815
Rp816
sg17
g18
sg19
(lp817
F12.105091
aF54.092238000000002
asg21
(dp818
sbsg23
S'07.06.2012 (09:11:03)'
p819
sg24
I1
sg25
g808
sbsS'192.168.1.198'
p820
(iprimitives
AccesPoint
p821
(dp822
g62
I1
sg63
S'OpenWrt(white russian  0.9-ON5)'
p823
sg4
I0
sg5
I0
sg65
g148
sg6
g7
(g8
g9
Ntp824
Rp825
(dp826
g13
g7
(g14
g9
Ntp827
Rp828
sg17
g18
sg19
(lp829
F12.158496
aF54.027788999999999
asg21
(dp830
sbsg23
S'07.06.2012 (09:11:03)'
p831
sg24
I0
sg25
g820
sbsS'192.168.1.93'
p832
(iprimitives
AccesPoint
p833
(dp834
g4
Nsg5
I3
sg6
g7
(g8
g9
Ntp835
Rp836
(dp837
g13
g7
(g14
g9
Ntp838
Rp839
sg17
g18
sg19
(lp840
g35
ag35
asg21
(dp841
sbsg23
S'02.08.2011 (15:07:03)'
p842
sg24
Nsg25
g832
sbsS'192.168.1.92'
p843
(iprimitives
AccesPoint
p844
(dp845
g4
Nsg5
I3
sg6
g7
(g8
g9
Ntp846
Rp847
(dp848
g13
g7
(g14
g9
Ntp849
Rp850
sg17
g18
sg19
(lp851
F12.109508999999999
aF54.105027
asg21
(dp852
sbsg23
S'06.05.2012 (07:43:03)'
p853
sg24
Nsg25
g843
sbsS'192.168.1.91'
p854
(iprimitives
AccesPoint
p855
(dp856
g4
Nsg5
I0
sg6
g7
(g8
g9
Ntp857
Rp858
(dp859
g13
g7
(g14
g9
Ntp860
Rp861
sg17
g18
sg19
(lp862
F12.153625
aF54.025722000000002
asg21
(dp863
sbsg23
S'07.06.2012 (09:11:03)'
p864
sg24
Nsg25
g854
sbsS'192.168.1.90'
p865
(iprimitives
AccesPoint
p866
(dp867
g62
I0
sg63
S'OpenWrt(white russian  0.9-ON5)'
p868
sg4
I0
sg5
I0
sg65
g148
sg6
g7
(g8
g9
Ntp869
Rp870
(dp871
g13
g7
(g14
g9
Ntp872
Rp873
sg17
g18
sg19
(lp874
F12.370595
aF54.273440999999998
asg21
(dp875
sbsg23
S'07.06.2012 (09:11:03)'
p876
sg24
I1
sg25
g865
sbsS'192.168.1.97'
p877
(iprimitives
AccesPoint
p878
(dp879
g62
I0
sg63
S'AirOS(XM.v5.2.1 )'
p880
sg4
I0
sg5
I0
sg65
g135
sg6
g7
(g8
g9
Ntp881
Rp882
(dp883
g13
g7
(g14
g9
Ntp884
Rp885
sg17
g18
sg19
(lp886
F11.415915999999999
aF53.630814999999998
asg21
(dp887
sbsg23
S'07.06.2012 (09:11:03)'
p888
sg24
I0
sg25
g877
sbsS'192.168.1.96'
p889
(iprimitives
AccesPoint
p890
(dp891
g4
Nsg5
I3
sg6
g7
(g8
g9
Ntp892
Rp893
(dp894
g13
g7
(g14
g9
Ntp895
Rp896
sg17
g18
sg19
(lp897
F12.213760000000001
aF54.048270000000002
asg21
(dp898
sbsg23
S'05.09.2011 (05:25:03)'
p899
sg24
Nsg25
g889
sbsS'192.168.1.95'
p900
(iprimitives
AccesPoint
p901
(dp902
g4
Nsg5
I0
sg6
g7
(g8
g9
Ntp903
Rp904
(dp905
g13
g7
(g14
g9
Ntp906
Rp907
sg17
g18
sg19
(lp908
F12.123874000000001
aF54.093114999999997
asg21
(dp909
sbsg23
S'07.06.2012 (09:11:03)'
p910
sg24
Nsg25
g900
sbsS'192.168.1.94'
p911
(iprimitives
AccesPoint
p912
(dp913
g4
Nsg5
I3
sg6
g7
(g8
g9
Ntp914
Rp915
(dp916
g13
g7
(g14
g9
Ntp917
Rp918
sg17
g18
sg19
(lp919
g35
ag35
asg21
(dp920
sbsg23
S'22.03.2012 (21:14:03)'
p921
sg24
Nsg25
g911
sbsS'192.168.1.99'
p922
(iprimitives
AccesPoint
p923
(dp924
g4
Nsg5
I3
sg6
g7
(g8
g9
Ntp925
Rp926
(dp927
g13
g7
(g14
g9
Ntp928
Rp929
sg17
g18
sg19
(lp930
g35
ag35
asg21
(dp931
sbsg23
S'26.06.2011 (12:38:03)'
p932
sg24
Nsg25
g922
sbsS'192.168.1.98'
p933
(iprimitives
AccesPoint
p934
(dp935
g62
I1
sg63
S'OpenWrt(white russian  0.9-ON5)'
p936
sg4
I0
sg5
I0
sg65
g148
sg6
g7
(g8
g9
Ntp937
Rp938
(dp939
g13
g7
(g14
g9
Ntp940
Rp941
sg17
g18
sg19
(lp942
F12.156973000000001
aF54.0261
asg21
(dp943
sbsg23
S'07.06.2012 (09:11:03)'
p944
sg24
I0
sg25
g933
sbsS'192.168.2.41'
p945
(iprimitives
AccesPoint
p946
(dp947
g4
Nsg5
I0
sg6
g7
(g8
g9
Ntp948
Rp949
(dp950
g13
g7
(g14
g9
Ntp951
Rp952
sg17
g18
sg19
(lp953
F12.11647
aF54.088602999999999
asg21
(dp954
sbsg23
S'07.06.2012 (09:11:03)'
p955
sg24
Nsg25
g945
sbsS'192.168.2.12'
p956
(iprimitives
AccesPoint
p957
(dp958
g4
Nsg5
I3
sg6
g7
(g8
g9
Ntp959
Rp960
(dp961
g13
g7
(g14
g9
Ntp962
Rp963
sg17
g18
sg19
(lp964
F12.136493
aF54.077728999999998
asg21
(dp965
sbsg23
S'05.01.2012 (11:40:03)'
p966
sg24
Nsg25
g956
sbsS'192.168.2.43'
p967
(iprimitives
AccesPoint
p968
(dp969
g4
Nsg5
I0
sg6
g7
(g8
g9
Ntp970
Rp971
(dp972
g13
g7
(g14
g9
Ntp973
Rp974
sg17
g18
sg19
(lp975
F12.159805
aF54.076386999999997
asg21
(dp976
sbsg23
S'07.06.2012 (09:11:03)'
p977
sg24
Nsg25
g967
sbsS'192.168.2.42'
p978
(iprimitives
AccesPoint
p979
(dp980
g4
Nsg5
I0
sg6
g7
(g8
g9
Ntp981
Rp982
(dp983
g13
g7
(g14
g9
Ntp984
Rp985
sg17
g18
sg19
(lp986
F12.116877000000001
aF54.088523000000002
asg21
(dp987
sbsg23
S'07.06.2012 (09:11:03)'
p988
sg24
Nsg25
g978
sbsS'192.168.2.45'
p989
(iprimitives
AccesPoint
p990
(dp991
g4
Nsg5
I0
sg6
g7
(g8
g9
Ntp992
Rp993
(dp994
g13
g7
(g14
g9
Ntp995
Rp996
sg17
g18
sg19
(lp997
F12.158689000000001
aF54.075657
asg21
(dp998
sbsg23
S'07.06.2012 (09:11:03)'
p999
sg24
Nsg25
g989
sbsS'192.168.1.178'
p1000
(iprimitives
AccesPoint
p1001
(dp1002
g4
Nsg5
I3
sg6
g7
(g8
g9
Ntp1003
Rp1004
(dp1005
g13
g7
(g14
g9
Ntp1006
Rp1007
sg17
g18
sg19
(lp1008
F12.212097999999999
aF54.047502999999999
asg21
(dp1009
sbsg23
S'24.12.2011 (21:23:03)'
p1010
sg24
Nsg25
g1000
sbsS'192.168.2.47'
p1011
(iprimitives
AccesPoint
p1012
(dp1013
g4
Nsg5
Nsg6
g7
(g8
g9
Ntp1014
Rp1015
(dp1016
g13
g7
(g14
g9
Ntp1017
Rp1018
sg17
g18
sg19
(lp1019
F12.142189999999999
aF54.066899999999997
asg21
(dp1020
sbsg23
Nsg24
Nsg25
g1011
sbsS'192.168.2.46'
p1021
(iprimitives
AccesPoint
p1022
(dp1023
g4
Nsg5
I0
sg6
g7
(g8
g9
Ntp1024
Rp1025
(dp1026
g13
g7
(g14
g9
Ntp1027
Rp1028
sg17
g18
sg19
(lp1029
F12.158861
aF54.074674999999999
asg21
(dp1030
sbsg23
S'07.06.2012 (09:11:03)'
p1031
sg24
Nsg25
g1021
sbsS'192.168.1.175'
p1032
(iprimitives
AccesPoint
p1033
(dp1034
g4
Nsg5
I0
sg6
g7
(g8
g9
Ntp1035
Rp1036
(dp1037
g13
g7
(g14
g9
Ntp1038
Rp1039
sg17
g18
sg19
(lp1040
F12.110624
aF54.090913
asg21
(dp1041
sbsg23
S'07.06.2012 (08:33:03)'
p1042
sg24
Nsg25
g1032
sbsS'192.168.1.174'
p1043
(iprimitives
AccesPoint
p1044
(dp1045
g62
I0
sg63
S'OpenWrt(white russian  0.9-ON5)'
p1046
sg4
I0
sg5
I0
sg65
g161
sg6
g7
(g8
g9
Ntp1047
Rp1048
(dp1049
g13
g7
(g14
g9
Ntp1050
Rp1051
sg17
g18
sg19
(lp1052
F12.12293
aF54.091366000000001
asg21
(dp1053
sbsg23
S'07.06.2012 (09:11:03)'
p1054
sg24
I0
sg25
g1043
sbsS'192.168.1.177'
p1055
(iprimitives
AccesPoint
p1056
(dp1057
g4
Nsg5
I0
sg6
g7
(g8
g9
Ntp1058
Rp1059
(dp1060
g13
g7
(g14
g9
Ntp1061
Rp1062
sg17
g18
sg19
(lp1063
F12.098535999999999
aF54.092900999999998
asg21
(dp1064
sbsg23
S'07.06.2012 (09:11:03)'
p1065
sg24
Nsg25
g1055
sbsS'192.168.1.176'
p1066
(iprimitives
AccesPoint
p1067
(dp1068
g4
Nsg5
I3
sg6
g7
(g8
g9
Ntp1069
Rp1070
(dp1071
g13
g7
(g14
g9
Ntp1072
Rp1073
sg17
g18
sg19
(lp1074
F12.117039999999999
aF54.094009999999997
asg21
(dp1075
sbsg23
S'08.06.2011 (08:23:04)'
p1076
sg24
Nsg25
g1066
sbsS'192.168.1.171'
p1077
(iprimitives
AccesPoint
p1078
(dp1079
g62
I0
sg63
S'OpenWrt(white russian  0.9-ON5)'
p1080
sg4
I0
sg5
I0
sg65
g148
sg6
g7
(g8
g9
Ntp1081
Rp1082
(dp1083
g13
g7
(g14
g9
Ntp1084
Rp1085
sg17
g18
sg19
(lp1086
F12.120380000000001
aF54.072470000000003
asg21
(dp1087
sbsg23
S'07.06.2012 (09:11:03)'
p1088
sg24
I0
sg25
g1077
sbsS'192.168.1.170'
p1089
(iprimitives
AccesPoint
p1090
(dp1091
g62
I0
sg63
S'OpenWrt(white russian  0.9-ON5)'
p1092
sg4
I0
sg5
I0
sg65
g161
sg6
g7
(g8
g9
Ntp1093
Rp1094
(dp1095
g13
g7
(g14
g9
Ntp1096
Rp1097
sg17
g18
sg19
(lp1098
F12.098307999999999
aF54.092775000000003
asg21
(dp1099
sbsg23
S'07.06.2012 (09:11:03)'
p1100
sg24
I0
sg25
g1089
sbsS'192.168.1.173'
p1101
(iprimitives
AccesPoint
p1102
(dp1103
g4
Nsg5
I0
sg6
g7
(g8
g9
Ntp1104
Rp1105
(dp1106
g13
g7
(g14
g9
Ntp1107
Rp1108
sg17
g18
sg19
(lp1109
F12.10439
aF54.081249999999997
asg21
(dp1110
sbsg23
S'07.06.2012 (09:11:03)'
p1111
sg24
Nsg25
g1101
sbsS'192.168.1.172'
p1112
(iprimitives
AccesPoint
p1113
(dp1114
g62
I1
sg63
S'OpenWrt(backfire 10.03.1-RC6)'
p1115
sg4
I0
sg5
I0
sg65
g161
sg6
g7
(g8
g9
Ntp1116
Rp1117
(dp1118
g13
g7
(g14
g9
Ntp1119
Rp1120
sg17
g18
sg19
(lp1121
F12.116523000000001
aF54.088523000000002
asg21
(dp1122
sbsg23
S'07.06.2012 (09:11:03)'
p1123
sg24
I0
sg25
g1112
sbsS'192.168.2.40'
p1124
(iprimitives
AccesPoint
p1125
(dp1126
g4
Nsg5
I0
sg6
g7
(g8
g9
Ntp1127
Rp1128
(dp1129
g13
g7
(g14
g9
Ntp1130
Rp1131
sg17
g18
sg19
(lp1132
F12.115017999999999
aF54.088000000000001
asg21
(dp1133
sbsg23
S'07.06.2012 (09:11:03)'
p1134
sg24
Nsg25
g1124
sbsS'192.168.2.13'
p1135
(iprimitives
AccesPoint
p1136
(dp1137
g4
Nsg5
Nsg6
g7
(g8
g9
Ntp1138
Rp1139
(dp1140
g13
g7
(g14
g9
Ntp1141
Rp1142
sg17
g18
sg19
(lp1143
F12.158569999999999
aF54.027749999999997
asg21
(dp1144
sbsg23
Nsg24
Nsg25
g1135
sbsS'192.168.1.180'
p1145
(iprimitives
AccesPoint
p1146
(dp1147
g4
Nsg5
I3
sg6
g7
(g8
g9
Ntp1148
Rp1149
(dp1150
g13
g7
(g14
g9
Ntp1151
Rp1152
sg17
g18
sg19
(lp1153
F12.21106
aF54.048478000000003
asg21
(dp1154
sbsg23
S'08.09.2011 (19:07:03)'
p1155
sg24
Nsg25
g1145
sbsS'192.168.1.181'
p1156
(iprimitives
AccesPoint
p1157
(dp1158
g4
Nsg5
I3
sg6
g7
(g8
g9
Ntp1159
Rp1160
(dp1161
g13
g7
(g14
g9
Ntp1162
Rp1163
sg17
g18
sg19
(lp1164
F12.112389
aF54.093060999999999
asg21
(dp1165
sbsg23
S'31.03.2012 (02:20:03)'
p1166
sg24
Nsg25
g1156
sbsS'192.168.1.182'
p1167
(iprimitives
AccesPoint
p1168
(dp1169
g4
Nsg5
I3
sg6
g7
(g8
g9
Ntp1170
Rp1171
(dp1172
g13
g7
(g14
g9
Ntp1173
Rp1174
sg17
g18
sg19
(lp1175
F12.107659999999999
aF54.076749999999997
asg21
(dp1176
sbsg23
S'09.12.2011 (12:00:03)'
p1177
sg24
Nsg25
g1167
sbsS'192.168.1.183'
p1178
(iprimitives
AccesPoint
p1179
(dp1180
g62
I0
sg63
S'OpenWrt(backfire 10.03.1-RC6)'
p1181
sg4
I0
sg5
I0
sg65
S'Avila'
p1182
sg6
g7
(g8
g9
Ntp1183
Rp1184
(dp1185
g13
g7
(g14
g9
Ntp1186
Rp1187
sg17
g18
sg19
(lp1188
F12.123091000000001
aF54.090913
asg21
(dp1189
sbsg23
S'07.06.2012 (09:11:03)'
p1190
sg24
I0
sg25
g1178
sbsS'192.168.2.9'
p1191
(iprimitives
AccesPoint
p1192
(dp1193
g4
Nsg5
I3
sg6
g7
(g8
g9
Ntp1194
Rp1195
(dp1196
g13
g7
(g14
g9
Ntp1197
Rp1198
sg17
g18
sg19
(lp1199
g35
ag35
asg21
(dp1200
sbsg23
S'23.06.2011 (15:44:04)'
p1201
sg24
Nsg25
g1191
sbsS'192.168.1.185'
p1202
(iprimitives
AccesPoint
p1203
(dp1204
g62
I0
sg63
S'OpenWrt(backfire 10.03.1-RC6)'
p1205
sg4
I0
sg5
I0
sg65
g249
sg6
g7
(g8
g9
Ntp1206
Rp1207
(dp1208
g13
g7
(g14
g9
Ntp1209
Rp1210
sg17
g18
sg19
(lp1211
F12.116877000000001
aF54.088676999999997
asg21
(dp1212
sbsg23
S'07.06.2012 (09:11:03)'
p1213
sg24
I0
sg25
g1202
sbsS'192.168.1.186'
p1214
(iprimitives
AccesPoint
p1215
(dp1216
g4
Nsg5
I3
sg6
g7
(g8
g9
Ntp1217
Rp1218
(dp1219
g13
g7
(g14
g9
Ntp1220
Rp1221
sg17
g18
sg19
(lp1222
g35
ag35
asg21
(dp1223
sbsg23
S'08.05.2012 (19:46:03)'
p1224
sg24
Nsg25
g1214
sbsS'192.168.1.187'
p1225
(iprimitives
AccesPoint
p1226
(dp1227
g4
Nsg5
I0
sg6
g7
(g8
g9
Ntp1228
Rp1229
(dp1230
g13
g7
(g14
g9
Ntp1231
Rp1232
sg17
g18
sg19
(lp1233
F12.120597
aF54.072364
asg21
(dp1234
sbsg23
S'07.06.2012 (09:11:03)'
p1235
sg24
Nsg25
g1225
sbsS'192.168.1.188'
p1236
(iprimitives
AccesPoint
p1237
(dp1238
g4
Nsg5
I3
sg6
g7
(g8
g9
Ntp1239
Rp1240
(dp1241
g13
g7
(g14
g9
Ntp1242
Rp1243
sg17
g18
sg19
(lp1244
g35
ag35
asg21
(dp1245
sbsg23
S'08.05.2012 (09:36:03)'
p1246
sg24
Nsg25
g1236
sbsS'192.168.1.218'
p1247
(iprimitives
AccesPoint
p1248
(dp1249
g62
I1
sg63
S'OpenWrt(white russian  0.9-ON5)'
p1250
sg4
I0
sg5
I0
sg65
g148
sg6
g7
(g8
g9
Ntp1251
Rp1252
(dp1253
g13
g7
(g14
g9
Ntp1254
Rp1255
sg17
g18
sg19
(lp1256
F12.156587
aF54.025922999999999
asg21
(dp1257
sbsg23
S'07.06.2012 (09:11:03)'
p1258
sg24
I0
sg25
g1247
sbsS'192.168.1.219'
p1259
(iprimitives
AccesPoint
p1260
(dp1261
g4
Nsg5
I3
sg6
g7
(g8
g9
Ntp1262
Rp1263
(dp1264
g13
g7
(g14
g9
Ntp1265
Rp1266
sg17
g18
sg19
(lp1267
g35
ag35
asg21
(dp1268
sbsg23
S'23.05.2011 (21:37:03)'
p1269
sg24
Nsg25
g1259
sbsS'192.168.2.28'
p1270
(iprimitives
AccesPoint
p1271
(dp1272
g4
Nsg5
Nsg6
g7
(g8
g9
Ntp1273
Rp1274
(dp1275
g13
g7
(g14
g9
Ntp1276
Rp1277
sg17
g18
sg19
(lp1278
F12.107659999999999
aF54.076569999999997
asg21
(dp1279
sbsg23
Nsg24
Nsg25
g1270
sbsS'192.168.1.123'
p1280
(iprimitives
AccesPoint
p1281
(dp1282
g4
Nsg5
I0
sg6
g7
(g8
g9
Ntp1283
Rp1284
(dp1285
g13
g7
(g14
g9
Ntp1286
Rp1287
sg17
g18
sg19
(lp1288
F12.167909999999999
aF54.099179999999997
asg21
(dp1289
sbsg23
S'07.06.2012 (09:11:03)'
p1290
sg24
Nsg25
g1280
sbsS'192.168.2.26'
p1291
(iprimitives
AccesPoint
p1292
(dp1293
g4
Nsg5
Nsg6
g7
(g8
g9
Ntp1294
Rp1295
(dp1296
g13
g7
(g14
g9
Ntp1297
Rp1298
sg17
g18
sg19
(lp1299
F12.107659999999999
aF54.076569999999997
asg21
(dp1300
sbsg23
Nsg24
Nsg25
g1291
sbsS'192.168.2.39'
p1301
(iprimitives
AccesPoint
p1302
(dp1303
g4
Nsg5
I0
sg6
g7
(g8
g9
Ntp1304
Rp1305
(dp1306
g13
g7
(g14
g9
Ntp1307
Rp1308
sg17
g18
sg19
(lp1309
F12.128606
aF54.082039000000002
asg21
(dp1310
sbsg23
S'07.06.2012 (09:11:03)'
p1311
sg24
Nsg25
g1301
sbsS'192.168.2.25'
p1312
(iprimitives
AccesPoint
p1313
(dp1314
g4
Nsg5
Nsg6
g7
(g8
g9
Ntp1315
Rp1316
(dp1317
g13
g7
(g14
g9
Ntp1318
Rp1319
sg17
g18
sg19
(lp1320
F12.107659999999999
aF54.076569999999997
asg21
(dp1321
sbsg23
Nsg24
Nsg25
g1312
sbsS'192.168.2.24'
p1322
(iprimitives
AccesPoint
p1323
(dp1324
g4
Nsg5
Nsg6
g7
(g8
g9
Ntp1325
Rp1326
(dp1327
g13
g7
(g14
g9
Ntp1328
Rp1329
sg17
g18
sg19
(lp1330
F12.107659999999999
aF54.076569999999997
asg21
(dp1331
sbsg23
Nsg24
Nsg25
g1322
sbsS'192.168.2.27'
p1332
(iprimitives
AccesPoint
p1333
(dp1334
g4
Nsg5
Nsg6
g7
(g8
g9
Ntp1335
Rp1336
(dp1337
g13
g7
(g14
g9
Ntp1338
Rp1339
sg17
g18
sg19
(lp1340
F12.107659999999999
aF54.076569999999997
asg21
(dp1341
sbsg23
Nsg24
Nsg25
g1332
sbsS'192.168.1.168'
p1342
(iprimitives
AccesPoint
p1343
(dp1344
g4
Nsg5
I3
sg6
g7
(g8
g9
Ntp1345
Rp1346
(dp1347
g13
g7
(g14
g9
Ntp1348
Rp1349
sg17
g18
sg19
(lp1350
F12.119626
aF54.088026999999997
asg21
(dp1351
sbsg23
S'26.11.2011 (13:26:03)'
p1352
sg24
Nsg25
g1342
sbsS'192.168.1.169'
p1353
(iprimitives
AccesPoint
p1354
(dp1355
g4
Nsg5
I3
sg6
g7
(g8
g9
Ntp1356
Rp1357
(dp1358
g13
g7
(g14
g9
Ntp1359
Rp1360
sg17
g18
sg19
(lp1361
F12.051036
aF54.139198
asg21
(dp1362
sbsg23
S'09.03.2012 (17:53:03)'
p1363
sg24
Nsg25
g1353
sbsS'192.168.1.100'
p1364
(iprimitives
AccesPoint
p1365
(dp1366
g62
I1
sg63
S'OpenWrt(backfire 10.03.1-RC6)'
p1367
sg4
I0
sg5
I0
sg65
S'Ubiquiti Nanostation M'
p1368
sg6
g7
(g8
g9
Ntp1369
Rp1370
(dp1371
g13
g7
(g14
g9
Ntp1372
Rp1373
sg17
g18
sg19
(lp1374
F12.294991
aF54.005690999999999
asg21
(dp1375
sbsg23
S'07.06.2012 (09:11:03)'
p1376
sg24
I0
sg25
g1364
sbsS'192.168.1.167'
p1377
(iprimitives
AccesPoint
p1378
(dp1379
g62
I0
sg63
S'OpenWrt(white russian  0.9-ON5)'
p1380
sg4
I0
sg5
I0
sg65
S'Linksys WRT54GS'
p1381
sg6
g7
(g8
g9
Ntp1382
Rp1383
(dp1384
g13
g7
(g14
g9
Ntp1385
Rp1386
sg17
g18
sg19
(lp1387
F12.098436
aF54.092900999999998
asg21
(dp1388
sbsg23
S'07.06.2012 (09:11:03)'
p1389
sg24
I0
sg25
g1377
sbsS'192.168.1.164'
p1390
(iprimitives
AccesPoint
p1391
(dp1392
g4
Nsg5
Nsg6
g7
(g8
g9
Ntp1393
Rp1394
(dp1395
g13
g7
(g14
g9
Ntp1396
Rp1397
sg17
g18
sg19
(lp1398
F12.148389999999999
aF54.090107000000003
asg21
(dp1399
sbsg23
Nsg24
Nsg25
g1390
sbsS'192.168.1.165'
p1400
(iprimitives
AccesPoint
p1401
(dp1402
g62
I0
sg63
S'OpenWrt(white russian  0.9-ON5)'
p1403
sg4
I0
sg5
I0
sg65
g148
sg6
g7
(g8
g9
Ntp1404
Rp1405
(dp1406
g13
g7
(g14
g9
Ntp1407
Rp1408
sg17
g18
sg19
(lp1409
F12.098307999999999
aF54.092874999999999
asg21
(dp1410
sbsg23
S'07.06.2012 (09:11:03)'
p1411
sg24
I0
sg25
g1400
sbsS'192.168.1.162'
p1412
(iprimitives
AccesPoint
p1413
(dp1414
g62
I0
sg63
S'AirOS(XM.v5.3.3 )'
p1415
sg4
I0
sg5
I0
sg65
g135
sg6
g7
(g8
g9
Ntp1416
Rp1417
(dp1418
g13
g7
(g14
g9
Ntp1419
Rp1420
sg17
g18
sg19
(lp1421
F12.116603
aF54.088470000000001
asg21
(dp1422
sbsg23
S'07.06.2012 (09:11:03)'
p1423
sg24
I0
sg25
g1412
sbsS'192.168.1.163'
p1424
(iprimitives
AccesPoint
p1425
(dp1426
g4
Nsg5
I3
sg6
g7
(g8
g9
Ntp1427
Rp1428
(dp1429
g13
g7
(g14
g9
Ntp1430
Rp1431
sg17
g18
sg19
(lp1432
F12.210534000000001
aF54.047865000000002
asg21
(dp1433
sbsg23
S'31.03.2012 (06:41:03)'
p1434
sg24
Nsg25
g1424
sbsS'192.168.1.160'
p1435
(iprimitives
AccesPoint
p1436
(dp1437
g4
Nsg5
I3
sg6
g7
(g8
g9
Ntp1438
Rp1439
(dp1440
g13
g7
(g14
g9
Ntp1441
Rp1442
sg17
g18
sg19
(lp1443
F12.112389
aF54.093060999999999
asg21
(dp1444
sbsg23
S'17.07.2011 (09:41:03)'
p1445
sg24
Nsg25
g1435
sbsS'192.168.1.161'
p1446
(iprimitives
AccesPoint
p1447
(dp1448
g4
Nsg5
I3
sg6
g7
(g8
g9
Ntp1449
Rp1450
(dp1451
g13
g7
(g14
g9
Ntp1452
Rp1453
sg17
g18
sg19
(lp1454
F12.123574
aF54.093114999999997
asg21
(dp1455
sbsg23
S'03.10.2011 (10:34:03)'
p1456
sg24
Nsg25
g1446
sbsS'192.168.1.120'
p1457
(iprimitives
AccesPoint
p1458
(dp1459
g4
Nsg5
I0
sg6
g7
(g8
g9
Ntp1460
Rp1461
(dp1462
g13
g7
(g14
g9
Ntp1463
Rp1464
sg17
g18
sg19
(lp1465
F12.1289
aF54.081800000000001
asg21
(dp1466
sbsg23
S'07.06.2012 (09:11:03)'
p1467
sg24
Nsg25
g1457
sbsS'192.168.2.35'
p1468
(iprimitives
AccesPoint
p1469
(dp1470
g4
Nsg5
I0
sg6
g7
(g8
g9
Ntp1471
Rp1472
(dp1473
g13
g7
(g14
g9
Ntp1474
Rp1475
sg17
g18
sg19
(lp1476
F12.13313
aF54.084899999999998
asg21
(dp1477
sbsg23
S'07.06.2012 (09:11:03)'
p1478
sg24
Nsg25
g1468
sbsS'192.168.2.36'
p1479
(iprimitives
AccesPoint
p1480
(dp1481
g4
Nsg5
I0
sg6
g7
(g8
g9
Ntp1482
Rp1483
(dp1484
g13
g7
(g14
g9
Ntp1485
Rp1486
sg17
g18
sg19
(lp1487
F12.1332
aF54.084800000000001
asg21
(dp1488
sbsg23
S'07.06.2012 (09:11:03)'
p1489
sg24
Nsg25
g1479
sbsS'192.168.1.18'
p1490
(iprimitives
AccesPoint
p1491
(dp1492
g4
Nsg5
I3
sg6
g7
(g8
g9
Ntp1493
Rp1494
(dp1495
g13
g7
(g14
g9
Ntp1496
Rp1497
sg17
g18
sg19
(lp1498
F12.114959000000001
aF54.100344
asg21
(dp1499
sbsg23
S'15.08.2010 (08:15:06)'
p1500
sg24
Nsg25
g1490
sbsS'192.168.2.30'
p1501
(iprimitives
AccesPoint
p1502
(dp1503
g4
Nsg5
Nsg6
g7
(g8
g9
Ntp1504
Rp1505
(dp1506
g13
g7
(g14
g9
Ntp1507
Rp1508
sg17
g18
sg19
(lp1509
F12.107659999999999
aF54.076569999999997
asg21
(dp1510
sbsg23
Nsg24
Nsg25
g1501
sbsS'192.168.2.31'
p1511
(iprimitives
AccesPoint
p1512
(dp1513
g4
Nsg5
I0
sg6
g7
(g8
g9
Ntp1514
Rp1515
(dp1516
g13
g7
(g14
g9
Ntp1517
Rp1518
sg17
g18
sg19
(lp1519
F12.120597
aF54.072296999999999
asg21
(dp1520
sbsg23
S'07.06.2012 (09:11:03)'
p1521
sg24
Nsg25
g1511
sbsS'192.168.2.32'
p1522
(iprimitives
AccesPoint
p1523
(dp1524
g4
Nsg5
I3
sg6
g7
(g8
g9
Ntp1525
Rp1526
(dp1527
g13
g7
(g14
g9
Ntp1528
Rp1529
sg17
g18
sg19
(lp1530
F12.210875
aF54.048445000000001
asg21
(dp1531
sbsg23
S'31.03.2012 (06:45:03)'
p1532
sg24
Nsg25
g1522
sbsS'192.168.2.33'
p1533
(iprimitives
AccesPoint
p1534
(dp1535
g4
Nsg5
I0
sg6
g7
(g8
g9
Ntp1536
Rp1537
(dp1538
g13
g7
(g14
g9
Ntp1539
Rp1540
sg17
g18
sg19
(lp1541
F12.1334
aF54.084800000000001
asg21
(dp1542
sbsg23
S'07.06.2012 (09:11:03)'
p1543
sg24
Nsg25
g1533
sbsS'192.168.1.13'
p1544
(iprimitives
AccesPoint
p1545
(dp1546
g4
Nsg5
Nsg6
g7
(g8
g9
Ntp1547
Rp1548
(dp1549
g13
g7
(g14
g9
Ntp1550
Rp1551
sg17
g18
sg19
(lp1552
F12.098747491799999
aF54.090887381599998
asg21
(dp1553
sbsg23
Nsg24
Nsg25
g1544
sbsS'192.168.1.12'
p1554
(iprimitives
AccesPoint
p1555
(dp1556
g4
Nsg5
I0
sg6
g7
(g8
g9
Ntp1557
Rp1558
(dp1559
g13
g7
(g14
g9
Ntp1560
Rp1561
sg17
g18
sg19
(lp1562
F12.111409999999999
aF54.092379999999999
asg21
(dp1563
sbsg23
S'07.06.2012 (09:11:03)'
p1564
sg24
Nsg25
g1554
sbsS'192.168.1.11'
p1565
(iprimitives
AccesPoint
p1566
(dp1567
g4
Nsg5
I3
sg6
g7
(g8
g9
Ntp1568
Rp1569
(dp1570
g13
g7
(g14
g9
Ntp1571
Rp1572
sg17
g18
sg19
(lp1573
F12.099026439999999
aF54.090969180000002
asg21
(dp1574
sbsg23
S'19.11.2011 (01:29:03)'
p1575
sg24
Nsg25
g1565
sbsS'192.168.1.10'
p1576
(iprimitives
AccesPoint
p1577
(dp1578
g62
I0
sg63
S'OpenWrt(backfire 10.03.1-RC6)'
p1579
sg4
I0
sg5
I0
sg65
g1182
sg6
g7
(g8
g9
Ntp1580
Rp1581
(dp1582
g13
g7
(g14
g9
Ntp1583
Rp1584
sg17
g18
sg19
(lp1585
F12.107926000000001
aF54.071496000000003
asg21
(dp1586
sbsg23
S'07.06.2012 (09:11:03)'
p1587
sg24
I0
sg25
g1576
sbsS'192.168.1.17'
p1588
(iprimitives
AccesPoint
p1589
(dp1590
g4
Nsg5
I3
sg6
g7
(g8
g9
Ntp1591
Rp1592
(dp1593
g13
g7
(g14
g9
Ntp1594
Rp1595
sg17
g18
sg19
(lp1596
F12.117039999999999
aF54.093710000000002
asg21
(dp1597
sbsg23
S'08.06.2011 (08:23:04)'
p1598
sg24
Nsg25
g1588
sbsS'192.168.1.16'
p1599
(iprimitives
AccesPoint
p1600
(dp1601
g4
Nsg5
I3
sg6
g7
(g8
g9
Ntp1602
Rp1603
(dp1604
g13
g7
(g14
g9
Ntp1605
Rp1606
sg17
g18
sg19
(lp1607
g35
ag35
asg21
(dp1608
sbsg23
S'06.09.2011 (09:19:03)'
p1609
sg24
Nsg25
g1599
sbsS'192.168.1.15'
p1610
(iprimitives
AccesPoint
p1611
(dp1612
g4
Nsg5
I0
sg6
g7
(g8
g9
Ntp1613
Rp1614
(dp1615
g13
g7
(g14
g9
Ntp1616
Rp1617
sg17
g18
sg19
(lp1618
F12.110329999999999
aF54.086530000000003
asg21
(dp1619
sbsg23
S'07.06.2012 (09:11:03)'
p1620
sg24
Nsg25
g1610
sbsS'192.168.1.14'
p1621
(iprimitives
AccesPoint
p1622
(dp1623
g4
Nsg5
I3
sg6
g7
(g8
g9
Ntp1624
Rp1625
(dp1626
g13
g7
(g14
g9
Ntp1627
Rp1628
sg17
g18
sg19
(lp1629
F12.11056
aF54.086440000000003
asg21
(dp1630
sbsg23
S'21.11.2011 (03:10:04)'
p1631
sg24
Nsg25
g1621
sbsS'192.168.1.121'
p1632
(iprimitives
AccesPoint
p1633
(dp1634
g4
Nsg5
I3
sg6
g7
(g8
g9
Ntp1635
Rp1636
(dp1637
g13
g7
(g14
g9
Ntp1638
Rp1639
sg17
g18
sg19
(lp1640
F12.266112
aF53.983060999999999
asg21
(dp1641
sbsg23
S'14.04.2012 (11:09:03)'
p1642
sg24
Nsg25
g1632
sbsS'192.168.1.199'
p1643
(iprimitives
AccesPoint
p1644
(dp1645
g62
I1
sg63
S'OpenWrt(white russian  0.9-ON5)'
p1646
sg4
I0
sg5
I0
sg65
g148
sg6
g7
(g8
g9
Ntp1647
Rp1648
(dp1649
g13
g7
(g14
g9
Ntp1650
Rp1651
sg17
g18
sg19
(lp1652
F12.15789
aF54.027889999999999
asg21
(dp1653
sbsg23
S'07.06.2012 (09:11:03)'
p1654
sg24
I0
sg25
g1643
sbsS'192.168.1.3'
p1655
(iprimitives
AccesPoint
p1656
(dp1657
g4
Nsg5
I3
sg6
g7
(g8
g9
Ntp1658
Rp1659
(dp1660
g13
g7
(g14
g9
Ntp1661
Rp1662
sg17
g18
sg19
(lp1663
F12.099026439999999
aF54.090969180000002
asg21
(dp1664
sbsg23
S'11.05.2011 (12:16:03)'
p1665
sg24
Nsg25
g1655
sbsS'192.168.1.213'
p1666
(iprimitives
AccesPoint
p1667
(dp1668
g62
I1
sg63
S'OpenWrt(white russian  0.9-ON5)'
p1669
sg4
I0
sg5
I0
sg65
g148
sg6
g7
(g8
g9
Ntp1670
Rp1671
(dp1672
g13
g7
(g14
g9
Ntp1673
Rp1674
sg17
g18
sg19
(lp1675
F12.155609999999999
aF54.026502999999998
asg21
(dp1676
sbsg23
S'07.06.2012 (09:11:03)'
p1677
sg24
I0
sg25
g1666
sbsS'192.168.1.2'
p1678
(iprimitives
AccesPoint
p1679
(dp1680
g4
Nsg5
Nsg6
g7
(g8
g9
Ntp1681
Rp1682
(dp1683
g13
g7
(g14
g9
Ntp1684
Rp1685
sg17
g18
sg19
(lp1686
F12.111027999999999
aF54.086632000000002
asg21
(dp1687
sbsg23
Nsg24
Nsg25
g1678
sbsS'192.168.2.37'
p1688
(iprimitives
AccesPoint
p1689
(dp1690
g4
Nsg5
I0
sg6
g7
(g8
g9
Ntp1691
Rp1692
(dp1693
g13
g7
(g14
g9
Ntp1694
Rp1695
sg17
g18
sg19
(lp1696
F12.129319000000001
aF54.083801000000001
asg21
(dp1697
sbsg23
S'07.06.2012 (09:11:03)'
p1698
sg24
Nsg25
g1688
sbsS'192.168.1.1'
p1699
(iprimitives
AccesPoint
p1700
(dp1701
g4
Nsg5
Nsg6
g7
(g8
g9
Ntp1702
Rp1703
(dp1704
g13
g7
(g14
g9
Ntp1705
Rp1706
sg17
g18
sg19
(lp1707
g35
ag35
asg21
(dp1708
sbsg23
Nsg24
Nsg25
g1699
sbsS'192.168.1.237'
p1709
(iprimitives
AccesPoint
p1710
(dp1711
g4
Nsg5
I0
sg6
g7
(g8
g9
Ntp1712
Rp1713
(dp1714
g13
g7
(g14
g9
Ntp1715
Rp1716
sg17
g18
sg19
(lp1717
F12.387847000000001
aF53.758125
asg21
(dp1718
sbsg23
S'07.06.2012 (09:11:03)'
p1719
sg24
Nsg25
g1709
sbsS'192.168.1.166'
p1720
(iprimitives
AccesPoint
p1721
(dp1722
g4
Nsg5
I0
sg6
g7
(g8
g9
Ntp1723
Rp1724
(dp1725
g13
g7
(g14
g9
Ntp1726
Rp1727
sg17
g18
sg19
(lp1728
F12.26557
aF53.985180999999997
asg21
(dp1729
sbsg23
S'07.06.2012 (09:11:03)'
p1730
sg24
Nsg25
g1720
sbsS'192.168.1.159'
p1731
(iprimitives
AccesPoint
p1732
(dp1733
g4
Nsg5
I0
sg6
g7
(g8
g9
Ntp1734
Rp1735
(dp1736
g13
g7
(g14
g9
Ntp1737
Rp1738
sg17
g18
sg19
(lp1739
F12.15774
aF54.027811
asg21
(dp1740
sbsg23
S'07.06.2012 (09:11:03)'
p1741
sg24
Nsg25
g1731
sbsS'192.168.1.158'
p1742
(iprimitives
AccesPoint
p1743
(dp1744
g62
I1
sg63
S'OpenWrt(white russian  0.9-ON5)'
p1745
sg4
I0
sg5
I0
sg65
g148
sg6
g7
(g8
g9
Ntp1746
Rp1747
(dp1748
g13
g7
(g14
g9
Ntp1749
Rp1750
sg17
g18
sg19
(lp1751
F12.267936000000001
aF53.982773999999999
asg21
(dp1752
sbsg23
S'07.06.2012 (09:11:03)'
p1753
sg24
I0
sg25
g1742
sbsS'192.168.2.29'
p1754
(iprimitives
AccesPoint
p1755
(dp1756
g4
Nsg5
Nsg6
g7
(g8
g9
Ntp1757
Rp1758
(dp1759
g13
g7
(g14
g9
Ntp1760
Rp1761
sg17
g18
sg19
(lp1762
F12.107659999999999
aF54.076569999999997
asg21
(dp1763
sbsg23
Nsg24
Nsg25
g1754
sbsS'192.168.1.153'
p1764
(iprimitives
AccesPoint
p1765
(dp1766
g4
Nsg5
Nsg6
g7
(g8
g9
Ntp1767
Rp1768
(dp1769
g13
g7
(g14
g9
Ntp1770
Rp1771
sg17
g18
sg19
(lp1772
F12.101827
aF54.117018000000002
asg21
(dp1773
sbsg23
Nsg24
Nsg25
g1764
sbsS'192.168.1.152'
p1774
(iprimitives
AccesPoint
p1775
(dp1776
g62
I0
sg63
S'AirOS(XM.v5.3.3 )'
p1777
sg4
I0
sg5
I0
sg65
g135
sg6
g7
(g8
g9
Ntp1778
Rp1779
(dp1780
g13
g7
(g14
g9
Ntp1781
Rp1782
sg17
g18
sg19
(lp1783
F12.107706
aF54.077910000000003
asg21
(dp1784
sbsg23
S'07.06.2012 (09:11:03)'
p1785
sg24
I0
sg25
g1774
sbsS'192.168.1.151'
p1786
(iprimitives
AccesPoint
p1787
(dp1788
g62
I1
sg63
S'AirOS(XM.v5.3.3 )'
p1789
sg4
I0
sg5
I0
sg65
g135
sg6
g7
(g8
g9
Ntp1790
Rp1791
(dp1792
g13
g7
(g14
g9
Ntp1793
Rp1794
sg17
g18
sg19
(lp1795
F12.107942
aF54.079320000000003
asg21
(dp1796
sbsg23
S'07.06.2012 (09:11:03)'
p1797
sg24
I0
sg25
g1786
sbsS'192.168.1.150'
p1798
(iprimitives
AccesPoint
p1799
(dp1800
g4
Nsg5
I3
sg6
g7
(g8
g9
Ntp1801
Rp1802
(dp1803
g13
g7
(g14
g9
Ntp1804
Rp1805
sg17
g18
sg19
(lp1806
g35
ag35
asg21
(dp1807
sbsg23
S'10.06.2011 (17:42:03)'
p1808
sg24
Nsg25
g1798
sbsS'192.168.1.157'
p1809
(iprimitives
AccesPoint
p1810
(dp1811
g62
I0
sg63
S'AirOS(XM.v5.3.3 )'
p1812
sg4
I0
sg5
I0
sg65
g135
sg6
g7
(g8
g9
Ntp1813
Rp1814
(dp1815
g13
g7
(g14
g9
Ntp1816
Rp1817
sg17
g18
sg19
(lp1818
F12.107749
aF54.077193000000001
asg21
(dp1819
sbsg23
S'07.06.2012 (09:11:03)'
p1820
sg24
I0
sg25
g1809
sbsS'192.168.1.156'
p1821
(iprimitives
AccesPoint
p1822
(dp1823
g4
Nsg5
I1
sg6
g7
(g8
g9
Ntp1824
Rp1825
(dp1826
g13
g7
(g14
g9
Ntp1827
Rp1828
sg17
g18
sg19
(lp1829
F12.111064000000001
aF54.089345999999999
asg21
(dp1830
sbsg23
S'06.06.2012 (22:54:03)'
p1831
sg24
Nsg25
g1821
sbsS'192.168.1.155'
p1832
(iprimitives
AccesPoint
p1833
(dp1834
g4
Nsg5
I0
sg6
g7
(g8
g9
Ntp1835
Rp1836
(dp1837
g13
g7
(g14
g9
Ntp1838
Rp1839
sg17
g18
sg19
(lp1840
F12.245673999999999
aF53.969239999999999
asg21
(dp1841
sbsg23
S'07.06.2012 (09:11:03)'
p1842
sg24
Nsg25
g1832
sbsS'192.168.1.154'
p1843
(iprimitives
AccesPoint
p1844
(dp1845
g4
Nsg5
I3
sg6
g7
(g8
g9
Ntp1846
Rp1847
(dp1848
g13
g7
(g14
g9
Ntp1849
Rp1850
sg17
g18
sg19
(lp1851
F12.159140000000001
aF54.027611999999998
asg21
(dp1852
sbsg23
S'20.03.2012 (10:37:03)'
p1853
sg24
Nsg25
g1843
sbsS'192.168.1.26'
p1854
(iprimitives
AccesPoint
p1855
(dp1856
g62
I1
sg63
S'OpenWrt(white russian  0.9-ON5)'
p1857
sg4
I0
sg5
I0
sg65
g148
sg6
g7
(g8
g9
Ntp1858
Rp1859
(dp1860
g13
g7
(g14
g9
Ntp1861
Rp1862
sg17
g18
sg19
(lp1863
F12.154484
aF54.024638000000003
asg21
(dp1864
sbsg23
S'07.06.2012 (09:11:03)'
p1865
sg24
I0
sg25
g1854
sbsS'192.168.1.27'
p1866
(iprimitives
AccesPoint
p1867
(dp1868
g62
I1
sg63
S'OpenWrt(white russian  0.9-ON5)'
p1869
sg4
I0
sg5
I0
sg65
g1381
sg6
g7
(g8
g9
Ntp1870
Rp1871
(dp1872
g13
g7
(g14
g9
Ntp1873
Rp1874
sg17
g18
sg19
(lp1875
F12.112518
aF54.093131
asg21
(dp1876
sbsg23
S'07.06.2012 (09:11:03)'
p1877
sg24
I1
sg25
g1866
sbsS'192.168.1.24'
p1878
(iprimitives
AccesPoint
p1879
(dp1880
g4
Nsg5
I3
sg6
g7
(g8
g9
Ntp1881
Rp1882
(dp1883
g13
g7
(g14
g9
Ntp1884
Rp1885
sg17
g18
sg19
(lp1886
F12.114100000000001
aF54.090949999999999
asg21
(dp1887
sbsg23
S'17.10.2011 (07:58:03)'
p1888
sg24
Nsg25
g1878
sbsS'192.168.1.25'
p1889
(iprimitives
AccesPoint
p1890
(dp1891
g4
Nsg5
I0
sg6
g7
(g8
g9
Ntp1892
Rp1893
(dp1894
g13
g7
(g14
g9
Ntp1895
Rp1896
sg17
g18
sg19
(lp1897
F12.110200000000001
aF54.086260000000003
asg21
(dp1898
sbsg23
S'07.06.2012 (09:11:03)'
p1899
sg24
Nsg25
g1889
sbsS'192.168.1.22'
p1900
(iprimitives
AccesPoint
p1901
(dp1902
g62
I1
sg63
S'OpenWrt(white russian  0.9-ON5)'
p1903
sg4
I0
sg5
I0
sg65
g148
sg6
g7
(g8
g9
Ntp1904
Rp1905
(dp1906
g13
g7
(g14
g9
Ntp1907
Rp1908
sg17
g18
sg19
(lp1909
F12.265682999999999
aF53.985190000000003
asg21
(dp1910
sbsg23
S'07.06.2012 (09:11:03)'
p1911
sg24
I0
sg25
g1900
sbsS'192.168.1.23'
p1912
(iprimitives
AccesPoint
p1913
(dp1914
g62
I1
sg63
S'OpenWrt(backfire 10.03.1)'
p1915
sg4
I1
sg5
I0
sg65
S'TP-LINK TL-WR1043ND'
p1916
sg6
g7
(g8
g9
Ntp1917
Rp1918
(dp1919
g13
g7
(g14
g9
Ntp1920
Rp1921
sg17
g18
sg19
(lp1922
F12.122941000000001
aF54.091479
asg21
(dp1923
sbsg23
S'07.06.2012 (09:11:03)'
p1924
sg24
I0
sg25
g1912
sbsS'192.168.1.20'
p1925
(iprimitives
AccesPoint
p1926
(dp1927
g62
I1
sg63
S'OpenWrt(white russian  0.9-ON5)'
p1928
sg4
I0
sg5
I0
sg65
g161
sg6
g7
(g8
g9
Ntp1929
Rp1930
(dp1931
g13
g7
(g14
g9
Ntp1932
Rp1933
sg17
g18
sg19
(lp1934
F12.157359
aF54.026502999999998
asg21
(dp1935
sbsg23
S'07.06.2012 (09:11:03)'
p1936
sg24
I0
sg25
g1925
sbsS'192.168.1.21'
p1937
(iprimitives
AccesPoint
p1938
(dp1939
g4
Nsg5
I3
sg6
g7
(g8
g9
Ntp1940
Rp1941
(dp1942
g13
g7
(g14
g9
Ntp1943
Rp1944
sg17
g18
sg19
(lp1945
g35
ag35
asg21
(dp1946
sbsg23
S'17.12.2011 (11:25:03)'
p1947
sg24
Nsg25
g1937
sbsS'192.168.2.8'
p1948
(iprimitives
AccesPoint
p1949
(dp1950
g4
Nsg5
I0
sg6
g7
(g8
g9
Ntp1951
Rp1952
(dp1953
g13
g7
(g14
g9
Ntp1954
Rp1955
sg17
g18
sg19
(lp1956
F12.106563
aF54.076661000000001
asg21
(dp1957
sbsg23
S'07.06.2012 (09:11:03)'
p1958
sg24
Nsg25
g1948
sbsS'192.168.2.20'
p1959
(iprimitives
AccesPoint
p1960
(dp1961
g4
Nsg5
I0
sg6
g7
(g8
g9
Ntp1962
Rp1963
(dp1964
g13
g7
(g14
g9
Ntp1965
Rp1966
sg17
g18
sg19
(lp1967
F12.130364999999999
aF54.140875999999999
asg21
(dp1968
sbsg23
S'07.06.2012 (09:11:03)'
p1969
sg24
Nsg25
g1959
sbsS'192.168.1.231'
p1970
(iprimitives
AccesPoint
p1971
(dp1972
g62
I0
sg63
S'OpenWrt(backfire 10.03.1-RC6)'
p1973
sg4
I0
sg5
I0
sg65
g1368
sg6
g7
(g8
g9
Ntp1974
Rp1975
(dp1976
g13
g7
(g14
g9
Ntp1977
Rp1978
sg17
g18
sg19
(lp1979
F12.294741999999999
aF54.007959999999997
asg21
(dp1980
sbsg23
S'07.06.2012 (09:11:03)'
p1981
sg24
I0
sg25
g1970
sbsS'192.168.1.28'
p1982
(iprimitives
AccesPoint
p1983
(dp1984
g4
Nsg5
I3
sg6
g7
(g8
g9
Ntp1985
Rp1986
(dp1987
g13
g7
(g14
g9
Ntp1988
Rp1989
sg17
g18
sg19
(lp1990
F12.118167
aF54.088369999999998
asg21
(dp1991
sbsg23
S'02.04.2012 (05:24:03)'
p1992
sg24
Nsg25
g1982
sbsS'192.168.1.29'
p1993
(iprimitives
AccesPoint
p1994
(dp1995
g4
Nsg5
I3
sg6
g7
(g8
g9
Ntp1996
Rp1997
(dp1998
g13
g7
(g14
g9
Ntp1999
Rp2000
sg17
g18
sg19
(lp2001
F12.117533999999999
aF54.088394999999998
asg21
(dp2002
sbsg23
S'12.02.2012 (09:47:03)'
p2003
sg24
Nsg25
g1993
sbsS'192.168.1.247'
p2004
(iprimitives
AccesPoint
p2005
(dp2006
g4
Nsg5
I3
sg6
g7
(g8
g9
Ntp2007
Rp2008
(dp2009
g13
g7
(g14
g9
Ntp2010
Rp2011
sg17
g18
sg19
(lp2012
F12.267571
aF53.983981999999997
asg21
(dp2013
sbsg23
S'25.02.2011 (17:04:03)'
p2014
sg24
Nsg25
g2004
sbsS'192.168.1.246'
p2015
(iprimitives
AccesPoint
p2016
(dp2017
g4
Nsg5
I3
sg6
g7
(g8
g9
Ntp2018
Rp2019
(dp2020
g13
g7
(g14
g9
Ntp2021
Rp2022
sg17
g18
sg19
(lp2023
F12.26947
aF53.980742999999997
asg21
(dp2024
sbsg23
S'26.08.2011 (10:22:03)'
p2025
sg24
Nsg25
g2015
sbsS'192.168.1.245'
p2026
(iprimitives
AccesPoint
p2027
(dp2028
g62
I1
sg63
S'OpenWrt(white russian  0.9-ON5)'
p2029
sg4
I0
sg5
I0
sg65
g148
sg6
g7
(g8
g9
Ntp2030
Rp2031
(dp2032
g13
g7
(g14
g9
Ntp2033
Rp2034
sg17
g18
sg19
(lp2035
F12.266927000000001
aF53.983669999999996
asg21
(dp2036
sbsg23
S'07.06.2012 (09:11:03)'
p2037
sg24
I0
sg25
g2026
sbsS'192.168.1.244'
p2038
(iprimitives
AccesPoint
p2039
(dp2040
g4
Nsg5
Nsg6
g7
(g8
g9
Ntp2041
Rp2042
(dp2043
g13
g7
(g14
g9
Ntp2044
Rp2045
sg17
g18
sg19
(lp2046
F12.21415
aF53.980333999999999
asg21
(dp2047
sbsg23
Nsg24
Nsg25
g2038
sbsS'192.168.1.243'
p2048
(iprimitives
AccesPoint
p2049
(dp2050
g62
I1
sg63
S'OpenWrt(white russian  0.9-ON5)'
p2051
sg4
I0
sg5
I0
sg65
g148
sg6
g7
(g8
g9
Ntp2052
Rp2053
(dp2054
g13
g7
(g14
g9
Ntp2055
Rp2056
sg17
g18
sg19
(lp2057
F12.477518
aF53.756951000000001
asg21
(dp2058
sbsg23
S'07.06.2012 (09:11:03)'
p2059
sg24
I0
sg25
g2048
sbsS'192.168.1.242'
p2060
(iprimitives
AccesPoint
p2061
(dp2062
g4
Nsg5
I1
sg6
g7
(g8
g9
Ntp2063
Rp2064
(dp2065
g13
g7
(g14
g9
Ntp2066
Rp2067
sg17
g18
sg19
(lp2068
F12.476413000000001
aF53.756138999999997
asg21
(dp2069
sbsg23
S'05.06.2012 (20:36:03)'
p2070
sg24
Nsg25
g2060
sbsS'192.168.1.241'
p2071
(iprimitives
AccesPoint
p2072
(dp2073
g62
I1
sg63
S'OpenWrt(white russian  0.9-ON5)'
p2074
sg4
I0
sg5
I0
sg65
g148
sg6
g7
(g8
g9
Ntp2075
Rp2076
(dp2077
g13
g7
(g14
g9
Ntp2078
Rp2079
sg17
g18
sg19
(lp2080
F12.474643
aF53.756405999999998
asg21
(dp2081
sbsg23
S'07.06.2012 (09:11:03)'
p2082
sg24
I0
sg25
g2071
sbsS'192.168.1.240'
p2083
(iprimitives
AccesPoint
p2084
(dp2085
g4
Nsg5
I3
sg6
g7
(g8
g9
Ntp2086
Rp2087
(dp2088
g13
g7
(g14
g9
Ntp2089
Rp2090
sg17
g18
sg19
(lp2091
F12.477067999999999
aF53.755929999999999
asg21
(dp2092
sbsg23
S'23.04.2012 (08:49:02)'
p2093
sg24
Nsg25
g2083
sbsS'192.168.1.249'
p2094
(iprimitives
AccesPoint
p2095
(dp2096
g62
I1
sg63
S'OpenWrt(backfire 10.03.1)'
p2097
sg4
I0
sg5
I0
sg65
g1916
sg6
g7
(g8
g9
Ntp2098
Rp2099
(dp2100
g13
g7
(g14
g9
Ntp2101
Rp2102
sg17
g18
sg19
(lp2103
F12.159848
aF54.076613999999999
asg21
(dp2104
sbsg23
S'07.06.2012 (09:11:03)'
p2105
sg24
I0
sg25
g2094
sbsS'192.168.1.248'
p2106
(iprimitives
AccesPoint
p2107
(dp2108
g4
Nsg5
I0
sg6
g7
(g8
g9
Ntp2109
Rp2110
(dp2111
g13
g7
(g14
g9
Ntp2112
Rp2113
sg17
g18
sg19
(lp2114
F12.118520999999999
aF54.102187000000001
asg21
(dp2115
sbsg23
S'07.06.2012 (09:11:03)'
p2116
sg24
Nsg25
g2106
sbsS'192.168.1.225'
p2117
(iprimitives
AccesPoint
p2118
(dp2119
g62
I0
sg63
S'OpenWrt(backfire 10.03.1-RC6)'
p2120
sg4
I0
sg5
I0
sg65
g1368
sg6
g7
(g8
g9
Ntp2121
Rp2122
(dp2123
g13
g7
(g14
g9
Ntp2124
Rp2125
sg17
g18
sg19
(lp2126
F12.294755
aF54.007860000000001
asg21
(dp2127
sbsg23
S'07.06.2012 (09:11:03)'
p2128
sg24
I0
sg25
g2117
sbsS'192.168.1.224'
p2129
(iprimitives
AccesPoint
p2130
(dp2131
g4
Nsg5
I0
sg6
g7
(g8
g9
Ntp2132
Rp2133
(dp2134
g13
g7
(g14
g9
Ntp2135
Rp2136
sg17
g18
sg19
(lp2137
F12.1145
aF54.088900000000002
asg21
(dp2138
sbsg23
S'07.06.2012 (09:11:03)'
p2139
sg24
Nsg25
g2129
sbsS'192.168.1.227'
p2140
(iprimitives
AccesPoint
p2141
(dp2142
g4
Nsg5
I0
sg6
g7
(g8
g9
Ntp2143
Rp2144
(dp2145
g13
g7
(g14
g9
Ntp2146
Rp2147
sg17
g18
sg19
(lp2148
F12.190058000000001
aF54.005707000000001
asg21
(dp2149
sbsg23
S'07.06.2012 (09:11:03)'
p2150
sg24
Nsg25
g2140
sbsS'192.168.1.226'
p2151
(iprimitives
AccesPoint
p2152
(dp2153
g62
I1
sg63
S'OpenWrt(white russian  0.9-ON5)'
p2154
sg4
I0
sg5
I0
sg65
g148
sg6
g7
(g8
g9
Ntp2155
Rp2156
(dp2157
g13
g7
(g14
g9
Ntp2158
Rp2159
sg17
g18
sg19
(lp2160
F12.155728
aF54.025016000000001
asg21
(dp2161
sbsg23
S'07.06.2012 (09:11:03)'
p2162
sg24
I0
sg25
g2151
sbsS'192.168.1.221'
p2163
(iprimitives
AccesPoint
p2164
(dp2165
g4
Nsg5
I3
sg6
g7
(g8
g9
Ntp2166
Rp2167
(dp2168
g13
g7
(g14
g9
Ntp2169
Rp2170
sg17
g18
sg19
(lp2171
F12.083981
aF54.101537
asg21
(dp2172
sbsg23
S'10.06.2010 (22:27:02)'
p2173
sg24
Nsg25
g2163
sbsS'192.168.1.220'
p2174
(iprimitives
AccesPoint
p2175
(dp2176
g4
Nsg5
Nsg6
g7
(g8
g9
Ntp2177
Rp2178
(dp2179
g13
g7
(g14
g9
Ntp2180
Rp2181
sg17
g18
sg19
(lp2182
F12.130364999999999
aF54.141247
asg21
(dp2183
sbsg23
Nsg24
Nsg25
g2174
sbsS'192.168.1.223'
p2184
(iprimitives
AccesPoint
p2185
(dp2186
g62
I1
sg63
S'OpenWrt(white russian  0.9-ON5)'
p2187
sg4
I0
sg5
I0
sg65
g148
sg6
g7
(g8
g9
Ntp2188
Rp2189
(dp2190
g13
g7
(g14
g9
Ntp2191
Rp2192
sg17
g18
sg19
(lp2193
F12.153756
aF54.025936000000002
asg21
(dp2194
sbsg23
S'07.06.2012 (09:11:03)'
p2195
sg24
I0
sg25
g2184
sbsS'192.168.1.222'
p2196
(iprimitives
AccesPoint
p2197
(dp2198
g4
Nsg5
I0
sg6
g7
(g8
g9
Ntp2199
Rp2200
(dp2201
g13
g7
(g14
g9
Ntp2202
Rp2203
sg17
g18
sg19
(lp2204
F12.114699999999999
aF54.089100000000002
asg21
(dp2205
sbsg23
S'07.06.2012 (09:11:03)'
p2206
sg24
Nsg25
g2196
sbsS'192.168.1.254'
p2207
(iprimitives
AccesPoint
p2208
(dp2209
g4
Nsg5
Nsg6
g7
(g8
g9
Ntp2210
Rp2211
(dp2212
g13
g7
(g14
g9
Ntp2213
Rp2214
sg17
g18
sg19
(lp2215
F12.216024000000001
aF53.976357999999998
asg21
(dp2216
sbsg23
Nsg24
Nsg25
g2207
sbsS'192.168.1.229'
p2217
(iprimitives
AccesPoint
p2218
(dp2219
g4
Nsg5
I3
sg6
g7
(g8
g9
Ntp2220
Rp2221
(dp2222
g13
g7
(g14
g9
Ntp2223
Rp2224
sg17
g18
sg19
(lp2225
F12.260908000000001
aF54.017397000000003
asg21
(dp2226
sbsg23
S'22.06.2011 (16:33:03)'
p2227
sg24
Nsg25
g2217
sbsS'192.168.1.19'
p2228
(iprimitives
AccesPoint
p2229
(dp2230
g4
Nsg5
I1
sg6
g7
(g8
g9
Ntp2231
Rp2232
(dp2233
g13
g7
(g14
g9
Ntp2234
Rp2235
sg17
g18
sg19
(lp2236
g35
ag35
asg21
(dp2237
sbsg23
S'24.05.2012 (15:37:04)'
p2238
sg24
Nsg25
g2228
sbsS'192.168.1.144'
p2239
(iprimitives
AccesPoint
p2240
(dp2241
g4
Nsg5
I3
sg6
g7
(g8
g9
Ntp2242
Rp2243
(dp2244
g13
g7
(g14
g9
Ntp2245
Rp2246
sg17
g18
sg19
(lp2247
g35
ag35
asg21
(dp2248
sbsg23
S'31.03.2012 (06:41:03)'
p2249
sg24
Nsg25
g2239
sbsS'192.168.1.145'
p2250
(iprimitives
AccesPoint
p2251
(dp2252
g62
I1
sg63
S'OpenWrt(white russian  0.9-ON5)'
p2253
sg4
I0
sg5
I0
sg65
S'Buffalo WHR-G54s'
p2254
sg6
g7
(g8
g9
Ntp2255
Rp2256
(dp2257
g13
g7
(g14
g9
Ntp2258
Rp2259
sg17
g18
sg19
(lp2260
F12.09084
aF54.096162999999997
asg21
(dp2261
sbsg23
S'07.06.2012 (09:11:03)'
p2262
sg24
I0
sg25
g2250
sbsS'192.168.1.146'
p2263
(iprimitives
AccesPoint
p2264
(dp2265
g4
Nsg5
I3
sg6
g7
(g8
g9
Ntp2266
Rp2267
(dp2268
g13
g7
(g14
g9
Ntp2269
Rp2270
sg17
g18
sg19
(lp2271
F12.121997
aF54.087577000000003
asg21
(dp2272
sbsg23
S'20.12.2011 (19:49:03)'
p2273
sg24
Nsg25
g2263
sbsS'192.168.1.147'
p2274
(iprimitives
AccesPoint
p2275
(dp2276
g4
Nsg5
I0
sg6
g7
(g8
g9
Ntp2277
Rp2278
(dp2279
g13
g7
(g14
g9
Ntp2280
Rp2281
sg17
g18
sg19
(lp2282
F12.09822
aF54.093043999999999
asg21
(dp2283
sbsg23
S'07.06.2012 (09:11:03)'
p2284
sg24
Nsg25
g2274
sbsS'192.168.1.140'
p2285
(iprimitives
AccesPoint
p2286
(dp2287
g4
Nsg5
I3
sg6
g7
(g8
g9
Ntp2288
Rp2289
(dp2290
g13
g7
(g14
g9
Ntp2291
Rp2292
sg17
g18
sg19
(lp2293
F12.270248
aF53.981831
asg21
(dp2294
sbsg23
S'24.12.2011 (13:32:04)'
p2295
sg24
Nsg25
g2285
sbsS'192.168.1.141'
p2296
(iprimitives
AccesPoint
p2297
(dp2298
g4
Nsg5
I3
sg6
g7
(g8
g9
Ntp2299
Rp2300
(dp2301
g13
g7
(g14
g9
Ntp2302
Rp2303
sg17
g18
sg19
(lp2304
F12.120672000000001
aF54.089039999999997
asg21
(dp2305
sbsg23
S'10.04.2012 (21:20:03)'
p2306
sg24
Nsg25
g2296
sbsS'192.168.1.142'
p2307
(iprimitives
AccesPoint
p2308
(dp2309
g4
Nsg5
I3
sg6
g7
(g8
g9
Ntp2310
Rp2311
(dp2312
g13
g7
(g14
g9
Ntp2313
Rp2314
sg17
g18
sg19
(lp2315
g35
ag35
asg21
(dp2316
sbsg23
S'05.11.2011 (13:52:04)'
p2317
sg24
Nsg25
g2307
sbsS'192.168.1.143'
p2318
(iprimitives
AccesPoint
p2319
(dp2320
g4
Nsg5
I0
sg6
g7
(g8
g9
Ntp2321
Rp2322
(dp2323
g13
g7
(g14
g9
Ntp2324
Rp2325
sg17
g18
sg19
(lp2326
F12.267029000000001
aF53.983651000000002
asg21
(dp2327
sbsg23
S'07.06.2012 (09:11:03)'
p2328
sg24
Nsg25
g2318
sbsS'192.168.1.148'
p2329
(iprimitives
AccesPoint
p2330
(dp2331
g4
Nsg5
I3
sg6
g7
(g8
g9
Ntp2332
Rp2333
(dp2334
g13
g7
(g14
g9
Ntp2335
Rp2336
sg17
g18
sg19
(lp2337
g35
ag35
asg21
(dp2338
sbsg23
S'20.09.2011 (12:37:03)'
p2339
sg24
Nsg25
g2329
sbsS'192.168.1.149'
p2340
(iprimitives
AccesPoint
p2341
(dp2342
g4
Nsg5
I3
sg6
g7
(g8
g9
Ntp2343
Rp2344
(dp2345
g13
g7
(g14
g9
Ntp2346
Rp2347
sg17
g18
sg19
(lp2348
F12.269309
aF53.983266
asg21
(dp2349
sbsg23
S'31.08.2011 (13:32:03)'
p2350
sg24
Nsg25
g2340
sbsS'192.168.1.31'
p2351
(iprimitives
AccesPoint
p2352
(dp2353
g4
Nsg5
I3
sg6
g7
(g8
g9
Ntp2354
Rp2355
(dp2356
g13
g7
(g14
g9
Ntp2357
Rp2358
sg17
g18
sg19
(lp2359
F12.143800000000001
aF54.081878000000003
asg21
(dp2360
sbsg23
S'25.09.2011 (22:12:04)'
p2361
sg24
Nsg25
g2351
sbsS'192.168.1.30'
p2362
(iprimitives
AccesPoint
p2363
(dp2364
g4
Nsg5
I3
sg6
g7
(g8
g9
Ntp2365
Rp2366
(dp2367
g13
g7
(g14
g9
Ntp2368
Rp2369
sg17
g18
sg19
(lp2370
g35
ag35
asg21
(dp2371
sbsg23
S'10.10.2011 (14:37:04)'
p2372
sg24
Nsg25
g2362
sbsS'192.168.2.10'
p2373
(iprimitives
AccesPoint
p2374
(dp2375
g4
Nsg5
I0
sg6
g7
(g8
g9
Ntp2376
Rp2377
(dp2378
g13
g7
(g14
g9
Ntp2379
Rp2380
sg17
g18
sg19
(lp2381
F12.123116
aF54.091360000000002
asg21
(dp2382
sbsg23
S'07.06.2012 (09:11:03)'
p2383
sg24
Nsg25
g2373
sbsS'192.168.2.11'
p2384
(iprimitives
AccesPoint
p2385
(dp2386
g4
Nsg5
I0
sg6
g7
(g8
g9
Ntp2387
Rp2388
(dp2389
g13
g7
(g14
g9
Ntp2390
Rp2391
sg17
g18
sg19
(lp2392
F12.1332
aF54.085000000000001
asg21
(dp2393
sbsg23
S'07.06.2012 (09:11:03)'
p2394
sg24
Nsg25
g2384
sbsS'192.168.2.16'
p2395
(iprimitives
AccesPoint
p2396
(dp2397
g62
I0
sg63
S'OpenWrt(white russian  0.9-ON5)'
p2398
sg4
I0
sg5
I1
sg65
g2254
sg6
g7
(g8
g9
Ntp2399
Rp2400
(dp2401
g13
g7
(g14
g9
Ntp2402
Rp2403
sg17
g18
sg19
(lp2404
F12.121503000000001
aF54.087187
asg21
(dp2405
sbsg23
S'04.06.2012 (19:16:03)'
p2406
sg24
I0
sg25
g2395
sbsS'192.168.2.17'
p2407
(iprimitives
AccesPoint
p2408
(dp2409
g4
Nsg5
I0
sg6
g7
(g8
g9
Ntp2410
Rp2411
(dp2412
g13
g7
(g14
g9
Ntp2413
Rp2414
sg17
g18
sg19
(lp2415
F12.1334
aF54.085000000000001
asg21
(dp2416
sbsg23
S'07.06.2012 (09:11:03)'
p2417
sg24
Nsg25
g2407
sbsS'192.168.1.37'
p2418
(iprimitives
AccesPoint
p2419
(dp2420
g62
I1
sg63
S'OpenWrt(white russian  0.9-ON5)'
p2421
sg4
I0
sg5
I0
sg65
g148
sg6
g7
(g8
g9
Ntp2422
Rp2423
(dp2424
g13
g7
(g14
g9
Ntp2425
Rp2426
sg17
g18
sg19
(lp2427
F12.157601
aF54.027088999999997
asg21
(dp2428
sbsg23
S'07.06.2012 (09:11:03)'
p2429
sg24
I0
sg25
g2418
sbsS'192.168.1.36'
p2430
(iprimitives
AccesPoint
p2431
(dp2432
g4
Nsg5
I3
sg6
g7
(g8
g9
Ntp2433
Rp2434
(dp2435
g13
g7
(g14
g9
Ntp2436
Rp2437
sg17
g18
sg19
(lp2438
F12.112869999999999
aF54.093000000000004
asg21
(dp2439
sbsg23
S'19.05.2012 (12:54:03)'
p2440
sg24
Nsg25
g2430
sbsS'192.168.1.39'
p2441
(iprimitives
AccesPoint
p2442
(dp2443
g62
I1
sg63
S'OpenWrt(backfire 10.03.1)'
p2444
sg4
I0
sg5
I0
sg65
g1916
sg6
g7
(g8
g9
Ntp2445
Rp2446
(dp2447
g13
g7
(g14
g9
Ntp2448
Rp2449
sg17
g18
sg19
(lp2450
F12.10439
aF54.080849999999998
asg21
(dp2451
sbsg23
S'07.06.2012 (09:11:03)'
p2452
sg24
I0
sg25
g2441
sbsS'192.168.1.38'
p2453
(iprimitives
AccesPoint
p2454
(dp2455
g4
Nsg5
I3
sg6
g7
(g8
g9
Ntp2456
Rp2457
(dp2458
g13
g7
(g14
g9
Ntp2459
Rp2460
sg17
g18
sg19
(lp2461
F12.112819999999999
aF54.080750000000002
asg21
(dp2462
sbsg23
S'05.02.2011 (10:46:03)'
p2463
sg24
Nsg25
g2453
sbsS'192.168.2.18'
p2464
(iprimitives
AccesPoint
p2465
(dp2466
g62
I0
sg63
S'AirOS(XM.v5.2.1 )'
p2467
sg4
I0
sg5
I0
sg65
g135
sg6
g7
(g8
g9
Ntp2468
Rp2469
(dp2470
g13
g7
(g14
g9
Ntp2471
Rp2472
sg17
g18
sg19
(lp2473
F12.136543
aF54.077759
asg21
(dp2474
sbsg23
S'07.06.2012 (09:11:03)'
p2475
sg24
I0
sg25
g2464
sbsS'192.168.2.19'
p2476
(iprimitives
AccesPoint
p2477
(dp2478
g62
I1
sg63
S'OpenWrt(backfire 10.03.1)'
p2479
sg4
I1
sg5
I0
sg65
g1916
sg6
g7
(g8
g9
Ntp2480
Rp2481
(dp2482
g13
g7
(g14
g9
Ntp2483
Rp2484
sg17
g18
sg19
(lp2485
F12.136533
aF54.077728999999998
asg21
(dp2486
sbsg23
S'07.06.2012 (09:11:03)'
p2487
sg24
I0
sg25
g2476
sbsS'192.168.2.34'
p2488
(iprimitives
AccesPoint
p2489
(dp2490
g4
Nsg5
Nsg6
g7
(g8
g9
Ntp2491
Rp2492
(dp2493
g13
g7
(g14
g9
Ntp2494
Rp2495
sg17
g18
sg19
(lp2496
g35
ag35
asg21
(dp2497
sbsg23
Nsg24
Nsg25
g2488
sbsS'192.168.1.250'
p2498
(iprimitives
AccesPoint
p2499
(dp2500
g4
Nsg5
Nsg6
g7
(g8
g9
Ntp2501
Rp2502
(dp2503
g13
g7
(g14
g9
Ntp2504
Rp2505
sg17
g18
sg19
(lp2506
g35
ag35
asg21
(dp2507
sbsg23
Nsg24
Nsg25
g2498
sbsS'192.168.1.251'
p2508
(iprimitives
AccesPoint
p2509
(dp2510
g4
Nsg5
I3
sg6
g7
(g8
g9
Ntp2511
Rp2512
(dp2513
g13
g7
(g14
g9
Ntp2514
Rp2515
sg17
g18
sg19
(lp2516
F12.193564
aF54.011598999999997
asg21
(dp2517
sbsg23
S'12.03.2010 (16:43:37)'
p2518
sg24
Nsg25
g2508
sbsS'192.168.1.252'
p2519
(iprimitives
AccesPoint
p2520
(dp2521
g4
Nsg5
Nsg6
g7
(g8
g9
Ntp2522
Rp2523
(dp2524
g13
g7
(g14
g9
Ntp2525
Rp2526
sg17
g18
sg19
(lp2527
F12.193813
aF54.011665000000001
asg21
(dp2528
sbsg23
Nsg24
Nsg25
g2519
sbsS'192.168.1.253'
p2529
(iprimitives
AccesPoint
p2530
(dp2531
g4
Nsg5
Nsg6
g7
(g8
g9
Ntp2532
Rp2533
(dp2534
g13
g7
(g14
g9
Ntp2535
Rp2536
sg17
g18
sg19
(lp2537
F12.193322
aF54.013979999999997
asg21
(dp2538
sbsg23
Nsg24
Nsg25
g2529
sbsS'192.168.1.7'
p2539
(iprimitives
AccesPoint
p2540
(dp2541
g4
Nsg5
I3
sg6
g7
(g8
g9
Ntp2542
Rp2543
(dp2544
g13
g7
(g14
g9
Ntp2545
Rp2546
sg17
g18
sg19
(lp2547
F12.116804
aF54.090384
asg21
(dp2548
sbsg23
S'01.09.2010 (13:13:03)'
p2549
sg24
Nsg25
g2539
sbsS'192.168.1.255'
p2550
(iprimitives
AccesPoint
p2551
(dp2552
g4
Nsg5
I3
sg6
g7
(g8
g9
Ntp2553
Rp2554
(dp2555
g13
g7
(g14
g9
Ntp2556
Rp2557
sg17
g18
sg19
(lp2558
F12.387847000000001
aF53.758125
asg21
(dp2559
sbsg23
S'21.10.2010 (08:42:05)'
p2560
sg24
Nsg25
g2550
sbsS'192.168.2.23'
p2561
(iprimitives
AccesPoint
p2562
(dp2563
g4
Nsg5
Nsg6
g7
(g8
g9
Ntp2564
Rp2565
(dp2566
g13
g7
(g14
g9
Ntp2567
Rp2568
sg17
g18
sg19
(lp2569
F12.107659999999999
aF54.076569999999997
asg21
(dp2570
sbsg23
Nsg24
Nsg25
g2561
sbsS'192.168.1.179'
p2571
(iprimitives
AccesPoint
p2572
(dp2573
g4
Nsg5
I0
sg6
g7
(g8
g9
Ntp2574
Rp2575
(dp2576
g13
g7
(g14
g9
Ntp2577
Rp2578
sg17
g18
sg19
(lp2579
F12.123327
aF54.091428999999998
asg21
(dp2580
sbsg23
S'07.06.2012 (09:11:03)'
p2581
sg24
Nsg25
g2571
sbsS'192.168.2.49'
p2582
(iprimitives
AccesPoint
p2583
(dp2584
g4
Nsg5
Nsg6
g7
(g8
g9
Ntp2585
Rp2586
(dp2587
g13
g7
(g14
g9
Ntp2588
Rp2589
sg17
g18
sg19
(lp2590
g35
ag35
asg21
(dp2591
sbsg23
Nsg24
Nsg25
g2582
sbsS'192.168.1.134'
p2592
(iprimitives
AccesPoint
p2593
(dp2594
g62
I1
sg63
S'OpenWrt(white russian  0.9-ON5)'
p2595
sg4
I0
sg5
I3
sg65
g161
sg6
g7
(g8
g9
Ntp2596
Rp2597
(dp2598
g13
g7
(g14
g9
Ntp2599
Rp2600
sg17
g18
sg19
(lp2601
g35
ag35
asg21
(dp2602
sbsg23
S'09.05.2012 (10:47:03)'
p2603
sg24
I0
sg25
g2592
sbsS'192.168.1.236'
p2604
(iprimitives
AccesPoint
p2605
(dp2606
g4
Nsg5
I0
sg6
g7
(g8
g9
Ntp2607
Rp2608
(dp2609
g13
g7
(g14
g9
Ntp2610
Rp2611
sg17
g18
sg19
(lp2612
F12.116523000000001
aF54.088676999999997
asg21
(dp2613
sbsg23
S'07.06.2012 (09:11:03)'
p2614
sg24
Nsg25
g2604
sbsS'192.168.1.108'
p2615
(iprimitives
AccesPoint
p2616
(dp2617
g4
Nsg5
I3
sg6
g7
(g8
g9
Ntp2618
Rp2619
(dp2620
g13
g7
(g14
g9
Ntp2621
Rp2622
sg17
g18
sg19
(lp2623
F12.211976
aF54.048507000000001
asg21
(dp2624
sbsg23
S'17.01.2012 (21:06:03)'
p2625
sg24
Nsg25
g2615
sbsS'192.168.1.234'
p2626
(iprimitives
AccesPoint
p2627
(dp2628
g4
Nsg5
I0
sg6
g7
(g8
g9
Ntp2629
Rp2630
(dp2631
g13
g7
(g14
g9
Ntp2632
Rp2633
sg17
g18
sg19
(lp2634
F12.119057
aF54.101998000000002
asg21
(dp2635
sbsg23
S'07.06.2012 (09:11:03)'
p2636
sg24
Nsg25
g2626
sbsS'192.168.1.235'
p2637
(iprimitives
AccesPoint
p2638
(dp2639
g4
Nsg5
I0
sg6
g7
(g8
g9
Ntp2640
Rp2641
(dp2642
g13
g7
(g14
g9
Ntp2643
Rp2644
sg17
g18
sg19
(lp2645
F12.098535999999999
aF54.092801000000001
asg21
(dp2646
sbsg23
S'07.06.2012 (09:11:03)'
p2647
sg24
Nsg25
g2637
sbsS'192.168.1.232'
p2648
(iprimitives
AccesPoint
p2649
(dp2650
g4
Nsg5
I0
sg6
g7
(g8
g9
Ntp2651
Rp2652
(dp2653
g13
g7
(g14
g9
Ntp2654
Rp2655
sg17
g18
sg19
(lp2656
F12.509345
aF53.776477
asg21
(dp2657
sbsg23
S'07.06.2012 (09:11:03)'
p2658
sg24
Nsg25
g2648
sbsS'192.168.1.233'
p2659
(iprimitives
AccesPoint
p2660
(dp2661
g4
Nsg5
I0
sg6
g7
(g8
g9
Ntp2662
Rp2663
(dp2664
g13
g7
(g14
g9
Ntp2665
Rp2666
sg17
g18
sg19
(lp2667
F12.1167
aF54.088749999999997
asg21
(dp2668
sbsg23
S'07.06.2012 (09:11:03)'
p2669
sg24
Nsg25
g2659
sbsS'192.168.1.230'
p2670
(iprimitives
AccesPoint
p2671
(dp2672
g4
Nsg5
I0
sg6
g7
(g8
g9
Ntp2673
Rp2674
(dp2675
g13
g7
(g14
g9
Ntp2676
Rp2677
sg17
g18
sg19
(lp2678
F12.294624000000001
aF54.007930000000002
asg21
(dp2679
sbsg23
S'07.06.2012 (09:11:03)'
p2680
sg24
Nsg25
g2670
sbsS'192.168.1.109'
p2681
(iprimitives
AccesPoint
p2682
(dp2683
g4
Nsg5
I3
sg6
g7
(g8
g9
Ntp2684
Rp2685
(dp2686
g13
g7
(g14
g9
Ntp2687
Rp2688
sg17
g18
sg19
(lp2689
F12.212908000000001
aF54.047184000000001
asg21
(dp2690
sbsg23
S'12.01.2012 (10:27:03)'
p2691
sg24
Nsg25
g2681
sbsS'192.168.2.38'
p2692
(iprimitives
AccesPoint
p2693
(dp2694
g4
Nsg5
I0
sg6
g7
(g8
g9
Ntp2695
Rp2696
(dp2697
g13
g7
(g14
g9
Ntp2698
Rp2699
sg17
g18
sg19
(lp2700
F12.129282
aF54.083795000000002
asg21
(dp2701
sbsg23
S'07.06.2012 (09:11:03)'
p2702
sg24
Nsg25
g2692
sbsS'192.168.1.136'
p2703
(iprimitives
AccesPoint
p2704
(dp2705
g4
Nsg5
Nsg6
g7
(g8
g9
Ntp2706
Rp2707
(dp2708
g13
g7
(g14
g9
Ntp2709
Rp2710
sg17
g18
sg19
(lp2711
F12.117373000000001
aF54.088540000000002
asg21
(dp2712
sbsg23
Nsg24
Nsg25
g2703
sbsS'192.168.2.2'
p2713
(iprimitives
AccesPoint
p2714
(dp2715
g62
I1
sg63
S'OpenWrt(white russian  0.9-ON5)'
p2716
sg4
I0
sg5
Nsg65
g2254
sg6
g7
(g8
g9
Ntp2717
Rp2718
(dp2719
g13
g7
(g14
g9
Ntp2720
Rp2721
sg17
g18
sg19
(lp2722
g35
ag35
asg21
(dp2723
sbsg23
Nsg24
I0
sg25
g2713
sbsS'192.168.1.238'
p2724
(iprimitives
AccesPoint
p2725
(dp2726
g62
I1
sg63
S'OpenWrt(white russian  0.9-ON5)'
p2727
sg4
I0
sg5
I0
sg65
g148
sg6
g7
(g8
g9
Ntp2728
Rp2729
(dp2730
g13
g7
(g14
g9
Ntp2731
Rp2732
sg17
g18
sg19
(lp2733
F12.477508
aF53.757668000000002
asg21
(dp2734
sbsg23
S'07.06.2012 (09:11:03)'
p2735
sg24
I0
sg25
g2724
sbsS'192.168.1.239'
p2736
(iprimitives
AccesPoint
p2737
(dp2738
g62
I1
sg63
S'OpenWrt(backfire 10.03.1)'
p2739
sg4
I1
sg5
I0
sg65
g1916
sg6
g7
(g8
g9
Ntp2740
Rp2741
(dp2742
g13
g7
(g14
g9
Ntp2743
Rp2744
sg17
g18
sg19
(lp2745
F11.420999999999999
aF53.700800000000001
asg21
(dp2746
sbsg23
S'07.06.2012 (09:11:03)'
p2747
sg24
I0
sg25
g2736
sbsS'192.168.1.131'
p2748
(iprimitives
AccesPoint
p2749
(dp2750
g4
Nsg5
Nsg6
g7
(g8
g9
Ntp2751
Rp2752
(dp2753
g13
g7
(g14
g9
Ntp2754
Rp2755
sg17
g18
sg19
(lp2756
F12.275397999999999
aF53.968097
asg21
(dp2757
sbsg23
Nsg24
Nsg25
g2748
sbsS'192.168.1.130'
p2758
(iprimitives
AccesPoint
p2759
(dp2760
g62
I0
sg63
S'OpenWrt(white russian  0.9-ON5)'
p2761
sg4
I0
sg5
I0
sg65
g2254
sg6
g7
(g8
g9
Ntp2762
Rp2763
(dp2764
g13
g7
(g14
g9
Ntp2765
Rp2766
sg17
g18
sg19
(lp2767
F12.090662999999999
aF54.09619
asg21
(dp2768
sbsg23
S'07.06.2012 (09:11:03)'
p2769
sg24
I1
sg25
g2758
sbsS'192.168.1.133'
p2770
(iprimitives
AccesPoint
p2771
(dp2772
g4
Nsg5
I3
sg6
g7
(g8
g9
Ntp2773
Rp2774
(dp2775
g13
g7
(g14
g9
Ntp2776
Rp2777
sg17
g18
sg19
(lp2778
F12.116227
aF54.088870999999997
asg21
(dp2779
sbsg23
S'19.12.2011 (16:26:04)'
p2780
sg24
Nsg25
g2770
sbsS'192.168.1.132'
p2781
(iprimitives
AccesPoint
p2782
(dp2783
g4
Nsg5
I3
sg6
g7
(g8
g9
Ntp2784
Rp2785
(dp2786
g13
g7
(g14
g9
Ntp2787
Rp2788
sg17
g18
sg19
(lp2789
g35
ag35
asg21
(dp2790
sbsg23
S'26.02.2012 (15:59:03)'
p2791
sg24
Nsg25
g2781
sbsS'192.168.1.135'
p2792
(iprimitives
AccesPoint
p2793
(dp2794
g62
I1
sg63
S'OpenWrt(white russian  0.9-ON5)'
p2795
sg4
I0
sg5
I0
sg65
S'Asus WL500'
p2796
sg6
g7
(g8
g9
Ntp2797
Rp2798
(dp2799
g13
g7
(g14
g9
Ntp2800
Rp2801
sg17
g18
sg19
(lp2802
F12.371995
aF54.274334000000003
asg21
(dp2803
sbsg23
S'07.06.2012 (09:11:03)'
p2804
sg24
I0
sg25
g2792
sbsS'192.168.2.22'
p2805
(iprimitives
AccesPoint
p2806
(dp2807
g4
Nsg5
I3
sg6
g7
(g8
g9
Ntp2808
Rp2809
(dp2810
g13
g7
(g14
g9
Ntp2811
Rp2812
sg17
g18
sg19
(lp2813
F12.106920000000001
aF54.076689999999999
asg21
(dp2814
sbsg23
S'03.08.2011 (07:31:03)'
p2815
sg24
Nsg25
g2805
sbsS'192.168.1.137'
p2816
(iprimitives
AccesPoint
p2817
(dp2818
g4
Nsg5
I1
sg6
g7
(g8
g9
Ntp2819
Rp2820
(dp2821
g13
g7
(g14
g9
Ntp2822
Rp2823
sg17
g18
sg19
(lp2824
F12.121847000000001
aF54.087426000000001
asg21
(dp2825
sbsg23
S'04.06.2012 (15:17:04)'
p2826
sg24
Nsg25
g2816
sbsS'192.168.2.48'
p2827
(iprimitives
AccesPoint
p2828
(dp2829
g62
I1
sg63
S'OpenWrt(backfire 10.03.1)'
p2830
sg4
I0
sg5
I0
sg65
g551
sg6
g7
(g8
g9
Ntp2831
Rp2832
(dp2833
g13
g7
(g14
g9
Ntp2834
Rp2835
sg17
g18
sg19
(lp2836
F12.101312
aF54.092221000000002
asg21
(dp2837
sbsg23
S'07.06.2012 (09:11:03)'
p2838
sg24
I0
sg25
g2827
sbsS'192.168.1.139'
p2839
(iprimitives
AccesPoint
p2840
(dp2841
g4
Nsg5
I3
sg6
g7
(g8
g9
Ntp2842
Rp2843
(dp2844
g13
g7
(g14
g9
Ntp2845
Rp2846
sg17
g18
sg19
(lp2847
F12.113099999999999
aF54.093449999999997
asg21
(dp2848
sbsg23
S'29.03.2011 (13:59:03)'
p2849
sg24
Nsg25
g2839
sbsS'192.168.1.84'
p2850
(iprimitives
AccesPoint
p2851
(dp2852
g4
Nsg5
I3
sg6
g7
(g8
g9
Ntp2853
Rp2854
(dp2855
g13
g7
(g14
g9
Ntp2856
Rp2857
sg17
g18
sg19
(lp2858
F12.213770999999999
aF54.048063999999997
asg21
(dp2859
sbsg23
S'10.08.2011 (13:26:04)'
p2860
sg24
Nsg25
g2850
sbsS'192.168.1.43'
p2861
(iprimitives
AccesPoint
p2862
(dp2863
g4
Nsg5
I3
sg6
g7
(g8
g9
Ntp2864
Rp2865
(dp2866
g13
g7
(g14
g9
Ntp2867
Rp2868
sg17
g18
sg19
(lp2869
F12.112545000000001
aF54.093184000000001
asg21
(dp2870
sbsg23
S'07.03.2012 (05:38:03)'
p2871
sg24
Nsg25
g2861
sbsS'192.168.2.5'
p2872
(iprimitives
AccesPoint
p2873
(dp2874
g62
I0
sg63
S'AirOS(XM.v5.2.1 )'
p2875
sg4
I0
sg5
I0
sg65
g135
sg6
g7
(g8
g9
Ntp2876
Rp2877
(dp2878
g13
g7
(g14
g9
Ntp2879
Rp2880
sg17
g18
sg19
(lp2881
F12.107875
aF54.071534999999997
asg21
(dp2882
sbsg23
S'07.06.2012 (09:11:03)'
p2883
sg24
I0
sg25
g2872
sbsS'192.168.2.15'
p2884
(iprimitives
AccesPoint
p2885
(dp2886
g4
Nsg5
Nsg6
g7
(g8
g9
Ntp2887
Rp2888
(dp2889
g13
g7
(g14
g9
Ntp2890
Rp2891
sg17
g18
sg19
(lp2892
F12.158569999999999
aF54.027749999999997
asg21
(dp2893
sbsg23
Nsg24
Nsg25
g2884
sbsS'192.168.2.6'
p2894
(iprimitives
AccesPoint
p2895
(dp2896
g62
I0
sg63
S'AirOS(XM.v5.2.1 )'
p2897
sg4
I0
sg5
I0
sg65
g135
sg6
g7
(g8
g9
Ntp2898
Rp2899
(dp2900
g13
g7
(g14
g9
Ntp2901
Rp2902
sg17
g18
sg19
(lp2903
F12.107988000000001
aF54.071556000000001
asg21
(dp2904
sbsg23
S'07.06.2012 (09:11:03)'
p2905
sg24
I0
sg25
g2894
sbsS'192.168.2.7'
p2906
(iprimitives
AccesPoint
p2907
(dp2908
g4
Nsg5
I0
sg6
g7
(g8
g9
Ntp2909
Rp2910
(dp2911
g13
g7
(g14
g9
Ntp2912
Rp2913
sg17
g18
sg19
(lp2914
F12.106773
aF54.076735999999997
asg21
(dp2915
sbsg23
S'07.06.2012 (09:11:03)'
p2916
sg24
Nsg25
g2906
sbsS'192.168.1.55'
p2917
(iprimitives
AccesPoint
p2918
(dp2919
g4
Nsg5
I0
sg6
g7
(g8
g9
Ntp2920
Rp2921
(dp2922
g13
g7
(g14
g9
Ntp2923
Rp2924
sg17
g18
sg19
(lp2925
F12.110189999999999
aF54.090800000000002
asg21
(dp2926
sbsg23
S'07.06.2012 (08:33:03)'
p2927
sg24
Nsg25
g2917
sbsS'192.168.1.44'
p2928
(iprimitives
AccesPoint
p2929
(dp2930
g4
Nsg5
I3
sg6
g7
(g8
g9
Ntp2931
Rp2932
(dp2933
g13
g7
(g14
g9
Ntp2934
Rp2935
sg17
g18
sg19
(lp2936
F12.295858000000001
aF54.007876000000003
asg21
(dp2937
sbsg23
S'07.04.2012 (10:34:03)'
p2938
sg24
Nsg25
g2928
sbsS'192.168.1.45'
p2939
(iprimitives
AccesPoint
p2940
(dp2941
g4
Nsg5
I3
sg6
g7
(g8
g9
Ntp2942
Rp2943
(dp2944
g13
g7
(g14
g9
Ntp2945
Rp2946
sg17
g18
sg19
(lp2947
F12.112869999999999
aF54.0929
asg21
(dp2948
sbsg23
S'27.03.2011 (02:25:03)'
p2949
sg24
Nsg25
g2939
sbsS'192.168.1.46'
p2950
(iprimitives
AccesPoint
p2951
(dp2952
g62
I0
sg63
S'AirOS(XM.v5.2.1 )'
p2953
sg4
I0
sg5
I0
sg65
g135
sg6
g7
(g8
g9
Ntp2954
Rp2955
(dp2956
g13
g7
(g14
g9
Ntp2957
Rp2958
sg17
g18
sg19
(lp2959
F12.136513000000001
aF54.077708999999999
asg21
(dp2960
sbsg23
S'07.06.2012 (09:11:03)'
p2961
sg24
I0
sg25
g2950
sbsS'192.168.1.47'
p2962
(iprimitives
AccesPoint
p2963
(dp2964
g4
Nsg5
I0
sg6
g7
(g8
g9
Ntp2965
Rp2966
(dp2967
g13
g7
(g14
g9
Ntp2968
Rp2969
sg17
g18
sg19
(lp2970
F12.159000000000001
aF54.075299999999999
asg21
(dp2971
sbsg23
S'07.06.2012 (09:11:03)'
p2972
sg24
Nsg25
g2962
sbsS'192.168.1.40'
p2973
(iprimitives
AccesPoint
p2974
(dp2975
g4
Nsg5
I0
sg6
g7
(g8
g9
Ntp2976
Rp2977
(dp2978
g13
g7
(g14
g9
Ntp2979
Rp2980
sg17
g18
sg19
(lp2981
F12.295479
aF54.008681000000003
asg21
(dp2982
sbsg23
S'07.06.2012 (09:11:03)'
p2983
sg24
Nsg25
g2973
sbsS'192.168.1.41'
p2984
(iprimitives
AccesPoint
p2985
(dp2986
g4
Nsg5
I0
sg6
g7
(g8
g9
Ntp2987
Rp2988
(dp2989
g13
g7
(g14
g9
Ntp2990
Rp2991
sg17
g18
sg19
(lp2992
F12.114699999999999
aF54.088000000000001
asg21
(dp2993
sbsg23
S'07.06.2012 (09:11:03)'
p2994
sg24
Nsg25
g2984
sbsS'192.168.1.42'
p2995
(iprimitives
AccesPoint
p2996
(dp2997
g4
Nsg5
I3
sg6
g7
(g8
g9
Ntp2998
Rp2999
(dp3000
g13
g7
(g14
g9
Ntp3001
Rp3002
sg17
g18
sg19
(lp3003
F12.117862000000001
aF54.088703000000002
asg21
(dp3004
sbsg23
S'19.05.2012 (13:21:03)'
p3005
sg24
Nsg25
g2995
sbsS'192.168.1.89'
p3006
(iprimitives
AccesPoint
p3007
(dp3008
g4
Nsg5
I0
sg6
g7
(g8
g9
Ntp3009
Rp3010
(dp3011
g13
g7
(g14
g9
Ntp3012
Rp3013
sg17
g18
sg19
(lp3014
F12.1065
aF54.092500000000001
asg21
(dp3015
sbsg23
S'07.06.2012 (09:11:03)'
p3016
sg24
Nsg25
g3006
sbsS'192.168.1.48'
p3017
(iprimitives
AccesPoint
p3018
(dp3019
g4
Nsg5
I3
sg6
g7
(g8
g9
Ntp3020
Rp3021
(dp3022
g13
g7
(g14
g9
Ntp3023
Rp3024
sg17
g18
sg19
(lp3025
F12.109734
aF54.104897999999999
asg21
(dp3026
sbsg23
S'06.05.2012 (07:33:03)'
p3027
sg24
Nsg25
g3017
sbsS'192.168.1.49'
p3028
(iprimitives
AccesPoint
p3029
(dp3030
g4
Nsg5
I3
sg6
g7
(g8
g9
Ntp3031
Rp3032
(dp3033
g13
g7
(g14
g9
Ntp3034
Rp3035
sg17
g18
sg19
(lp3036
g35
ag35
asg21
(dp3037
sbsg23
S'14.11.2011 (07:40:03)'
p3038
sg24
Nsg25
g3028
sbsS'192.168.1.203'
p3039
(iprimitives
AccesPoint
p3040
(dp3041
g4
Nsg5
I3
sg6
g7
(g8
g9
Ntp3042
Rp3043
(dp3044
g13
g7
(g14
g9
Ntp3045
Rp3046
sg17
g18
sg19
(lp3047
g35
ag35
asg21
(dp3048
sbsg23
S'03.09.2010 (12:28:04)'
p3049
sg24
Nsg25
g3039
sbsS'192.168.1.202'
p3050
(iprimitives
AccesPoint
p3051
(dp3052
g62
I1
sg63
S'OpenWrt(backfire 10.03.1-RC6)'
p3053
sg4
I1
sg5
I0
sg65
g161
sg6
g7
(g8
g9
Ntp3054
Rp3055
(dp3056
g13
g7
(g14
g9
Ntp3057
Rp3058
sg17
g18
sg19
(lp3059
F12.123295000000001
aF54.091227000000003
asg21
(dp3060
sbsg23
S'07.06.2012 (09:11:03)'
p3061
sg24
I0
sg25
g3050
sbsS'192.168.1.201'
p3062
(iprimitives
AccesPoint
p3063
(dp3064
g62
I1
sg63
S'OpenWrt(backfire 10.03.1-RC6)'
p3065
sg4
I1
sg5
I0
sg65
g161
sg6
g7
(g8
g9
Ntp3066
Rp3067
(dp3068
g13
g7
(g14
g9
Ntp3069
Rp3070
sg17
g18
sg19
(lp3071
F12.123245000000001
aF54.09122
asg21
(dp3072
sbsg23
S'07.06.2012 (09:11:03)'
p3073
sg24
I0
sg25
g3062
sbsS'192.168.1.200'
p3074
(iprimitives
AccesPoint
p3075
(dp3076
g4
Nsg5
I1
sg6
g7
(g8
g9
Ntp3077
Rp3078
(dp3079
g13
g7
(g14
g9
Ntp3080
Rp3081
sg17
g18
sg19
(lp3082
F12.150007
aF54.115496
asg21
(dp3083
sbsg23
S'06.06.2012 (19:14:03)'
p3084
sg24
Nsg25
g3074
sbsS'192.168.1.207'
p3085
(iprimitives
AccesPoint
p3086
(dp3087
g4
Nsg5
I3
sg6
g7
(g8
g9
Ntp3088
Rp3089
(dp3090
g13
g7
(g14
g9
Ntp3091
Rp3092
sg17
g18
sg19
(lp3093
F12.170894000000001
aF54.028230000000001
asg21
(dp3094
sbsg23
S'19.11.2011 (10:22:03)'
p3095
sg24
Nsg25
g3085
sbsS'192.168.1.206'
p3096
(iprimitives
AccesPoint
p3097
(dp3098
g4
Nsg5
I3
sg6
g7
(g8
g9
Ntp3099
Rp3100
(dp3101
g13
g7
(g14
g9
Ntp3102
Rp3103
sg17
g18
sg19
(lp3104
g35
ag35
asg21
(dp3105
sbsg23
S'13.01.2012 (10:40:03)'
p3106
sg24
Nsg25
g3096
sbsS'192.168.1.205'
p3107
(iprimitives
AccesPoint
p3108
(dp3109
g62
I0
sg63
S'OpenWrt(backfire 10.03.1)'
p3110
sg4
I0
sg5
I0
sg65
g1916
sg6
g7
(g8
g9
Ntp3111
Rp3112
(dp3113
g13
g7
(g14
g9
Ntp3114
Rp3115
sg17
g18
sg19
(lp3116
F11.41611
aF53.63082
asg21
(dp3117
sbsg23
S'07.06.2012 (09:11:03)'
p3118
sg24
I1
sg25
g3107
sbsS'192.168.1.204'
p3119
(iprimitives
AccesPoint
p3120
(dp3121
g4
Nsg5
I3
sg6
g7
(g8
g9
Ntp3122
Rp3123
(dp3124
g13
g7
(g14
g9
Ntp3125
Rp3126
sg17
g18
sg19
(lp3127
F12.211905
aF54.049008999999998
asg21
(dp3128
sbsg23
S'31.03.2012 (06:40:03)'
p3129
sg24
Nsg25
g3119
sbsS'192.168.1.209'
p3130
(iprimitives
AccesPoint
p3131
(dp3132
g4
Nsg5
I3
sg6
g7
(g8
g9
Ntp3133
Rp3134
(dp3135
g13
g7
(g14
g9
Ntp3136
Rp3137
sg17
g18
sg19
(lp3138
F12.155127999999999
aF54.023781
asg21
(dp3139
sbsg23
S'02.03.2012 (07:16:03)'
p3140
sg24
Nsg25
g3130
sbsS'192.168.1.208'
p3141
(iprimitives
AccesPoint
p3142
(dp3143
g4
Nsg5
I0
sg6
g7
(g8
g9
Ntp3144
Rp3145
(dp3146
g13
g7
(g14
g9
Ntp3147
Rp3148
sg17
g18
sg19
(lp3149
F12.156909000000001
aF54.026389999999999
asg21
(dp3150
sbsg23
S'07.06.2012 (09:11:03)'
p3151
sg24
Nsg25
g3141
sbsS'192.168.1.228'
p3152
(iprimitives
AccesPoint
p3153
(dp3154
g4
Nsg5
Nsg6
g7
(g8
g9
Ntp3155
Rp3156
(dp3157
g13
g7
(g14
g9
Ntp3158
Rp3159
sg17
g18
sg19
(lp3160
F12.260804
aF54.017482000000001
asg21
(dp3161
sbsg23
Nsg24
Nsg25
g3152
sbsS'192.168.1.122'
p3162
(iprimitives
AccesPoint
p3163
(dp3164
g4
Nsg5
I0
sg6
g7
(g8
g9
Ntp3165
Rp3166
(dp3167
g13
g7
(g14
g9
Ntp3168
Rp3169
sg17
g18
sg19
(lp3170
F12.1153
aF54.087499999999999
asg21
(dp3171
sbsg23
S'07.06.2012 (09:11:03)'
p3172
sg24
Nsg25
g3162
sbsS'192.168.1.6'
p3173
(iprimitives
AccesPoint
p3174
(dp3175
g4
Nsg5
I3
sg6
g7
(g8
g9
Ntp3176
Rp3177
(dp3178
g13
g7
(g14
g9
Ntp3179
Rp3180
sg17
g18
sg19
(lp3181
g35
ag35
asg21
(dp3182
sbsg23
S'18.09.2011 (14:54:03)'
p3183
sg24
Nsg25
g3173
sbsS'192.168.1.5'
p3184
(iprimitives
AccesPoint
p3185
(dp3186
g4
Nsg5
I3
sg6
g7
(g8
g9
Ntp3187
Rp3188
(dp3189
g13
g7
(g14
g9
Ntp3190
Rp3191
sg17
g18
sg19
(lp3192
g35
ag35
asg21
(dp3193
sbsg23
S'28.09.2011 (14:49:03)'
p3194
sg24
Nsg25
g3184
sbsS'192.168.1.4'
p3195
(iprimitives
AccesPoint
p3196
(dp3197
g4
Nsg5
I3
sg6
g7
(g8
g9
Ntp3198
Rp3199
(dp3200
g13
g7
(g14
g9
Ntp3201
Rp3202
sg17
g18
sg19
(lp3203
g35
ag35
asg21
(dp3204
sbsg23
S'09.12.2011 (12:00:03)'
p3205
sg24
Nsg25
g3195
sbsS'192.168.1.126'
p3206
(iprimitives
AccesPoint
p3207
(dp3208
g4
Nsg5
I0
sg6
g7
(g8
g9
Ntp3209
Rp3210
(dp3211
g13
g7
(g14
g9
Ntp3212
Rp3213
sg17
g18
sg19
(lp3214
F12.120480000000001
aF54.072296999999999
asg21
(dp3215
sbsg23
S'07.06.2012 (09:11:03)'
p3216
sg24
Nsg25
g3206
sbsS'192.168.1.127'
p3217
(iprimitives
AccesPoint
p3218
(dp3219
g4
Nsg5
I0
sg6
g7
(g8
g9
Ntp3220
Rp3221
(dp3222
g13
g7
(g14
g9
Ntp3223
Rp3224
sg17
g18
sg19
(lp3225
F12.126792999999999
aF54.095688000000003
asg21
(dp3226
sbsg23
S'07.06.2012 (09:11:03)'
p3227
sg24
Nsg25
g3217
sbsS'192.168.1.124'
p3228
(iprimitives
AccesPoint
p3229
(dp3230
g62
I1
sg63
S'OpenWrt(backfire 10.03.1-RC6)'
p3231
sg4
I1
sg5
I0
sg65
g161
sg6
g7
(g8
g9
Ntp3232
Rp3233
(dp3234
g13
g7
(g14
g9
Ntp3235
Rp3236
sg17
g18
sg19
(lp3237
F12.11665
aF54.088549999999998
asg21
(dp3238
sbsg23
S'07.06.2012 (09:11:03)'
p3239
sg24
I0
sg25
g3228
sbsS'192.168.1.125'
p3240
(iprimitives
AccesPoint
p3241
(dp3242
g4
Nsg5
I3
sg6
g7
(g8
g9
Ntp3243
Rp3244
(dp3245
g13
g7
(g14
g9
Ntp3246
Rp3247
sg17
g18
sg19
(lp3248
F12.211786999999999
aF54.048949
asg21
(dp3249
sbsg23
S'14.01.2012 (13:33:03)'
p3250
sg24
Nsg25
g3240
sbsS'192.168.1.128'
p3251
(iprimitives
AccesPoint
p3252
(dp3253
g4
Nsg5
I0
sg6
g7
(g8
g9
Ntp3254
Rp3255
(dp3256
g13
g7
(g14
g9
Ntp3257
Rp3258
sg17
g18
sg19
(lp3259
F12.114927
aF54.088099999999997
asg21
(dp3260
sbsg23
S'07.06.2012 (09:11:03)'
p3261
sg24
Nsg25
g3251
sbsS'192.168.1.129'
p3262
(iprimitives
AccesPoint
p3263
(dp3264
g4
Nsg5
I3
sg6
g7
(g8
g9
Ntp3265
Rp3266
(dp3267
g13
g7
(g14
g9
Ntp3268
Rp3269
sg17
g18
sg19
(lp3270
g35
ag35
asg21
(dp3271
sbsg23
S'09.12.2011 (12:00:03)'
p3272
sg24
Nsg25
g3262
sbsS'192.168.1.9'
p3273
(iprimitives
AccesPoint
p3274
(dp3275
g4
Nsg5
Nsg6
g7
(g8
g9
Ntp3276
Rp3277
(dp3278
g13
g7
(g14
g9
Ntp3279
Rp3280
sg17
g18
sg19
(lp3281
F12.072407
aF54.092807999999998
asg21
(dp3282
sbsg23
Nsg24
Nsg25
g3273
sbsS'192.168.1.8'
p3283
(iprimitives
AccesPoint
p3284
(dp3285
g4
Nsg5
Nsg6
g7
(g8
g9
Ntp3286
Rp3287
(dp3288
g13
g7
(g14
g9
Ntp3289
Rp3290
sg17
g18
sg19
(lp3291
F12.099026439999999
aF54.090969180000002
asg21
(dp3292
sbsg23
Nsg24
Nsg25
g3283
sbsS'192.168.1.57'
p3293
(iprimitives
AccesPoint
p3294
(dp3295
g4
Nsg5
I0
sg6
g7
(g8
g9
Ntp3296
Rp3297
(dp3298
g13
g7
(g14
g9
Ntp3299
Rp3300
sg17
g18
sg19
(lp3301
F12.117865999999999
aF54.091793000000003
asg21
(dp3302
sbsg23
S'07.06.2012 (09:11:03)'
p3303
sg24
Nsg25
g3293
sbsS'192.168.1.56'
p3304
(iprimitives
AccesPoint
p3305
(dp3306
g4
Nsg5
I3
sg6
g7
(g8
g9
Ntp3307
Rp3308
(dp3309
g13
g7
(g14
g9
Ntp3310
Rp3311
sg17
g18
sg19
(lp3312
F12.112
aF54.088459999999998
asg21
(dp3313
sbsg23
S'01.04.2012 (17:43:03)'
p3314
sg24
Nsg25
g3304
sbsS'192.168.1.83'
p3315
(iprimitives
AccesPoint
p3316
(dp3317
g4
Nsg5
I3
sg6
g7
(g8
g9
Ntp3318
Rp3319
(dp3320
g13
g7
(g14
g9
Ntp3321
Rp3322
sg17
g18
sg19
(lp3323
F12.117212
aF54.091774999999998
asg21
(dp3324
sbsg23
S'21.05.2011 (13:10:03)'
p3325
sg24
Nsg25
g3315
sbsS'192.168.1.54'
p3326
(iprimitives
AccesPoint
p3327
(dp3328
g62
I1
sg63
S'OpenWrt(backfire 10.03.1)'
p3329
sg4
I0
sg5
I0
sg65
g1368
sg6
g7
(g8
g9
Ntp3330
Rp3331
(dp3332
g13
g7
(g14
g9
Ntp3333
Rp3334
sg17
g18
sg19
(lp3335
F12.13598
aF54.08267
asg21
(dp3336
sbsg23
S'07.06.2012 (09:11:03)'
p3337
sg24
I0
sg25
g3326
sbsS'192.168.1.53'
p3338
(iprimitives
AccesPoint
p3339
(dp3340
g4
Nsg5
I3
sg6
g7
(g8
g9
Ntp3341
Rp3342
(dp3343
g13
g7
(g14
g9
Ntp3344
Rp3345
sg17
g18
sg19
(lp3346
F12.123699999999999
aF54.088039999999999
asg21
(dp3347
sbsg23
S'27.03.2011 (15:59:03)'
p3348
sg24
Nsg25
g3338
sbsS'192.168.1.52'
p3349
(iprimitives
AccesPoint
p3350
(dp3351
g62
I0
sg63
S'AirOS(XM.v5.2.1 )'
p3352
sg4
I0
sg5
I0
sg65
g135
sg6
g7
(g8
g9
Ntp3353
Rp3354
(dp3355
g13
g7
(g14
g9
Ntp3356
Rp3357
sg17
g18
sg19
(lp3358
F12.120564999999999
aF54.07244
asg21
(dp3359
sbsg23
S'07.06.2012 (09:11:03)'
p3360
sg24
I0
sg25
g3349
sbsS'192.168.1.51'
p3361
(iprimitives
AccesPoint
p3362
(dp3363
g62
I1
sg63
S'OpenWrt(white russian  0.9-ON5)'
p3364
sg4
I0
sg5
I0
sg65
g148
sg6
g7
(g8
g9
Ntp3365
Rp3366
(dp3367
g13
g7
(g14
g9
Ntp3368
Rp3369
sg17
g18
sg19
(lp3370
F12.157750999999999
aF54.027552999999997
asg21
(dp3371
sbsg23
S'07.06.2012 (09:11:03)'
p3372
sg24
I0
sg25
g3361
sbsS'192.168.1.50'
p3373
(iprimitives
AccesPoint
p3374
(dp3375
g4
Nsg5
I3
sg6
g7
(g8
g9
Ntp3376
Rp3377
(dp3378
g13
g7
(g14
g9
Ntp3379
Rp3380
sg17
g18
sg19
(lp3381
F12.325222
aF53.781148999999999
asg21
(dp3382
sbsg23
S'23.05.2011 (21:37:03)'
p3383
sg24
Nsg25
g3373
sbsS'192.168.1.59'
p3384
(iprimitives
AccesPoint
p3385
(dp3386
g4
Nsg5
I0
sg6
g7
(g8
g9
Ntp3387
Rp3388
(dp3389
g13
g7
(g14
g9
Ntp3390
Rp3391
sg17
g18
sg19
(lp3392
F11.413942
aF53.629559
asg21
(dp3393
sbsg23
S'07.06.2012 (09:11:03)'
p3394
sg24
Nsg25
g3384
sbsS'192.168.1.58'
p3395
(iprimitives
AccesPoint
p3396
(dp3397
g62
I1
sg63
S'OpenWrt(white russian  0.9-ON5)'
p3398
sg4
I0
sg5
I0
sg65
g2254
sg6
g7
(g8
g9
Ntp3399
Rp3400
(dp3401
g13
g7
(g14
g9
Ntp3402
Rp3403
sg17
g18
sg19
(lp3404
F12.158689000000001
aF54.075299999999999
asg21
(dp3405
sbsg23
S'07.06.2012 (09:11:03)'
p3406
sg24
I0
sg25
g3395
sbs.